
build/bin/lunaix.bin:     file format elf32-i386


Disassembly of section .hhk_init_text:

00100000 <start_-0xc>:
  100000:	02 b0 ad 1b 03 00    	add    0x31bad(%eax),%dh
  100006:	00 00                	add    %al,(%eax)
  100008:	fb                   	sti    
  100009:	4f                   	dec    %edi
  10000a:	52                   	push   %edx
  10000b:	e4                 	in     $0xbc,%al

0010000c <start_>:
  10000c:	bc be 5f 10 00       	mov    $0x105fbe,%esp
  100011:	83 ec 10             	sub    $0x10,%esp
  100014:	c7 44 24 04 00 10 10 	movl   $0x101000,0x4(%esp)
  10001b:	00 
  10001c:	89 1c 24             	mov    %ebx,(%esp)
  10001f:	e8 1c 02 00 00       	call   100240 <_save_multiboot_info>
  100024:	c7 44 24 04 00 60 00 	movl   $0x6000,0x4(%esp)
  10002b:	00 
  10002c:	c7 04 24 00 b0 12 00 	movl   $0x12b000,(%esp)
  100033:	e8 ce 02 00 00       	call   100306 <_hhk_init>
  100038:	8b 04 24             	mov    (%esp),%eax
  10003b:	25 00 f0 ff ff       	and    $0xfffff000,%eax
  100040:	0f 22 d8             	mov    %eax,%cr3
  100043:	0f 20 c0             	mov    %cr0,%eax
  100046:	0d 00 00 00 80       	or     $0x80000000,%eax
  10004b:	0f 22 c0             	mov    %eax,%cr0
  10004e:	83 c4 10             	add    $0x10,%esp
  100051:	68 4f 6e 10 c0       	push   $0xc0106e4f
  100056:	c3                   	ret    

00100057 <_init_page>:
  100057:	83 ec 20             	sub    $0x20,%esp
  10005a:	8b 44 24 24          	mov    0x24(%esp),%eax
  10005e:	05 00 10 00 00       	add    $0x1000,%eax
  100063:	25 00 f0 ff ff       	and    $0xfffff000,%eax
  100068:	83 c8 01             	or     $0x1,%eax
  10006b:	89 c2                	mov    %eax,%edx
  10006d:	8b 44 24 24          	mov    0x24(%esp),%eax
  100071:	89 10                	mov    %edx,(%eax)
  100073:	c7 44 24 1c 00 00 00 	movl   $0x0,0x1c(%esp)
  10007a:	00 
  10007b:	eb 29                	jmp    1000a6 <_init_page+0x4f>
  10007d:	8b 44 24 1c          	mov    0x1c(%esp),%eax
  100081:	c1 e0 0c             	shl    $0xc,%eax
  100084:	89 c2                	mov    %eax,%edx
  100086:	8b 44 24 1c          	mov    0x1c(%esp),%eax
  10008a:	05 00 04 00 00       	add    $0x400,%eax
  10008f:	8d 0c 85 00 00 00 00 	lea    0x0(,%eax,4),%ecx
  100096:	8b 44 24 24          	mov    0x24(%esp),%eax
  10009a:	01 c8                	add    %ecx,%eax
  10009c:	83 ca 03             	or     $0x3,%edx
  10009f:	89 10                	mov    %edx,(%eax)
  1000a1:	83 44 24 1c 01       	addl   $0x1,0x1c(%esp)
  1000a6:	81 7c 24 1c ff 00 00 	cmpl   $0xff,0x1c(%esp)
  1000ad:	00 
  1000ae:	76 cd                	jbe    10007d <_init_page+0x26>
  1000b0:	c7 44 24 18 00 00 00 	movl   $0x0,0x18(%esp)
  1000b7:	00 
  1000b8:	eb 2d                	jmp    1000e7 <_init_page+0x90>
  1000ba:	8b 44 24 18          	mov    0x18(%esp),%eax
  1000be:	c1 e0 0c             	shl    $0xc,%eax
  1000c1:	8d 90 00 00 10 00    	lea    0x100000(%eax),%edx
  1000c7:	8b 44 24 18          	mov    0x18(%esp),%eax
  1000cb:	05 00 05 00 00       	add    $0x500,%eax
  1000d0:	8d 0c 85 00 00 00 00 	lea    0x0(,%eax,4),%ecx
  1000d7:	8b 44 24 24          	mov    0x24(%esp),%eax
  1000db:	01 c8                	add    %ecx,%eax
  1000dd:	83 ca 03             	or     $0x3,%edx
  1000e0:	89 10                	mov    %edx,(%eax)
  1000e2:	83 44 24 18 01       	addl   $0x1,0x18(%esp)
  1000e7:	b8 be 5f 10 00       	mov    $0x105fbe,%eax
  1000ec:	2d 01 f0 0f 00       	sub    $0xff001,%eax
  1000f1:	c1 e8 0c             	shr    $0xc,%eax
  1000f4:	39 44 24 18          	cmp    %eax,0x18(%esp)
  1000f8:	72 c0                	jb     1000ba <_init_page+0x63>
  1000fa:	b8 00 60 10 c0       	mov    $0xc0106000,%eax
  1000ff:	c1 e8 16             	shr    $0x16,%eax
  100102:	89 44 24 0c          	mov    %eax,0xc(%esp)
  100106:	b8 00 60 10 c0       	mov    $0xc0106000,%eax
  10010b:	c1 e8 0c             	shr    $0xc,%eax
  10010e:	25 ff 03 00 00       	and    $0x3ff,%eax
  100113:	89 44 24 08          	mov    %eax,0x8(%esp)
  100117:	b8 00 10 13 c0       	mov    $0xc0131000,%eax
  10011c:	05 00 10 00 00       	add    $0x1000,%eax
  100121:	83 e8 01             	sub    $0x1,%eax
  100124:	ba 00 60 10 c0       	mov    $0xc0106000,%edx
  100129:	29 d0                	sub    %edx,%eax
  10012b:	c1 e8 0c             	shr    $0xc,%eax
  10012e:	89 44 24 04          	mov    %eax,0x4(%esp)
  100132:	c7 44 24 14 00 00 00 	movl   $0x0,0x14(%esp)
  100139:	00 
  10013a:	eb 3a                	jmp    100176 <_init_page+0x11f>
  10013c:	8b 44 24 14          	mov    0x14(%esp),%eax
  100140:	83 c0 02             	add    $0x2,%eax
  100143:	c1 e0 0c             	shl    $0xc,%eax
  100146:	89 c2                	mov    %eax,%edx
  100148:	8b 44 24 24          	mov    0x24(%esp),%eax
  10014c:	01 d0                	add    %edx,%eax
  10014e:	25 00 f0 ff ff       	and    $0xfffff000,%eax
  100153:	89 c2                	mov    %eax,%edx
  100155:	8b 4c 24 0c          	mov    0xc(%esp),%ecx
  100159:	8b 44 24 14          	mov    0x14(%esp),%eax
  10015d:	01 c8                	add    %ecx,%eax
  10015f:	8d 0c 85 00 00 00 00 	lea    0x0(,%eax,4),%ecx
  100166:	8b 44 24 24          	mov    0x24(%esp),%eax
  10016a:	01 c8                	add    %ecx,%eax
  10016c:	83 ca 03             	or     $0x3,%edx
  10016f:	89 10                	mov    %edx,(%eax)
  100171:	83 44 24 14 01       	addl   $0x1,0x14(%esp)
  100176:	83 7c 24 14 02       	cmpl   $0x2,0x14(%esp)
  10017b:	76 bf                	jbe    10013c <_init_page+0xe5>
  10017d:	81 7c 24 04 00 0c 00 	cmpl   $0xc00,0x4(%esp)
  100184:	00 
  100185:	76 02                	jbe    100189 <_init_page+0x132>
  100187:	eb fe                	jmp    100187 <_init_page+0x130>
  100189:	b8 00 60 10 c0       	mov    $0xc0106000,%eax
  10018e:	05 00 00 00 40       	add    $0x40000000,%eax
  100193:	89 04 24             	mov    %eax,(%esp)
  100196:	c7 44 24 10 00 00 00 	movl   $0x0,0x10(%esp)
  10019d:	00 
  10019e:	eb 3b                	jmp    1001db <_init_page+0x184>
  1001a0:	8b 44 24 10          	mov    0x10(%esp),%eax
  1001a4:	c1 e0 0c             	shl    $0xc,%eax
  1001a7:	89 c2                	mov    %eax,%edx
  1001a9:	8b 04 24             	mov    (%esp),%eax
  1001ac:	01 d0                	add    %edx,%eax
  1001ae:	25 00 f0 ff ff       	and    $0xfffff000,%eax
  1001b3:	89 c2                	mov    %eax,%edx
  1001b5:	8b 4c 24 08          	mov    0x8(%esp),%ecx
  1001b9:	8b 44 24 10          	mov    0x10(%esp),%eax
  1001bd:	01 c8                	add    %ecx,%eax
  1001bf:	05 00 08 00 00       	add    $0x800,%eax
  1001c4:	8d 0c 85 00 00 00 00 	lea    0x0(,%eax,4),%ecx
  1001cb:	8b 44 24 24          	mov    0x24(%esp),%eax
  1001cf:	01 c8                	add    %ecx,%eax
  1001d1:	83 ca 03             	or     $0x3,%edx
  1001d4:	89 10                	mov    %edx,(%eax)
  1001d6:	83 44 24 10 01       	addl   $0x1,0x10(%esp)
  1001db:	8b 44 24 10          	mov    0x10(%esp),%eax
  1001df:	3b 44 24 04          	cmp    0x4(%esp),%eax
  1001e3:	72 bb                	jb     1001a0 <_init_page+0x149>
  1001e5:	8b 44 24 24          	mov    0x24(%esp),%eax
  1001e9:	25 00 f0 ff ff       	and    $0xfffff000,%eax
  1001ee:	89 c2                	mov    %eax,%edx
  1001f0:	8b 44 24 24          	mov    0x24(%esp),%eax
  1001f4:	05 fc 0f 00 00       	add    $0xffc,%eax
  1001f9:	83 ca 13             	or     $0x13,%edx
  1001fc:	89 10                	mov    %edx,(%eax)
  1001fe:	90                   	nop
  1001ff:	83 c4 20             	add    $0x20,%esp
  100202:	c3                   	ret    

00100203 <__save_subset>:
  100203:	83 ec 10             	sub    $0x10,%esp
  100206:	c7 44 24 0c 00 00 00 	movl   $0x0,0xc(%esp)
  10020d:	00 
  10020e:	eb 1e                	jmp    10022e <__save_subset+0x2b>
  100210:	8b 54 24 18          	mov    0x18(%esp),%edx
  100214:	8b 44 24 0c          	mov    0xc(%esp),%eax
  100218:	01 d0                	add    %edx,%eax
  10021a:	8b 4c 24 14          	mov    0x14(%esp),%ecx
  10021e:	8b 54 24 0c          	mov    0xc(%esp),%edx
  100222:	01 ca                	add    %ecx,%edx
  100224:	0f b6 00             	movzbl (%eax),%eax
  100227:	88 02                	mov    %al,(%edx)
  100229:	83 44 24 0c 01       	addl   $0x1,0xc(%esp)
  10022e:	8b 44 24 0c          	mov    0xc(%esp),%eax
  100232:	3b 44 24 1c          	cmp    0x1c(%esp),%eax
  100236:	72 d8                	jb     100210 <__save_subset+0xd>
  100238:	8b 44 24 0c          	mov    0xc(%esp),%eax
  10023c:	83 c4 10             	add    $0x10,%esp
  10023f:	c3                   	ret    

00100240 <_save_multiboot_info>:
  100240:	53                   	push   %ebx
  100241:	83 ec 10             	sub    $0x10,%esp
  100244:	c7 44 24 0c 00 00 00 	movl   $0x0,0xc(%esp)
  10024b:	00 
  10024c:	8b 44 24 18          	mov    0x18(%esp),%eax
  100250:	89 44 24 08          	mov    %eax,0x8(%esp)
  100254:	eb 20                	jmp    100276 <_save_multiboot_info+0x36>
  100256:	8b 44 24 08          	mov    0x8(%esp),%eax
  10025a:	0f b6 10             	movzbl (%eax),%edx
  10025d:	8b 44 24 0c          	mov    0xc(%esp),%eax
  100261:	89 c3                	mov    %eax,%ebx
  100263:	8b 4c 24 1c          	mov    0x1c(%esp),%ecx
  100267:	8b 44 24 0c          	mov    0xc(%esp),%eax
  10026b:	01 c8                	add    %ecx,%eax
  10026d:	01 da                	add    %ebx,%edx
  10026f:	88 10                	mov    %dl,(%eax)
  100271:	83 44 24 0c 01       	addl   $0x1,0xc(%esp)
  100276:	83 7c 24 0c 77       	cmpl   $0x77,0xc(%esp)
  10027b:	76 d9                	jbe    100256 <_save_multiboot_info+0x16>
  10027d:	8b 54 24 1c          	mov    0x1c(%esp),%edx
  100281:	8b 44 24 0c          	mov    0xc(%esp),%eax
  100285:	01 c2                	add    %eax,%edx
  100287:	8b 44 24 1c          	mov    0x1c(%esp),%eax
  10028b:	89 50 30             	mov    %edx,0x30(%eax)
  10028e:	8b 44 24 18          	mov    0x18(%esp),%eax
  100292:	8b 40 2c             	mov    0x2c(%eax),%eax
  100295:	8b 54 24 18          	mov    0x18(%esp),%edx
  100299:	8b 52 30             	mov    0x30(%edx),%edx
  10029c:	89 d1                	mov    %edx,%ecx
  10029e:	8b 5c 24 1c          	mov    0x1c(%esp),%ebx
  1002a2:	8b 54 24 0c          	mov    0xc(%esp),%edx
  1002a6:	01 da                	add    %ebx,%edx
  1002a8:	50                   	push   %eax
  1002a9:	51                   	push   %ecx
  1002aa:	52                   	push   %edx
  1002ab:	e8 53 ff ff ff       	call   100203 <__save_subset>
  1002b0:	83 c4 0c             	add    $0xc,%esp
  1002b3:	01 44 24 0c          	add    %eax,0xc(%esp)
  1002b7:	8b 44 24 18          	mov    0x18(%esp),%eax
  1002bb:	8b 00                	mov    (%eax),%eax
  1002bd:	25 80 00 00 00       	and    $0x80,%eax
  1002c2:	85 c0                	test   %eax,%eax
  1002c4:	74 3a                	je     100300 <_save_multiboot_info+0xc0>
  1002c6:	8b 54 24 1c          	mov    0x1c(%esp),%edx
  1002ca:	8b 44 24 0c          	mov    0xc(%esp),%eax
  1002ce:	01 c2                	add    %eax,%edx
  1002d0:	8b 44 24 1c          	mov    0x1c(%esp),%eax
  1002d4:	89 50 38             	mov    %edx,0x38(%eax)
  1002d7:	8b 44 24 18          	mov    0x18(%esp),%eax
  1002db:	8b 40 34             	mov    0x34(%eax),%eax
  1002de:	8b 54 24 18          	mov    0x18(%esp),%edx
  1002e2:	8b 52 38             	mov    0x38(%edx),%edx
  1002e5:	89 d1                	mov    %edx,%ecx
  1002e7:	8b 5c 24 1c          	mov    0x1c(%esp),%ebx
  1002eb:	8b 54 24 0c          	mov    0xc(%esp),%edx
  1002ef:	01 da                	add    %ebx,%edx
  1002f1:	50                   	push   %eax
  1002f2:	51                   	push   %ecx
  1002f3:	52                   	push   %edx
  1002f4:	e8 0a ff ff ff       	call   100203 <__save_subset>
  1002f9:	83 c4 0c             	add    $0xc,%esp
  1002fc:	01 44 24 0c          	add    %eax,0xc(%esp)
  100300:	90                   	nop
  100301:	83 c4 10             	add    $0x10,%esp
  100304:	5b                   	pop    %ebx
  100305:	c3                   	ret    

00100306 <_hhk_init>:
  100306:	83 ec 10             	sub    $0x10,%esp
  100309:	8b 44 24 14          	mov    0x14(%esp),%eax
  10030d:	89 44 24 08          	mov    %eax,0x8(%esp)
  100311:	c7 44 24 0c 00 00 00 	movl   $0x0,0xc(%esp)
  100318:	00 
  100319:	eb 12                	jmp    10032d <_hhk_init+0x27>
  10031b:	8b 54 24 08          	mov    0x8(%esp),%edx
  10031f:	8b 44 24 0c          	mov    0xc(%esp),%eax
  100323:	01 d0                	add    %edx,%eax
  100325:	c6 00 00             	movb   $0x0,(%eax)
  100328:	83 44 24 0c 01       	addl   $0x1,0xc(%esp)
  10032d:	8b 44 24 0c          	mov    0xc(%esp),%eax
  100331:	3b 44 24 18          	cmp    0x18(%esp),%eax
  100335:	72 e4                	jb     10031b <_hhk_init+0x15>
  100337:	ff 74 24 14          	push   0x14(%esp)
  10033b:	e8 17 fd ff ff       	call   100057 <_init_page>
  100340:	83 c4 04             	add    $0x4,%esp
  100343:	90                   	nop
  100344:	83 c4 10             	add    $0x10,%esp
  100347:	c3                   	ret    

Disassembly of section .hhk_init_bss:

00101000 <mb_info>:
	...

00102000 <stack_bottom>:
	...

Disassembly of section .text:

c0106000 <get_pd>:
c0106000:	83 ec 10             	sub    $0x10,%esp
c0106003:	8b 44 24 0c          	mov    0xc(%esp),%eax
c0106007:	2d 00 00 00 40       	sub    $0x40000000,%eax
c010600c:	83 c4 10             	add    $0x10,%esp
c010600f:	c3                   	ret    

c0106010 <set_pd>:
c0106010:	90                   	nop
c0106011:	c3                   	ret    

c0106012 <vmm_init>:
c0106012:	90                   	nop
c0106013:	c3                   	ret    

c0106014 <vmm_init_pd>:
c0106014:	83 ec 1c             	sub    $0x1c,%esp
c0106017:	e8 f4 06 00 00       	call   c0106710 <pmm_alloc_page>
c010601c:	89 44 24 08          	mov    %eax,0x8(%esp)
c0106020:	c7 44 24 0c 00 00 00 	movl   $0x0,0xc(%esp)
c0106027:	00 
c0106028:	eb 1c                	jmp    c0106046 <vmm_init_pd+0x32>
c010602a:	8b 44 24 0c          	mov    0xc(%esp),%eax
c010602e:	8d 14 85 00 00 00 00 	lea    0x0(,%eax,4),%edx
c0106035:	8b 44 24 08          	mov    0x8(%esp),%eax
c0106039:	01 d0                	add    %edx,%eax
c010603b:	c7 00 00 00 00 00    	movl   $0x0,(%eax)
c0106041:	83 44 24 0c 01       	addl   $0x1,0xc(%esp)
c0106046:	81 7c 24 0c ff 03 00 	cmpl   $0x3ff,0xc(%esp)
c010604d:	00 
c010604e:	76 da                	jbe    c010602a <vmm_init_pd+0x16>
c0106050:	8b 44 24 08          	mov    0x8(%esp),%eax
c0106054:	25 00 f0 ff ff       	and    $0xfffff000,%eax
c0106059:	89 c2                	mov    %eax,%edx
c010605b:	8b 44 24 08          	mov    0x8(%esp),%eax
c010605f:	05 fc 0f 00 00       	add    $0xffc,%eax
c0106064:	83 ca 13             	or     $0x13,%edx
c0106067:	89 10                	mov    %edx,(%eax)
c0106069:	8b 44 24 08          	mov    0x8(%esp),%eax
c010606d:	83 c4 1c             	add    $0x1c,%esp
c0106070:	c3                   	ret    

c0106071 <vmm_map_page>:
c0106071:	53                   	push   %ebx
c0106072:	83 ec 28             	sub    $0x28,%esp
c0106075:	83 7c 24 34 00       	cmpl   $0x0,0x34(%esp)
c010607a:	74 07                	je     c0106083 <vmm_map_page+0x12>
c010607c:	83 7c 24 30 00       	cmpl   $0x0,0x30(%esp)
c0106081:	75 0a                	jne    c010608d <vmm_map_page+0x1c>
c0106083:	b8 00 00 00 00       	mov    $0x0,%eax
c0106088:	e9 d2 01 00 00       	jmp    c010625f <vmm_map_page+0x1ee>
c010608d:	8b 44 24 30          	mov    0x30(%esp),%eax
c0106091:	c1 e8 16             	shr    $0x16,%eax
c0106094:	89 44 24 1c          	mov    %eax,0x1c(%esp)
c0106098:	8b 44 24 30          	mov    0x30(%esp),%eax
c010609c:	c1 e8 0c             	shr    $0xc,%eax
c010609f:	25 ff 03 00 00       	and    $0x3ff,%eax
c01060a4:	89 44 24 18          	mov    %eax,0x18(%esp)
c01060a8:	c7 44 24 0c 00 f0 ff 	movl   $0xfffff000,0xc(%esp)
c01060af:	ff 
c01060b0:	8b 44 24 1c          	mov    0x1c(%esp),%eax
c01060b4:	8d 14 85 00 00 00 00 	lea    0x0(,%eax,4),%edx
c01060bb:	8b 44 24 0c          	mov    0xc(%esp),%eax
c01060bf:	01 d0                	add    %edx,%eax
c01060c1:	8b 00                	mov    (%eax),%eax
c01060c3:	89 44 24 14          	mov    %eax,0x14(%esp)
c01060c7:	8b 44 24 1c          	mov    0x1c(%esp),%eax
c01060cb:	c1 e0 0c             	shl    $0xc,%eax
c01060ce:	0d 00 00 c0 ff       	or     $0xffc00000,%eax
c01060d3:	89 44 24 10          	mov    %eax,0x10(%esp)
c01060d7:	e9 ae 00 00 00       	jmp    c010618a <vmm_map_page+0x119>
c01060dc:	81 7c 24 18 00 04 00 	cmpl   $0x400,0x18(%esp)
c01060e3:	00 
c01060e4:	75 34                	jne    c010611a <vmm_map_page+0xa9>
c01060e6:	83 44 24 1c 01       	addl   $0x1,0x1c(%esp)
c01060eb:	c7 44 24 18 00 00 00 	movl   $0x0,0x18(%esp)
c01060f2:	00 
c01060f3:	8b 44 24 1c          	mov    0x1c(%esp),%eax
c01060f7:	8d 14 85 00 00 00 00 	lea    0x0(,%eax,4),%edx
c01060fe:	8b 44 24 0c          	mov    0xc(%esp),%eax
c0106102:	01 d0                	add    %edx,%eax
c0106104:	8b 00                	mov    (%eax),%eax
c0106106:	89 44 24 14          	mov    %eax,0x14(%esp)
c010610a:	8b 44 24 1c          	mov    0x1c(%esp),%eax
c010610e:	c1 e0 0c             	shl    $0xc,%eax
c0106111:	0d 00 00 c0 ff       	or     $0xffc00000,%eax
c0106116:	89 44 24 10          	mov    %eax,0x10(%esp)
c010611a:	83 7c 24 10 00       	cmpl   $0x0,0x10(%esp)
c010611f:	74 64                	je     c0106185 <vmm_map_page+0x114>
c0106121:	8b 44 24 18          	mov    0x18(%esp),%eax
c0106125:	8d 14 85 00 00 00 00 	lea    0x0(,%eax,4),%edx
c010612c:	8b 44 24 10          	mov    0x10(%esp),%eax
c0106130:	01 d0                	add    %edx,%eax
c0106132:	8b 00                	mov    (%eax),%eax
c0106134:	85 c0                	test   %eax,%eax
c0106136:	75 4d                	jne    c0106185 <vmm_map_page+0x114>
c0106138:	8b 44 24 34          	mov    0x34(%esp),%eax
c010613c:	25 00 f0 ff ff       	and    $0xfffff000,%eax
c0106141:	89 c1                	mov    %eax,%ecx
c0106143:	8b 44 24 3c          	mov    0x3c(%esp),%eax
c0106147:	25 ff 0f 00 00       	and    $0xfff,%eax
c010614c:	89 c2                	mov    %eax,%edx
c010614e:	8b 44 24 18          	mov    0x18(%esp),%eax
c0106152:	8d 1c 85 00 00 00 00 	lea    0x0(,%eax,4),%ebx
c0106159:	8b 44 24 10          	mov    0x10(%esp),%eax
c010615d:	01 d8                	add    %ebx,%eax
c010615f:	09 ca                	or     %ecx,%edx
c0106161:	89 10                	mov    %edx,(%eax)
c0106163:	8b 44 24 1c          	mov    0x1c(%esp),%eax
c0106167:	c1 e0 16             	shl    $0x16,%eax
c010616a:	89 c2                	mov    %eax,%edx
c010616c:	8b 44 24 18          	mov    0x18(%esp),%eax
c0106170:	c1 e0 0c             	shl    $0xc,%eax
c0106173:	09 c2                	or     %eax,%edx
c0106175:	8b 44 24 30          	mov    0x30(%esp),%eax
c0106179:	25 ff 0f 00 00       	and    $0xfff,%eax
c010617e:	09 d0                	or     %edx,%eax
c0106180:	e9 da 00 00 00       	jmp    c010625f <vmm_map_page+0x1ee>
c0106185:	83 44 24 18 01       	addl   $0x1,0x18(%esp)
c010618a:	83 7c 24 14 00       	cmpl   $0x0,0x14(%esp)
c010618f:	74 0e                	je     c010619f <vmm_map_page+0x12e>
c0106191:	81 7c 24 1c ff 03 00 	cmpl   $0x3ff,0x1c(%esp)
c0106198:	00 
c0106199:	0f 86 3d ff ff ff    	jbe    c01060dc <vmm_map_page+0x6b>
c010619f:	81 7c 24 1c 00 04 00 	cmpl   $0x400,0x1c(%esp)
c01061a6:	00 
c01061a7:	76 0a                	jbe    c01061b3 <vmm_map_page+0x142>
c01061a9:	b8 00 00 00 00       	mov    $0x0,%eax
c01061ae:	e9 ac 00 00 00       	jmp    c010625f <vmm_map_page+0x1ee>
c01061b3:	e8 58 05 00 00       	call   c0106710 <pmm_alloc_page>
c01061b8:	89 44 24 08          	mov    %eax,0x8(%esp)
c01061bc:	83 7c 24 08 00       	cmpl   $0x0,0x8(%esp)
c01061c1:	75 0a                	jne    c01061cd <vmm_map_page+0x15c>
c01061c3:	b8 00 00 00 00       	mov    $0x0,%eax
c01061c8:	e9 92 00 00 00       	jmp    c010625f <vmm_map_page+0x1ee>
c01061cd:	8b 44 24 08          	mov    0x8(%esp),%eax
c01061d1:	25 00 f0 ff ff       	and    $0xfffff000,%eax
c01061d6:	89 c1                	mov    %eax,%ecx
c01061d8:	8b 44 24 38          	mov    0x38(%esp),%eax
c01061dc:	25 ff 0f 00 00       	and    $0xfff,%eax
c01061e1:	89 c2                	mov    %eax,%edx
c01061e3:	8b 44 24 1c          	mov    0x1c(%esp),%eax
c01061e7:	8d 1c 85 00 00 00 00 	lea    0x0(,%eax,4),%ebx
c01061ee:	8b 44 24 0c          	mov    0xc(%esp),%eax
c01061f2:	01 d8                	add    %ebx,%eax
c01061f4:	09 ca                	or     %ecx,%edx
c01061f6:	89 10                	mov    %edx,(%eax)
c01061f8:	8b 44 24 1c          	mov    0x1c(%esp),%eax
c01061fc:	c1 e0 0c             	shl    $0xc,%eax
c01061ff:	0d 00 00 c0 ff       	or     $0xffc00000,%eax
c0106204:	83 ec 04             	sub    $0x4,%esp
c0106207:	68 00 10 00 00       	push   $0x1000
c010620c:	6a 00                	push   $0x0
c010620e:	50                   	push   %eax
c010620f:	e8 e4 11 00 00       	call   c01073f8 <memset>
c0106214:	83 c4 10             	add    $0x10,%esp
c0106217:	8b 44 24 34          	mov    0x34(%esp),%eax
c010621b:	25 00 f0 ff ff       	and    $0xfffff000,%eax
c0106220:	89 c1                	mov    %eax,%ecx
c0106222:	8b 44 24 3c          	mov    0x3c(%esp),%eax
c0106226:	25 ff 0f 00 00       	and    $0xfff,%eax
c010622b:	89 c2                	mov    %eax,%edx
c010622d:	8b 44 24 18          	mov    0x18(%esp),%eax
c0106231:	8d 1c 85 00 00 00 00 	lea    0x0(,%eax,4),%ebx
c0106238:	8b 44 24 10          	mov    0x10(%esp),%eax
c010623c:	01 d8                	add    %ebx,%eax
c010623e:	09 ca                	or     %ecx,%edx
c0106240:	89 10                	mov    %edx,(%eax)
c0106242:	8b 44 24 1c          	mov    0x1c(%esp),%eax
c0106246:	c1 e0 16             	shl    $0x16,%eax
c0106249:	89 c2                	mov    %eax,%edx
c010624b:	8b 44 24 18          	mov    0x18(%esp),%eax
c010624f:	c1 e0 0c             	shl    $0xc,%eax
c0106252:	09 c2                	or     %eax,%edx
c0106254:	8b 44 24 30          	mov    0x30(%esp),%eax
c0106258:	25 ff 0f 00 00       	and    $0xfff,%eax
c010625d:	09 d0                	or     %edx,%eax
c010625f:	83 c4 28             	add    $0x28,%esp
c0106262:	5b                   	pop    %ebx
c0106263:	c3                   	ret    

c0106264 <vmm_alloc_page>:
c0106264:	83 ec 1c             	sub    $0x1c,%esp
c0106267:	e8 a4 04 00 00       	call   c0106710 <pmm_alloc_page>
c010626c:	89 44 24 0c          	mov    %eax,0xc(%esp)
c0106270:	ff 74 24 28          	push   0x28(%esp)
c0106274:	ff 74 24 28          	push   0x28(%esp)
c0106278:	ff 74 24 14          	push   0x14(%esp)
c010627c:	ff 74 24 2c          	push   0x2c(%esp)
c0106280:	e8 ec fd ff ff       	call   c0106071 <vmm_map_page>
c0106285:	83 c4 10             	add    $0x10,%esp
c0106288:	89 44 24 08          	mov    %eax,0x8(%esp)
c010628c:	83 7c 24 08 00       	cmpl   $0x0,0x8(%esp)
c0106291:	75 0f                	jne    c01062a2 <vmm_alloc_page+0x3e>
c0106293:	83 ec 0c             	sub    $0xc,%esp
c0106296:	ff 74 24 18          	push   0x18(%esp)
c010629a:	e8 6a 05 00 00       	call   c0106809 <pmm_free_page>
c010629f:	83 c4 10             	add    $0x10,%esp
c01062a2:	8b 44 24 08          	mov    0x8(%esp),%eax
c01062a6:	83 c4 1c             	add    $0x1c,%esp
c01062a9:	c3                   	ret    

c01062aa <vmm_unmap_page>:
c01062aa:	83 ec 2c             	sub    $0x2c,%esp
c01062ad:	8b 44 24 30          	mov    0x30(%esp),%eax
c01062b1:	c1 e8 16             	shr    $0x16,%eax
c01062b4:	89 44 24 1c          	mov    %eax,0x1c(%esp)
c01062b8:	8b 44 24 30          	mov    0x30(%esp),%eax
c01062bc:	c1 e8 0c             	shr    $0xc,%eax
c01062bf:	25 ff 03 00 00       	and    $0x3ff,%eax
c01062c4:	89 44 24 18          	mov    %eax,0x18(%esp)
c01062c8:	c7 44 24 14 00 f0 ff 	movl   $0xfffff000,0x14(%esp)
c01062cf:	ff 
c01062d0:	8b 44 24 1c          	mov    0x1c(%esp),%eax
c01062d4:	8d 14 85 00 00 00 00 	lea    0x0(,%eax,4),%edx
c01062db:	8b 44 24 14          	mov    0x14(%esp),%eax
c01062df:	01 d0                	add    %edx,%eax
c01062e1:	8b 00                	mov    (%eax),%eax
c01062e3:	89 44 24 10          	mov    %eax,0x10(%esp)
c01062e7:	83 7c 24 10 00       	cmpl   $0x0,0x10(%esp)
c01062ec:	74 59                	je     c0106347 <vmm_unmap_page+0x9d>
c01062ee:	8b 44 24 1c          	mov    0x1c(%esp),%eax
c01062f2:	c1 e0 0c             	shl    $0xc,%eax
c01062f5:	0d 00 00 c0 ff       	or     $0xffc00000,%eax
c01062fa:	89 44 24 0c          	mov    %eax,0xc(%esp)
c01062fe:	8b 44 24 18          	mov    0x18(%esp),%eax
c0106302:	8d 14 85 00 00 00 00 	lea    0x0(,%eax,4),%edx
c0106309:	8b 44 24 0c          	mov    0xc(%esp),%eax
c010630d:	01 d0                	add    %edx,%eax
c010630f:	8b 00                	mov    (%eax),%eax
c0106311:	89 44 24 08          	mov    %eax,0x8(%esp)
c0106315:	8b 44 24 08          	mov    0x8(%esp),%eax
c0106319:	83 e0 01             	and    $0x1,%eax
c010631c:	85 c0                	test   %eax,%eax
c010631e:	74 10                	je     c0106330 <vmm_unmap_page+0x86>
c0106320:	8b 44 24 08          	mov    0x8(%esp),%eax
c0106324:	83 ec 0c             	sub    $0xc,%esp
c0106327:	50                   	push   %eax
c0106328:	e8 dc 04 00 00       	call   c0106809 <pmm_free_page>
c010632d:	83 c4 10             	add    $0x10,%esp
c0106330:	8b 44 24 18          	mov    0x18(%esp),%eax
c0106334:	8d 14 85 00 00 00 00 	lea    0x0(,%eax,4),%edx
c010633b:	8b 44 24 0c          	mov    0xc(%esp),%eax
c010633f:	01 d0                	add    %edx,%eax
c0106341:	c7 00 00 00 00 00    	movl   $0x0,(%eax)
c0106347:	90                   	nop
c0106348:	83 c4 2c             	add    $0x2c,%esp
c010634b:	c3                   	ret    

c010634c <vmm_v2p>:
c010634c:	83 ec 20             	sub    $0x20,%esp
c010634f:	8b 44 24 24          	mov    0x24(%esp),%eax
c0106353:	c1 e8 16             	shr    $0x16,%eax
c0106356:	89 44 24 1c          	mov    %eax,0x1c(%esp)
c010635a:	8b 44 24 24          	mov    0x24(%esp),%eax
c010635e:	c1 e8 0c             	shr    $0xc,%eax
c0106361:	25 ff 03 00 00       	and    $0x3ff,%eax
c0106366:	89 44 24 18          	mov    %eax,0x18(%esp)
c010636a:	8b 44 24 24          	mov    0x24(%esp),%eax
c010636e:	25 ff 0f 00 00       	and    $0xfff,%eax
c0106373:	89 44 24 14          	mov    %eax,0x14(%esp)
c0106377:	c7 44 24 10 00 f0 ff 	movl   $0xfffff000,0x10(%esp)
c010637e:	ff 
c010637f:	8b 44 24 1c          	mov    0x1c(%esp),%eax
c0106383:	8d 14 85 00 00 00 00 	lea    0x0(,%eax,4),%edx
c010638a:	8b 44 24 10          	mov    0x10(%esp),%eax
c010638e:	01 d0                	add    %edx,%eax
c0106390:	8b 00                	mov    (%eax),%eax
c0106392:	89 44 24 0c          	mov    %eax,0xc(%esp)
c0106396:	83 7c 24 0c 00       	cmpl   $0x0,0xc(%esp)
c010639b:	74 3e                	je     c01063db <vmm_v2p+0x8f>
c010639d:	8b 44 24 18          	mov    0x18(%esp),%eax
c01063a1:	8d 14 85 00 00 00 00 	lea    0x0(,%eax,4),%edx
c01063a8:	8b 44 24 1c          	mov    0x1c(%esp),%eax
c01063ac:	c1 e0 0c             	shl    $0xc,%eax
c01063af:	0d 00 00 c0 ff       	or     $0xffc00000,%eax
c01063b4:	01 d0                	add    %edx,%eax
c01063b6:	8b 00                	mov    (%eax),%eax
c01063b8:	89 44 24 08          	mov    %eax,0x8(%esp)
c01063bc:	83 7c 24 08 00       	cmpl   $0x0,0x8(%esp)
c01063c1:	74 18                	je     c01063db <vmm_v2p+0x8f>
c01063c3:	8b 44 24 08          	mov    0x8(%esp),%eax
c01063c7:	c1 e8 0c             	shr    $0xc,%eax
c01063ca:	89 44 24 04          	mov    %eax,0x4(%esp)
c01063ce:	8b 44 24 04          	mov    0x4(%esp),%eax
c01063d2:	c1 e0 0c             	shl    $0xc,%eax
c01063d5:	0b 44 24 14          	or     0x14(%esp),%eax
c01063d9:	eb 05                	jmp    c01063e0 <vmm_v2p+0x94>
c01063db:	b8 00 00 00 00       	mov    $0x0,%eax
c01063e0:	83 c4 20             	add    $0x20,%esp
c01063e3:	c3                   	ret    

c01063e4 <pmm_mark_page_free>:
c01063e4:	83 ec 10             	sub    $0x10,%esp
c01063e7:	8b 44 24 14          	mov    0x14(%esp),%eax
c01063eb:	c1 e8 03             	shr    $0x3,%eax
c01063ee:	89 44 24 0c          	mov    %eax,0xc(%esp)
c01063f2:	8b 44 24 14          	mov    0x14(%esp),%eax
c01063f6:	83 e0 07             	and    $0x7,%eax
c01063f9:	ba 80 00 00 00       	mov    $0x80,%edx
c01063fe:	89 c1                	mov    %eax,%ecx
c0106400:	d3 ea                	shr    %cl,%edx
c0106402:	89 d0                	mov    %edx,%eax
c0106404:	89 44 24 08          	mov    %eax,0x8(%esp)
c0106408:	8b 44 24 0c          	mov    0xc(%esp),%eax
c010640c:	05 00 80 10 c0       	add    $0xc0108000,%eax
c0106411:	0f b6 00             	movzbl (%eax),%eax
c0106414:	8b 54 24 08          	mov    0x8(%esp),%edx
c0106418:	f7 d2                	not    %edx
c010641a:	21 c2                	and    %eax,%edx
c010641c:	8b 44 24 0c          	mov    0xc(%esp),%eax
c0106420:	05 00 80 10 c0       	add    $0xc0108000,%eax
c0106425:	88 10                	mov    %dl,(%eax)
c0106427:	90                   	nop
c0106428:	83 c4 10             	add    $0x10,%esp
c010642b:	c3                   	ret    

c010642c <pmm_mark_page_occupied>:
c010642c:	83 ec 10             	sub    $0x10,%esp
c010642f:	8b 44 24 14          	mov    0x14(%esp),%eax
c0106433:	c1 e8 03             	shr    $0x3,%eax
c0106436:	89 44 24 0c          	mov    %eax,0xc(%esp)
c010643a:	8b 44 24 14          	mov    0x14(%esp),%eax
c010643e:	83 e0 07             	and    $0x7,%eax
c0106441:	ba 80 00 00 00       	mov    $0x80,%edx
c0106446:	89 c1                	mov    %eax,%ecx
c0106448:	d3 ea                	shr    %cl,%edx
c010644a:	89 d0                	mov    %edx,%eax
c010644c:	89 44 24 08          	mov    %eax,0x8(%esp)
c0106450:	8b 44 24 0c          	mov    0xc(%esp),%eax
c0106454:	05 00 80 10 c0       	add    $0xc0108000,%eax
c0106459:	0f b6 00             	movzbl (%eax),%eax
c010645c:	8b 54 24 08          	mov    0x8(%esp),%edx
c0106460:	09 c2                	or     %eax,%edx
c0106462:	8b 44 24 0c          	mov    0xc(%esp),%eax
c0106466:	05 00 80 10 c0       	add    $0xc0108000,%eax
c010646b:	88 10                	mov    %dl,(%eax)
c010646d:	90                   	nop
c010646e:	83 c4 10             	add    $0x10,%esp
c0106471:	c3                   	ret    

c0106472 <pmm_mark_chunk_free>:
c0106472:	53                   	push   %ebx
c0106473:	83 ec 20             	sub    $0x20,%esp
c0106476:	8b 44 24 28          	mov    0x28(%esp),%eax
c010647a:	c1 e8 03             	shr    $0x3,%eax
c010647d:	89 44 24 1c          	mov    %eax,0x1c(%esp)
c0106481:	8b 44 24 28          	mov    0x28(%esp),%eax
c0106485:	83 e0 07             	and    $0x7,%eax
c0106488:	89 44 24 14          	mov    %eax,0x14(%esp)
c010648c:	8b 54 24 2c          	mov    0x2c(%esp),%edx
c0106490:	8b 44 24 14          	mov    0x14(%esp),%eax
c0106494:	01 d0                	add    %edx,%eax
c0106496:	c1 e8 03             	shr    $0x3,%eax
c0106499:	89 44 24 10          	mov    %eax,0x10(%esp)
c010649d:	8b 54 24 2c          	mov    0x2c(%esp),%edx
c01064a1:	8b 44 24 14          	mov    0x14(%esp),%eax
c01064a5:	01 d0                	add    %edx,%eax
c01064a7:	83 e0 07             	and    $0x7,%eax
c01064aa:	89 44 24 0c          	mov    %eax,0xc(%esp)
c01064ae:	8b 54 24 2c          	mov    0x2c(%esp),%edx
c01064b2:	8b 44 24 14          	mov    0x14(%esp),%eax
c01064b6:	01 d0                	add    %edx,%eax
c01064b8:	83 f8 07             	cmp    $0x7,%eax
c01064bb:	76 0b                	jbe    c01064c8 <pmm_mark_chunk_free+0x56>
c01064bd:	b8 08 00 00 00       	mov    $0x8,%eax
c01064c2:	2b 44 24 14          	sub    0x14(%esp),%eax
c01064c6:	eb 04                	jmp    c01064cc <pmm_mark_chunk_free+0x5a>
c01064c8:	8b 44 24 2c          	mov    0x2c(%esp),%eax
c01064cc:	89 44 24 08          	mov    %eax,0x8(%esp)
c01064d0:	8b 44 24 1c          	mov    0x1c(%esp),%eax
c01064d4:	05 00 80 10 c0       	add    $0xc0108000,%eax
c01064d9:	0f b6 18             	movzbl (%eax),%ebx
c01064dc:	8b 44 24 08          	mov    0x8(%esp),%eax
c01064e0:	ba 01 00 00 00       	mov    $0x1,%edx
c01064e5:	89 c1                	mov    %eax,%ecx
c01064e7:	d3 e2                	shl    %cl,%edx
c01064e9:	89 d0                	mov    %edx,%eax
c01064eb:	8d 50 ff             	lea    -0x1(%eax),%edx
c01064ee:	8b 4c 24 14          	mov    0x14(%esp),%ecx
c01064f2:	8b 44 24 08          	mov    0x8(%esp),%eax
c01064f6:	01 c1                	add    %eax,%ecx
c01064f8:	b8 08 00 00 00       	mov    $0x8,%eax
c01064fd:	29 c8                	sub    %ecx,%eax
c01064ff:	89 c1                	mov    %eax,%ecx
c0106501:	d3 e2                	shl    %cl,%edx
c0106503:	89 d0                	mov    %edx,%eax
c0106505:	f7 d0                	not    %eax
c0106507:	21 c3                	and    %eax,%ebx
c0106509:	89 da                	mov    %ebx,%edx
c010650b:	8b 44 24 1c          	mov    0x1c(%esp),%eax
c010650f:	05 00 80 10 c0       	add    $0xc0108000,%eax
c0106514:	88 10                	mov    %dl,(%eax)
c0106516:	83 44 24 1c 01       	addl   $0x1,0x1c(%esp)
c010651b:	c7 44 24 18 00 00 00 	movl   $0x0,0x18(%esp)
c0106522:	00 
c0106523:	eb 16                	jmp    c010653b <pmm_mark_chunk_free+0xc9>
c0106525:	8b 44 24 1c          	mov    0x1c(%esp),%eax
c0106529:	05 00 80 10 c0       	add    $0xc0108000,%eax
c010652e:	c6 00 00             	movb   $0x0,(%eax)
c0106531:	83 44 24 18 01       	addl   $0x1,0x18(%esp)
c0106536:	83 44 24 1c 01       	addl   $0x1,0x1c(%esp)
c010653b:	83 7c 24 10 00       	cmpl   $0x0,0x10(%esp)
c0106540:	74 0d                	je     c010654f <pmm_mark_chunk_free+0xdd>
c0106542:	8b 44 24 10          	mov    0x10(%esp),%eax
c0106546:	83 e8 01             	sub    $0x1,%eax
c0106549:	39 44 24 18          	cmp    %eax,0x18(%esp)
c010654d:	72 d6                	jb     c0106525 <pmm_mark_chunk_free+0xb3>
c010654f:	8b 44 24 1c          	mov    0x1c(%esp),%eax
c0106553:	05 00 80 10 c0       	add    $0xc0108000,%eax
c0106558:	0f b6 18             	movzbl (%eax),%ebx
c010655b:	83 7c 24 2c 08       	cmpl   $0x8,0x2c(%esp)
c0106560:	76 14                	jbe    c0106576 <pmm_mark_chunk_free+0x104>
c0106562:	8b 44 24 0c          	mov    0xc(%esp),%eax
c0106566:	ba 01 00 00 00       	mov    $0x1,%edx
c010656b:	89 c1                	mov    %eax,%ecx
c010656d:	d3 e2                	shl    %cl,%edx
c010656f:	89 d0                	mov    %edx,%eax
c0106571:	8d 50 ff             	lea    -0x1(%eax),%edx
c0106574:	eb 05                	jmp    c010657b <pmm_mark_chunk_free+0x109>
c0106576:	ba 00 00 00 00       	mov    $0x0,%edx
c010657b:	b8 08 00 00 00       	mov    $0x8,%eax
c0106580:	2b 44 24 0c          	sub    0xc(%esp),%eax
c0106584:	89 c1                	mov    %eax,%ecx
c0106586:	d3 e2                	shl    %cl,%edx
c0106588:	89 d0                	mov    %edx,%eax
c010658a:	f7 d0                	not    %eax
c010658c:	21 c3                	and    %eax,%ebx
c010658e:	89 da                	mov    %ebx,%edx
c0106590:	8b 44 24 1c          	mov    0x1c(%esp),%eax
c0106594:	05 00 80 10 c0       	add    $0xc0108000,%eax
c0106599:	88 10                	mov    %dl,(%eax)
c010659b:	90                   	nop
c010659c:	83 c4 20             	add    $0x20,%esp
c010659f:	5b                   	pop    %ebx
c01065a0:	c3                   	ret    

c01065a1 <pmm_mark_chunk_occupied>:
c01065a1:	53                   	push   %ebx
c01065a2:	83 ec 20             	sub    $0x20,%esp
c01065a5:	8b 44 24 28          	mov    0x28(%esp),%eax
c01065a9:	c1 e8 03             	shr    $0x3,%eax
c01065ac:	89 44 24 1c          	mov    %eax,0x1c(%esp)
c01065b0:	8b 44 24 28          	mov    0x28(%esp),%eax
c01065b4:	83 e0 07             	and    $0x7,%eax
c01065b7:	89 44 24 14          	mov    %eax,0x14(%esp)
c01065bb:	8b 54 24 2c          	mov    0x2c(%esp),%edx
c01065bf:	8b 44 24 14          	mov    0x14(%esp),%eax
c01065c3:	01 d0                	add    %edx,%eax
c01065c5:	c1 e8 03             	shr    $0x3,%eax
c01065c8:	89 44 24 10          	mov    %eax,0x10(%esp)
c01065cc:	8b 54 24 2c          	mov    0x2c(%esp),%edx
c01065d0:	8b 44 24 14          	mov    0x14(%esp),%eax
c01065d4:	01 d0                	add    %edx,%eax
c01065d6:	83 e0 07             	and    $0x7,%eax
c01065d9:	89 44 24 0c          	mov    %eax,0xc(%esp)
c01065dd:	8b 54 24 2c          	mov    0x2c(%esp),%edx
c01065e1:	8b 44 24 14          	mov    0x14(%esp),%eax
c01065e5:	01 d0                	add    %edx,%eax
c01065e7:	83 f8 07             	cmp    $0x7,%eax
c01065ea:	76 0b                	jbe    c01065f7 <pmm_mark_chunk_occupied+0x56>
c01065ec:	b8 08 00 00 00       	mov    $0x8,%eax
c01065f1:	2b 44 24 14          	sub    0x14(%esp),%eax
c01065f5:	eb 04                	jmp    c01065fb <pmm_mark_chunk_occupied+0x5a>
c01065f7:	8b 44 24 2c          	mov    0x2c(%esp),%eax
c01065fb:	89 44 24 08          	mov    %eax,0x8(%esp)
c01065ff:	8b 44 24 1c          	mov    0x1c(%esp),%eax
c0106603:	05 00 80 10 c0       	add    $0xc0108000,%eax
c0106608:	0f b6 18             	movzbl (%eax),%ebx
c010660b:	8b 44 24 08          	mov    0x8(%esp),%eax
c010660f:	ba 01 00 00 00       	mov    $0x1,%edx
c0106614:	89 c1                	mov    %eax,%ecx
c0106616:	d3 e2                	shl    %cl,%edx
c0106618:	89 d0                	mov    %edx,%eax
c010661a:	8d 50 ff             	lea    -0x1(%eax),%edx
c010661d:	8b 4c 24 14          	mov    0x14(%esp),%ecx
c0106621:	8b 44 24 08          	mov    0x8(%esp),%eax
c0106625:	01 c1                	add    %eax,%ecx
c0106627:	b8 08 00 00 00       	mov    $0x8,%eax
c010662c:	29 c8                	sub    %ecx,%eax
c010662e:	89 c1                	mov    %eax,%ecx
c0106630:	d3 e2                	shl    %cl,%edx
c0106632:	89 d0                	mov    %edx,%eax
c0106634:	09 c3                	or     %eax,%ebx
c0106636:	89 da                	mov    %ebx,%edx
c0106638:	8b 44 24 1c          	mov    0x1c(%esp),%eax
c010663c:	05 00 80 10 c0       	add    $0xc0108000,%eax
c0106641:	88 10                	mov    %dl,(%eax)
c0106643:	83 44 24 1c 01       	addl   $0x1,0x1c(%esp)
c0106648:	c7 44 24 18 00 00 00 	movl   $0x0,0x18(%esp)
c010664f:	00 
c0106650:	eb 16                	jmp    c0106668 <pmm_mark_chunk_occupied+0xc7>
c0106652:	8b 44 24 1c          	mov    0x1c(%esp),%eax
c0106656:	05 00 80 10 c0       	add    $0xc0108000,%eax
c010665b:	c6 00 ff             	movb   $0xff,(%eax)
c010665e:	83 44 24 18 01       	addl   $0x1,0x18(%esp)
c0106663:	83 44 24 1c 01       	addl   $0x1,0x1c(%esp)
c0106668:	83 7c 24 10 00       	cmpl   $0x0,0x10(%esp)
c010666d:	74 0d                	je     c010667c <pmm_mark_chunk_occupied+0xdb>
c010666f:	8b 44 24 10          	mov    0x10(%esp),%eax
c0106673:	83 e8 01             	sub    $0x1,%eax
c0106676:	39 44 24 18          	cmp    %eax,0x18(%esp)
c010667a:	72 d6                	jb     c0106652 <pmm_mark_chunk_occupied+0xb1>
c010667c:	8b 44 24 1c          	mov    0x1c(%esp),%eax
c0106680:	05 00 80 10 c0       	add    $0xc0108000,%eax
c0106685:	0f b6 18             	movzbl (%eax),%ebx
c0106688:	83 7c 24 2c 08       	cmpl   $0x8,0x2c(%esp)
c010668d:	76 14                	jbe    c01066a3 <pmm_mark_chunk_occupied+0x102>
c010668f:	8b 44 24 0c          	mov    0xc(%esp),%eax
c0106693:	ba 01 00 00 00       	mov    $0x1,%edx
c0106698:	89 c1                	mov    %eax,%ecx
c010669a:	d3 e2                	shl    %cl,%edx
c010669c:	89 d0                	mov    %edx,%eax
c010669e:	8d 50 ff             	lea    -0x1(%eax),%edx
c01066a1:	eb 05                	jmp    c01066a8 <pmm_mark_chunk_occupied+0x107>
c01066a3:	ba 00 00 00 00       	mov    $0x0,%edx
c01066a8:	b8 08 00 00 00       	mov    $0x8,%eax
c01066ad:	2b 44 24 0c          	sub    0xc(%esp),%eax
c01066b1:	89 c1                	mov    %eax,%ecx
c01066b3:	d3 e2                	shl    %cl,%edx
c01066b5:	89 d0                	mov    %edx,%eax
c01066b7:	09 c3                	or     %eax,%ebx
c01066b9:	89 da                	mov    %ebx,%edx
c01066bb:	8b 44 24 1c          	mov    0x1c(%esp),%eax
c01066bf:	05 00 80 10 c0       	add    $0xc0108000,%eax
c01066c4:	88 10                	mov    %dl,(%eax)
c01066c6:	90                   	nop
c01066c7:	83 c4 20             	add    $0x20,%esp
c01066ca:	5b                   	pop    %ebx
c01066cb:	c3                   	ret    

c01066cc <pmm_init>:
c01066cc:	83 ec 10             	sub    $0x10,%esp
c01066cf:	8b 44 24 14          	mov    0x14(%esp),%eax
c01066d3:	c1 e8 0c             	shr    $0xc,%eax
c01066d6:	a3 00 80 12 c0       	mov    %eax,0xc0128000
c01066db:	c7 05 04 80 12 c0 01 	movl   $0x1,0xc0128004
c01066e2:	00 00 00 
c01066e5:	c7 44 24 0c 00 00 00 	movl   $0x0,0xc(%esp)
c01066ec:	00 
c01066ed:	eb 11                	jmp    c0106700 <pmm_init+0x34>
c01066ef:	8b 44 24 0c          	mov    0xc(%esp),%eax
c01066f3:	05 00 80 10 c0       	add    $0xc0108000,%eax
c01066f8:	c6 00 ff             	movb   $0xff,(%eax)
c01066fb:	83 44 24 0c 01       	addl   $0x1,0xc(%esp)
c0106700:	81 7c 24 0c ff ff 01 	cmpl   $0x1ffff,0xc(%esp)
c0106707:	00 
c0106708:	76 e5                	jbe    c01066ef <pmm_init+0x23>
c010670a:	90                   	nop
c010670b:	90                   	nop
c010670c:	83 c4 10             	add    $0x10,%esp
c010670f:	c3                   	ret    

c0106710 <pmm_alloc_page>:
c0106710:	53                   	push   %ebx
c0106711:	83 ec 20             	sub    $0x20,%esp
c0106714:	c7 44 24 1c 00 00 00 	movl   $0x0,0x1c(%esp)
c010671b:	00 
c010671c:	a1 04 80 12 c0       	mov    0xc0128004,%eax
c0106721:	89 44 24 18          	mov    %eax,0x18(%esp)
c0106725:	a1 00 80 12 c0       	mov    0xc0128000,%eax
c010672a:	89 44 24 14          	mov    %eax,0x14(%esp)
c010672e:	c6 44 24 0f 00       	movb   $0x0,0xf(%esp)
c0106733:	e9 b2 00 00 00       	jmp    c01067ea <pmm_alloc_page+0xda>
c0106738:	a1 04 80 12 c0       	mov    0xc0128004,%eax
c010673d:	c1 e8 03             	shr    $0x3,%eax
c0106740:	0f b6 80 00 80 10 c0 	movzbl -0x3fef8000(%eax),%eax
c0106747:	88 44 24 0f          	mov    %al,0xf(%esp)
c010674b:	80 7c 24 0f ff       	cmpb   $0xff,0xf(%esp)
c0106750:	74 5f                	je     c01067b1 <pmm_alloc_page+0xa1>
c0106752:	a1 04 80 12 c0       	mov    0xc0128004,%eax
c0106757:	83 e0 07             	and    $0x7,%eax
c010675a:	89 44 24 10          	mov    %eax,0x10(%esp)
c010675e:	eb 48                	jmp    c01067a8 <pmm_alloc_page+0x98>
c0106760:	0f b6 54 24 0f       	movzbl 0xf(%esp),%edx
c0106765:	8b 44 24 10          	mov    0x10(%esp),%eax
c0106769:	bb 80 00 00 00       	mov    $0x80,%ebx
c010676e:	89 c1                	mov    %eax,%ecx
c0106770:	d3 eb                	shr    %cl,%ebx
c0106772:	89 d8                	mov    %ebx,%eax
c0106774:	21 d0                	and    %edx,%eax
c0106776:	85 c0                	test   %eax,%eax
c0106778:	75 1c                	jne    c0106796 <pmm_alloc_page+0x86>
c010677a:	a1 04 80 12 c0       	mov    0xc0128004,%eax
c010677f:	50                   	push   %eax
c0106780:	e8 a7 fc ff ff       	call   c010642c <pmm_mark_page_occupied>
c0106785:	83 c4 04             	add    $0x4,%esp
c0106788:	a1 04 80 12 c0       	mov    0xc0128004,%eax
c010678d:	c1 e0 0c             	shl    $0xc,%eax
c0106790:	89 44 24 1c          	mov    %eax,0x1c(%esp)
c0106794:	eb 54                	jmp    c01067ea <pmm_alloc_page+0xda>
c0106796:	83 44 24 10 01       	addl   $0x1,0x10(%esp)
c010679b:	a1 04 80 12 c0       	mov    0xc0128004,%eax
c01067a0:	83 c0 01             	add    $0x1,%eax
c01067a3:	a3 04 80 12 c0       	mov    %eax,0xc0128004
c01067a8:	83 7c 24 10 07       	cmpl   $0x7,0x10(%esp)
c01067ad:	76 b1                	jbe    c0106760 <pmm_alloc_page+0x50>
c01067af:	eb 39                	jmp    c01067ea <pmm_alloc_page+0xda>
c01067b1:	a1 04 80 12 c0       	mov    0xc0128004,%eax
c01067b6:	83 c0 08             	add    $0x8,%eax
c01067b9:	a3 04 80 12 c0       	mov    %eax,0xc0128004
c01067be:	a1 04 80 12 c0       	mov    0xc0128004,%eax
c01067c3:	39 44 24 14          	cmp    %eax,0x14(%esp)
c01067c7:	77 21                	ja     c01067ea <pmm_alloc_page+0xda>
c01067c9:	83 7c 24 18 01       	cmpl   $0x1,0x18(%esp)
c01067ce:	74 1a                	je     c01067ea <pmm_alloc_page+0xda>
c01067d0:	8b 44 24 18          	mov    0x18(%esp),%eax
c01067d4:	89 44 24 14          	mov    %eax,0x14(%esp)
c01067d8:	c7 05 04 80 12 c0 01 	movl   $0x1,0xc0128004
c01067df:	00 00 00 
c01067e2:	c7 44 24 18 01 00 00 	movl   $0x1,0x18(%esp)
c01067e9:	00 
c01067ea:	83 7c 24 1c 00       	cmpl   $0x0,0x1c(%esp)
c01067ef:	75 0f                	jne    c0106800 <pmm_alloc_page+0xf0>
c01067f1:	a1 04 80 12 c0       	mov    0xc0128004,%eax
c01067f6:	39 44 24 14          	cmp    %eax,0x14(%esp)
c01067fa:	0f 87 38 ff ff ff    	ja     c0106738 <pmm_alloc_page+0x28>
c0106800:	8b 44 24 1c          	mov    0x1c(%esp),%eax
c0106804:	83 c4 20             	add    $0x20,%esp
c0106807:	5b                   	pop    %ebx
c0106808:	c3                   	ret    

c0106809 <pmm_free_page>:
c0106809:	83 ec 10             	sub    $0x10,%esp
c010680c:	8b 44 24 14          	mov    0x14(%esp),%eax
c0106810:	c1 e8 0c             	shr    $0xc,%eax
c0106813:	89 44 24 0c          	mov    %eax,0xc(%esp)
c0106817:	83 7c 24 0c 00       	cmpl   $0x0,0xc(%esp)
c010681c:	74 1e                	je     c010683c <pmm_free_page+0x33>
c010681e:	a1 00 80 12 c0       	mov    0xc0128000,%eax
c0106823:	39 44 24 0c          	cmp    %eax,0xc(%esp)
c0106827:	73 13                	jae    c010683c <pmm_free_page+0x33>
c0106829:	ff 74 24 0c          	push   0xc(%esp)
c010682d:	e8 b2 fb ff ff       	call   c01063e4 <pmm_mark_page_free>
c0106832:	83 c4 04             	add    $0x4,%esp
c0106835:	b8 01 00 00 00       	mov    $0x1,%eax
c010683a:	eb 05                	jmp    c0106841 <pmm_free_page+0x38>
c010683c:	b8 00 00 00 00       	mov    $0x0,%eax
c0106841:	83 c4 10             	add    $0x10,%esp
c0106844:	c3                   	ret    

c0106845 <_kernel_init>:
c0106845:	53                   	push   %ebx
c0106846:	83 ec 48             	sub    $0x48,%esp
c0106849:	e8 c5 08 00 00       	call   c0107113 <_init_idt>
c010684e:	8b 44 24 50          	mov    0x50(%esp),%eax
c0106852:	8b 40 30             	mov    0x30(%eax),%eax
c0106855:	89 44 24 30          	mov    %eax,0x30(%esp)
c0106859:	8b 44 24 50          	mov    0x50(%esp),%eax
c010685d:	8b 40 08             	mov    0x8(%eax),%eax
c0106860:	05 00 00 10 00       	add    $0x100000,%eax
c0106865:	c1 e0 0a             	shl    $0xa,%eax
c0106868:	83 ec 0c             	sub    $0xc,%esp
c010686b:	50                   	push   %eax
c010686c:	e8 5b fe ff ff       	call   c01066cc <pmm_init>
c0106871:	83 c4 10             	add    $0x10,%esp
c0106874:	e8 99 f7 ff ff       	call   c0106012 <vmm_init>
c0106879:	83 ec 0c             	sub    $0xc,%esp
c010687c:	68 00 80 0b 00       	push   $0xb8000
c0106881:	e8 99 03 00 00       	call   c0106c1f <tty_init>
c0106886:	83 c4 10             	add    $0x10,%esp
c0106889:	83 ec 08             	sub    $0x8,%esp
c010688c:	6a 00                	push   $0x0
c010688e:	6a 07                	push   $0x7
c0106890:	e8 ab 03 00 00       	call   c0106c40 <tty_set_theme>
c0106895:	83 c4 10             	add    $0x10,%esp
c0106898:	83 ec 0c             	sub    $0xc,%esp
c010689b:	68 00 a0 12 c0       	push   $0xc012a000
c01068a0:	e8 e5 0e 00 00       	call   c010778a <printf>
c01068a5:	83 c4 10             	add    $0x10,%esp
c01068a8:	8b 44 24 50          	mov    0x50(%esp),%eax
c01068ac:	8b 40 2c             	mov    0x2c(%eax),%eax
c01068af:	ba ab aa aa aa       	mov    $0xaaaaaaab,%edx
c01068b4:	f7 e2                	mul    %edx
c01068b6:	89 d0                	mov    %edx,%eax
c01068b8:	c1 e8 04             	shr    $0x4,%eax
c01068bb:	89 44 24 2c          	mov    %eax,0x2c(%esp)
c01068bf:	8b 44 24 50          	mov    0x50(%esp),%eax
c01068c3:	8b 50 08             	mov    0x8(%eax),%edx
c01068c6:	8b 44 24 50          	mov    0x50(%esp),%eax
c01068ca:	8b 40 04             	mov    0x4(%eax),%eax
c01068cd:	83 ec 04             	sub    $0x4,%esp
c01068d0:	52                   	push   %edx
c01068d1:	50                   	push   %eax
c01068d2:	68 24 a0 12 c0       	push   $0xc012a024
c01068d7:	e8 ae 0e 00 00       	call   c010778a <printf>
c01068dc:	83 c4 10             	add    $0x10,%esp
c01068df:	c7 44 24 3c 00 00 00 	movl   $0x0,0x3c(%esp)
c01068e6:	00 
c01068e7:	e9 37 01 00 00       	jmp    c0106a23 <_kernel_init+0x1de>
c01068ec:	8b 54 24 3c          	mov    0x3c(%esp),%edx
c01068f0:	89 d0                	mov    %edx,%eax
c01068f2:	01 c0                	add    %eax,%eax
c01068f4:	01 d0                	add    %edx,%eax
c01068f6:	c1 e0 03             	shl    $0x3,%eax
c01068f9:	89 c2                	mov    %eax,%edx
c01068fb:	8b 44 24 30          	mov    0x30(%esp),%eax
c01068ff:	01 d0                	add    %edx,%eax
c0106901:	8b 10                	mov    (%eax),%edx
c0106903:	89 54 24 08          	mov    %edx,0x8(%esp)
c0106907:	8b 50 04             	mov    0x4(%eax),%edx
c010690a:	89 54 24 0c          	mov    %edx,0xc(%esp)
c010690e:	8b 50 08             	mov    0x8(%eax),%edx
c0106911:	89 54 24 10          	mov    %edx,0x10(%esp)
c0106915:	8b 50 0c             	mov    0xc(%eax),%edx
c0106918:	89 54 24 14          	mov    %edx,0x14(%esp)
c010691c:	8b 50 10             	mov    0x10(%eax),%edx
c010691f:	89 54 24 18          	mov    %edx,0x18(%esp)
c0106923:	8b 40 14             	mov    0x14(%eax),%eax
c0106926:	89 44 24 1c          	mov    %eax,0x1c(%esp)
c010692a:	8b 54 24 3c          	mov    0x3c(%esp),%edx
c010692e:	89 d0                	mov    %edx,%eax
c0106930:	01 c0                	add    %eax,%eax
c0106932:	01 d0                	add    %edx,%eax
c0106934:	c1 e0 03             	shl    $0x3,%eax
c0106937:	89 c2                	mov    %eax,%edx
c0106939:	8b 44 24 30          	mov    0x30(%esp),%eax
c010693d:	01 d0                	add    %edx,%eax
c010693f:	8b 50 14             	mov    0x14(%eax),%edx
c0106942:	8b 4c 24 3c          	mov    0x3c(%esp),%ecx
c0106946:	89 c8                	mov    %ecx,%eax
c0106948:	01 c0                	add    %eax,%eax
c010694a:	01 c8                	add    %ecx,%eax
c010694c:	c1 e0 03             	shl    $0x3,%eax
c010694f:	89 c1                	mov    %eax,%ecx
c0106951:	8b 44 24 30          	mov    0x30(%esp),%eax
c0106955:	01 c8                	add    %ecx,%eax
c0106957:	8b 40 0c             	mov    0xc(%eax),%eax
c010695a:	c1 e8 0a             	shr    $0xa,%eax
c010695d:	89 c3                	mov    %eax,%ebx
c010695f:	8b 4c 24 3c          	mov    0x3c(%esp),%ecx
c0106963:	89 c8                	mov    %ecx,%eax
c0106965:	01 c0                	add    %eax,%eax
c0106967:	01 c8                	add    %ecx,%eax
c0106969:	c1 e0 03             	shl    $0x3,%eax
c010696c:	89 c1                	mov    %eax,%ecx
c010696e:	8b 44 24 30          	mov    0x30(%esp),%eax
c0106972:	01 c8                	add    %ecx,%eax
c0106974:	8b 40 04             	mov    0x4(%eax),%eax
c0106977:	52                   	push   %edx
c0106978:	53                   	push   %ebx
c0106979:	50                   	push   %eax
c010697a:	68 4c a0 12 c0       	push   $0xc012a04c
c010697f:	e8 06 0e 00 00       	call   c010778a <printf>
c0106984:	83 c4 10             	add    $0x10,%esp
c0106987:	8b 44 24 1c          	mov    0x1c(%esp),%eax
c010698b:	83 f8 01             	cmp    $0x1,%eax
c010698e:	0f 85 8a 00 00 00    	jne    c0106a1e <_kernel_init+0x1d9>
c0106994:	8b 54 24 3c          	mov    0x3c(%esp),%edx
c0106998:	89 d0                	mov    %edx,%eax
c010699a:	01 c0                	add    %eax,%eax
c010699c:	01 d0                	add    %edx,%eax
c010699e:	c1 e0 03             	shl    $0x3,%eax
c01069a1:	89 c2                	mov    %eax,%edx
c01069a3:	8b 44 24 30          	mov    0x30(%esp),%eax
c01069a7:	01 d0                	add    %edx,%eax
c01069a9:	8b 40 04             	mov    0x4(%eax),%eax
c01069ac:	05 ff 0f 00 00       	add    $0xfff,%eax
c01069b1:	89 44 24 20          	mov    %eax,0x20(%esp)
c01069b5:	8b 54 24 3c          	mov    0x3c(%esp),%edx
c01069b9:	89 d0                	mov    %edx,%eax
c01069bb:	01 c0                	add    %eax,%eax
c01069bd:	01 d0                	add    %edx,%eax
c01069bf:	c1 e0 03             	shl    $0x3,%eax
c01069c2:	89 c2                	mov    %eax,%edx
c01069c4:	8b 44 24 30          	mov    0x30(%esp),%eax
c01069c8:	01 d0                	add    %edx,%eax
c01069ca:	8b 40 0c             	mov    0xc(%eax),%eax
c01069cd:	c1 e8 0c             	shr    $0xc,%eax
c01069d0:	89 c2                	mov    %eax,%edx
c01069d2:	8b 44 24 20          	mov    0x20(%esp),%eax
c01069d6:	c1 e8 0c             	shr    $0xc,%eax
c01069d9:	83 ec 08             	sub    $0x8,%esp
c01069dc:	52                   	push   %edx
c01069dd:	50                   	push   %eax
c01069de:	e8 8f fa ff ff       	call   c0106472 <pmm_mark_chunk_free>
c01069e3:	83 c4 10             	add    $0x10,%esp
c01069e6:	8b 44 24 20          	mov    0x20(%esp),%eax
c01069ea:	25 00 f0 ff ff       	and    $0xfffff000,%eax
c01069ef:	89 c1                	mov    %eax,%ecx
c01069f1:	8b 54 24 3c          	mov    0x3c(%esp),%edx
c01069f5:	89 d0                	mov    %edx,%eax
c01069f7:	01 c0                	add    %eax,%eax
c01069f9:	01 d0                	add    %edx,%eax
c01069fb:	c1 e0 03             	shl    $0x3,%eax
c01069fe:	89 c2                	mov    %eax,%edx
c0106a00:	8b 44 24 30          	mov    0x30(%esp),%eax
c0106a04:	01 d0                	add    %edx,%eax
c0106a06:	8b 40 0c             	mov    0xc(%eax),%eax
c0106a09:	c1 e8 0c             	shr    $0xc,%eax
c0106a0c:	83 ec 04             	sub    $0x4,%esp
c0106a0f:	51                   	push   %ecx
c0106a10:	50                   	push   %eax
c0106a11:	68 74 a0 12 c0       	push   $0xc012a074
c0106a16:	e8 6f 0d 00 00       	call   c010778a <printf>
c0106a1b:	83 c4 10             	add    $0x10,%esp
c0106a1e:	83 44 24 3c 01       	addl   $0x1,0x3c(%esp)
c0106a23:	8b 44 24 3c          	mov    0x3c(%esp),%eax
c0106a27:	3b 44 24 2c          	cmp    0x2c(%esp),%eax
c0106a2b:	0f 82 bb fe ff ff    	jb     c01068ec <_kernel_init+0xa7>
c0106a31:	b8 00 10 13 c0       	mov    $0xc0131000,%eax
c0106a36:	2d 00 60 10 c0       	sub    $0xc0106000,%eax
c0106a3b:	c1 e8 0c             	shr    $0xc,%eax
c0106a3e:	89 44 24 28          	mov    %eax,0x28(%esp)
c0106a42:	b8 00 60 10 c0       	mov    $0xc0106000,%eax
c0106a47:	05 00 00 00 40       	add    $0x40000000,%eax
c0106a4c:	c1 e8 0c             	shr    $0xc,%eax
c0106a4f:	83 ec 08             	sub    $0x8,%esp
c0106a52:	ff 74 24 30          	push   0x30(%esp)
c0106a56:	50                   	push   %eax
c0106a57:	e8 45 fb ff ff       	call   c01065a1 <pmm_mark_chunk_occupied>
c0106a5c:	83 c4 10             	add    $0x10,%esp
c0106a5f:	83 ec 08             	sub    $0x8,%esp
c0106a62:	ff 74 24 30          	push   0x30(%esp)
c0106a66:	68 9c a0 12 c0       	push   $0xc012a09c
c0106a6b:	e8 1a 0d 00 00       	call   c010778a <printf>
c0106a70:	83 c4 10             	add    $0x10,%esp
c0106a73:	c7 44 24 24 01 00 00 	movl   $0x1,0x24(%esp)
c0106a7a:	00 
c0106a7b:	83 ec 08             	sub    $0x8,%esp
c0106a7e:	ff 74 24 2c          	push   0x2c(%esp)
c0106a82:	68 b8 00 00 00       	push   $0xb8
c0106a87:	e8 15 fb ff ff       	call   c01065a1 <pmm_mark_chunk_occupied>
c0106a8c:	83 c4 10             	add    $0x10,%esp
c0106a8f:	c7 44 24 38 00 00 00 	movl   $0x0,0x38(%esp)
c0106a96:	00 
c0106a97:	eb 2d                	jmp    c0106ac6 <_kernel_init+0x281>
c0106a99:	8b 44 24 38          	mov    0x38(%esp),%eax
c0106a9d:	c1 e0 0c             	shl    $0xc,%eax
c0106aa0:	05 00 80 0b 00       	add    $0xb8000,%eax
c0106aa5:	89 c2                	mov    %eax,%edx
c0106aa7:	8b 44 24 38          	mov    0x38(%esp),%eax
c0106aab:	c1 e0 0c             	shl    $0xc,%eax
c0106aae:	2d 00 00 00 50       	sub    $0x50000000,%eax
c0106ab3:	6a 03                	push   $0x3
c0106ab5:	6a 03                	push   $0x3
c0106ab7:	52                   	push   %edx
c0106ab8:	50                   	push   %eax
c0106ab9:	e8 b3 f5 ff ff       	call   c0106071 <vmm_map_page>
c0106abe:	83 c4 10             	add    $0x10,%esp
c0106ac1:	83 44 24 38 01       	addl   $0x1,0x38(%esp)
c0106ac6:	8b 44 24 38          	mov    0x38(%esp),%eax
c0106aca:	3b 44 24 24          	cmp    0x24(%esp),%eax
c0106ace:	72 c9                	jb     c0106a99 <_kernel_init+0x254>
c0106ad0:	83 ec 0c             	sub    $0xc,%esp
c0106ad3:	68 00 00 00 b0       	push   $0xb0000000
c0106ad8:	e8 58 01 00 00       	call   c0106c35 <tty_set_buffer>
c0106add:	83 c4 10             	add    $0x10,%esp
c0106ae0:	83 ec 08             	sub    $0x8,%esp
c0106ae3:	68 00 00 00 b0       	push   $0xb0000000
c0106ae8:	68 c1 a0 12 c0       	push   $0xc012a0c1
c0106aed:	e8 98 0c 00 00       	call   c010778a <printf>
c0106af2:	83 c4 10             	add    $0x10,%esp
c0106af5:	c7 44 24 34 00 00 00 	movl   $0x0,0x34(%esp)
c0106afc:	00 
c0106afd:	eb 21                	jmp    c0106b20 <_kernel_init+0x2db>
c0106aff:	8b 44 24 34          	mov    0x34(%esp),%eax
c0106b03:	c1 e0 0c             	shl    $0xc,%eax
c0106b06:	2d 00 00 50 00       	sub    $0x500000,%eax
c0106b0b:	83 ec 04             	sub    $0x4,%esp
c0106b0e:	6a 03                	push   $0x3
c0106b10:	6a 03                	push   $0x3
c0106b12:	50                   	push   %eax
c0106b13:	e8 4c f7 ff ff       	call   c0106264 <vmm_alloc_page>
c0106b18:	83 c4 10             	add    $0x10,%esp
c0106b1b:	83 44 24 34 01       	addl   $0x1,0x34(%esp)
c0106b20:	81 7c 24 34 ff 00 00 	cmpl   $0xff,0x34(%esp)
c0106b27:	00 
c0106b28:	76 d5                	jbe    c0106aff <_kernel_init+0x2ba>
c0106b2a:	83 ec 04             	sub    $0x4,%esp
c0106b2d:	68 00 00 b0 ff       	push   $0xffb00000
c0106b32:	68 00 01 00 00       	push   $0x100
c0106b37:	68 dc a0 12 c0       	push   $0xc012a0dc
c0106b3c:	e8 49 0c 00 00       	call   c010778a <printf>
c0106b41:	83 c4 10             	add    $0x10,%esp
c0106b44:	83 ec 0c             	sub    $0xc,%esp
c0106b47:	68 0c a1 12 c0       	push   $0xc012a10c
c0106b4c:	e8 39 0c 00 00       	call   c010778a <printf>
c0106b51:	83 c4 10             	add    $0x10,%esp
c0106b54:	90                   	nop
c0106b55:	83 c4 48             	add    $0x48,%esp
c0106b58:	5b                   	pop    %ebx
c0106b59:	c3                   	ret    

c0106b5a <_kernel_post_init>:
c0106b5a:	83 ec 1c             	sub    $0x1c,%esp
c0106b5d:	83 ec 0c             	sub    $0xc,%esp
c0106b60:	68 34 a1 12 c0       	push   $0xc012a134
c0106b65:	e8 20 0c 00 00       	call   c010778a <printf>
c0106b6a:	83 c4 10             	add    $0x10,%esp
c0106b6d:	b8 be 5f 10 00       	mov    $0x105fbe,%eax
c0106b72:	c1 e8 0c             	shr    $0xc,%eax
c0106b75:	89 44 24 08          	mov    %eax,0x8(%esp)
c0106b79:	83 ec 08             	sub    $0x8,%esp
c0106b7c:	ff 74 24 10          	push   0x10(%esp)
c0106b80:	68 5c a1 12 c0       	push   $0xc012a15c
c0106b85:	e8 00 0c 00 00       	call   c010778a <printf>
c0106b8a:	83 c4 10             	add    $0x10,%esp
c0106b8d:	c7 44 24 0c 00 00 00 	movl   $0x0,0xc(%esp)
c0106b94:	00 
c0106b95:	eb 18                	jmp    c0106baf <_kernel_post_init+0x55>
c0106b97:	8b 44 24 0c          	mov    0xc(%esp),%eax
c0106b9b:	c1 e0 0c             	shl    $0xc,%eax
c0106b9e:	83 ec 0c             	sub    $0xc,%esp
c0106ba1:	50                   	push   %eax
c0106ba2:	e8 03 f7 ff ff       	call   c01062aa <vmm_unmap_page>
c0106ba7:	83 c4 10             	add    $0x10,%esp
c0106baa:	83 44 24 0c 01       	addl   $0x1,0xc(%esp)
c0106baf:	8b 44 24 0c          	mov    0xc(%esp),%eax
c0106bb3:	3b 44 24 08          	cmp    0x8(%esp),%eax
c0106bb7:	72 de                	jb     c0106b97 <_kernel_post_init+0x3d>
c0106bb9:	83 ec 0c             	sub    $0xc,%esp
c0106bbc:	68 80 a1 12 c0       	push   $0xc012a180
c0106bc1:	e8 c4 0b 00 00       	call   c010778a <printf>
c0106bc6:	83 c4 10             	add    $0x10,%esp
c0106bc9:	90                   	nop
c0106bca:	83 c4 1c             	add    $0x1c,%esp
c0106bcd:	c3                   	ret    

c0106bce <_kernel_main>:
c0106bce:	81 ec 1c 01 00 00    	sub    $0x11c,%esp
c0106bd4:	83 ec 0c             	sub    $0xc,%esp
c0106bd7:	68 b0 a1 12 c0       	push   $0xc012a1b0
c0106bdc:	e8 a9 0b 00 00       	call   c010778a <printf>
c0106be1:	83 c4 10             	add    $0x10,%esp
c0106be4:	83 ec 0c             	sub    $0xc,%esp
c0106be7:	68 00 60 10 c0       	push   $0xc0106000
c0106bec:	e8 5b f7 ff ff       	call   c010634c <vmm_v2p>
c0106bf1:	83 c4 10             	add    $0x10,%esp
c0106bf4:	89 84 24 0c 01 00 00 	mov    %eax,0x10c(%esp)
c0106bfb:	83 ec 04             	sub    $0x4,%esp
c0106bfe:	ff b4 24 10 01 00 00 	push   0x110(%esp)
c0106c05:	68 00 60 10 c0       	push   $0xc0106000
c0106c0a:	68 00 a2 12 c0       	push   $0xc012a200
c0106c0f:	e8 76 0b 00 00       	call   c010778a <printf>
c0106c14:	83 c4 10             	add    $0x10,%esp
c0106c17:	90                   	nop
c0106c18:	81 c4 1c 01 00 00    	add    $0x11c,%esp
c0106c1e:	c3                   	ret    

c0106c1f <tty_init>:
c0106c1f:	83 ec 0c             	sub    $0xc,%esp
c0106c22:	8b 44 24 10          	mov    0x10(%esp),%eax
c0106c26:	a3 00 90 12 c0       	mov    %eax,0xc0129000
c0106c2b:	e8 d3 01 00 00       	call   c0106e03 <tty_clear>
c0106c30:	90                   	nop
c0106c31:	83 c4 0c             	add    $0xc,%esp
c0106c34:	c3                   	ret    

c0106c35 <tty_set_buffer>:
c0106c35:	8b 44 24 04          	mov    0x4(%esp),%eax
c0106c39:	a3 00 90 12 c0       	mov    %eax,0xc0129000
c0106c3e:	90                   	nop
c0106c3f:	c3                   	ret    

c0106c40 <tty_set_theme>:
c0106c40:	83 ec 08             	sub    $0x8,%esp
c0106c43:	8b 54 24 0c          	mov    0xc(%esp),%edx
c0106c47:	8b 44 24 10          	mov    0x10(%esp),%eax
c0106c4b:	66 89 54 24 04       	mov    %dx,0x4(%esp)
c0106c50:	66 89 04 24          	mov    %ax,(%esp)
c0106c54:	0f b7 04 24          	movzwl (%esp),%eax
c0106c58:	c1 e0 04             	shl    $0x4,%eax
c0106c5b:	89 c2                	mov    %eax,%edx
c0106c5d:	0f b7 44 24 04       	movzwl 0x4(%esp),%eax
c0106c62:	09 d0                	or     %edx,%eax
c0106c64:	c1 e0 08             	shl    $0x8,%eax
c0106c67:	66 a3 08 80 12 c0    	mov    %ax,0xc0128008
c0106c6d:	90                   	nop
c0106c6e:	83 c4 08             	add    $0x8,%esp
c0106c71:	c3                   	ret    

c0106c72 <tty_put_char>:
c0106c72:	53                   	push   %ebx
c0106c73:	83 ec 18             	sub    $0x18,%esp
c0106c76:	8b 44 24 20          	mov    0x20(%esp),%eax
c0106c7a:	88 44 24 0c          	mov    %al,0xc(%esp)
c0106c7e:	0f be 44 24 0c       	movsbl 0xc(%esp),%eax
c0106c83:	83 f8 0d             	cmp    $0xd,%eax
c0106c86:	74 30                	je     c0106cb8 <tty_put_char+0x46>
c0106c88:	83 f8 0d             	cmp    $0xd,%eax
c0106c8b:	7f 37                	jg     c0106cc4 <tty_put_char+0x52>
c0106c8d:	83 f8 09             	cmp    $0x9,%eax
c0106c90:	74 07                	je     c0106c99 <tty_put_char+0x27>
c0106c92:	83 f8 0a             	cmp    $0xa,%eax
c0106c95:	74 11                	je     c0106ca8 <tty_put_char+0x36>
c0106c97:	eb 2b                	jmp    c0106cc4 <tty_put_char+0x52>
c0106c99:	a1 0c 80 12 c0       	mov    0xc012800c,%eax
c0106c9e:	83 c0 04             	add    $0x4,%eax
c0106ca1:	a3 0c 80 12 c0       	mov    %eax,0xc012800c
c0106ca6:	eb 67                	jmp    c0106d0f <tty_put_char+0x9d>
c0106ca8:	0f b7 05 10 80 12 c0 	movzwl 0xc0128010,%eax
c0106caf:	83 c0 01             	add    $0x1,%eax
c0106cb2:	66 a3 10 80 12 c0    	mov    %ax,0xc0128010
c0106cb8:	c7 05 0c 80 12 c0 00 	movl   $0x0,0xc012800c
c0106cbf:	00 00 00 
c0106cc2:	eb 4b                	jmp    c0106d0f <tty_put_char+0x9d>
c0106cc4:	66 0f be 54 24 0c    	movsbw 0xc(%esp),%dx
c0106cca:	0f b7 05 08 80 12 c0 	movzwl 0xc0128008,%eax
c0106cd1:	89 d1                	mov    %edx,%ecx
c0106cd3:	09 c1                	or     %eax,%ecx
c0106cd5:	8b 1d 00 90 12 c0    	mov    0xc0129000,%ebx
c0106cdb:	0f b7 05 10 80 12 c0 	movzwl 0xc0128010,%eax
c0106ce2:	0f b7 d0             	movzwl %ax,%edx
c0106ce5:	89 d0                	mov    %edx,%eax
c0106ce7:	c1 e0 02             	shl    $0x2,%eax
c0106cea:	01 d0                	add    %edx,%eax
c0106cec:	c1 e0 04             	shl    $0x4,%eax
c0106cef:	89 c2                	mov    %eax,%edx
c0106cf1:	a1 0c 80 12 c0       	mov    0xc012800c,%eax
c0106cf6:	01 d0                	add    %edx,%eax
c0106cf8:	01 c0                	add    %eax,%eax
c0106cfa:	01 d8                	add    %ebx,%eax
c0106cfc:	89 ca                	mov    %ecx,%edx
c0106cfe:	66 89 10             	mov    %dx,(%eax)
c0106d01:	a1 0c 80 12 c0       	mov    0xc012800c,%eax
c0106d06:	83 c0 01             	add    $0x1,%eax
c0106d09:	a3 0c 80 12 c0       	mov    %eax,0xc012800c
c0106d0e:	90                   	nop
c0106d0f:	a1 0c 80 12 c0       	mov    0xc012800c,%eax
c0106d14:	83 f8 4f             	cmp    $0x4f,%eax
c0106d17:	76 1a                	jbe    c0106d33 <tty_put_char+0xc1>
c0106d19:	c7 05 0c 80 12 c0 00 	movl   $0x0,0xc012800c
c0106d20:	00 00 00 
c0106d23:	0f b7 05 10 80 12 c0 	movzwl 0xc0128010,%eax
c0106d2a:	83 c0 01             	add    $0x1,%eax
c0106d2d:	66 a3 10 80 12 c0    	mov    %ax,0xc0128010
c0106d33:	0f b7 05 10 80 12 c0 	movzwl 0xc0128010,%eax
c0106d3a:	66 83 f8 18          	cmp    $0x18,%ax
c0106d3e:	76 05                	jbe    c0106d45 <tty_put_char+0xd3>
c0106d40:	e8 37 00 00 00       	call   c0106d7c <tty_scroll_up>
c0106d45:	90                   	nop
c0106d46:	83 c4 18             	add    $0x18,%esp
c0106d49:	5b                   	pop    %ebx
c0106d4a:	c3                   	ret    

c0106d4b <tty_put_str>:
c0106d4b:	83 ec 0c             	sub    $0xc,%esp
c0106d4e:	eb 1b                	jmp    c0106d6b <tty_put_str+0x20>
c0106d50:	8b 44 24 10          	mov    0x10(%esp),%eax
c0106d54:	0f b6 00             	movzbl (%eax),%eax
c0106d57:	0f be c0             	movsbl %al,%eax
c0106d5a:	83 ec 0c             	sub    $0xc,%esp
c0106d5d:	50                   	push   %eax
c0106d5e:	e8 0f ff ff ff       	call   c0106c72 <tty_put_char>
c0106d63:	83 c4 10             	add    $0x10,%esp
c0106d66:	83 44 24 10 01       	addl   $0x1,0x10(%esp)
c0106d6b:	8b 44 24 10          	mov    0x10(%esp),%eax
c0106d6f:	0f b6 00             	movzbl (%eax),%eax
c0106d72:	84 c0                	test   %al,%al
c0106d74:	75 da                	jne    c0106d50 <tty_put_str+0x5>
c0106d76:	90                   	nop
c0106d77:	90                   	nop
c0106d78:	83 c4 0c             	add    $0xc,%esp
c0106d7b:	c3                   	ret    

c0106d7c <tty_scroll_up>:
c0106d7c:	83 ec 1c             	sub    $0x1c,%esp
c0106d7f:	c7 44 24 08 80 07 00 	movl   $0x780,0x8(%esp)
c0106d86:	00 
c0106d87:	8b 44 24 08          	mov    0x8(%esp),%eax
c0106d8b:	8d 0c 00             	lea    (%eax,%eax,1),%ecx
c0106d8e:	a1 00 90 12 c0       	mov    0xc0129000,%eax
c0106d93:	8d 90 a0 00 00 00    	lea    0xa0(%eax),%edx
c0106d99:	a1 00 90 12 c0       	mov    0xc0129000,%eax
c0106d9e:	83 ec 04             	sub    $0x4,%esp
c0106da1:	51                   	push   %ecx
c0106da2:	52                   	push   %edx
c0106da3:	50                   	push   %eax
c0106da4:	e8 78 05 00 00       	call   c0107321 <memcpy>
c0106da9:	83 c4 10             	add    $0x10,%esp
c0106dac:	c7 44 24 0c 00 00 00 	movl   $0x0,0xc(%esp)
c0106db3:	00 
c0106db4:	eb 23                	jmp    c0106dd9 <tty_scroll_up+0x5d>
c0106db6:	8b 15 00 90 12 c0    	mov    0xc0129000,%edx
c0106dbc:	8b 4c 24 0c          	mov    0xc(%esp),%ecx
c0106dc0:	8b 44 24 08          	mov    0x8(%esp),%eax
c0106dc4:	01 c8                	add    %ecx,%eax
c0106dc6:	01 c0                	add    %eax,%eax
c0106dc8:	01 c2                	add    %eax,%edx
c0106dca:	0f b7 05 08 80 12 c0 	movzwl 0xc0128008,%eax
c0106dd1:	66 89 02             	mov    %ax,(%edx)
c0106dd4:	83 44 24 0c 01       	addl   $0x1,0xc(%esp)
c0106dd9:	83 7c 24 0c 4f       	cmpl   $0x4f,0xc(%esp)
c0106dde:	76 d6                	jbe    c0106db6 <tty_scroll_up+0x3a>
c0106de0:	0f b7 05 10 80 12 c0 	movzwl 0xc0128010,%eax
c0106de7:	66 85 c0             	test   %ax,%ax
c0106dea:	75 07                	jne    c0106df3 <tty_scroll_up+0x77>
c0106dec:	b8 00 00 00 00       	mov    $0x0,%eax
c0106df1:	eb 05                	jmp    c0106df8 <tty_scroll_up+0x7c>
c0106df3:	b8 18 00 00 00       	mov    $0x18,%eax
c0106df8:	66 a3 10 80 12 c0    	mov    %ax,0xc0128010
c0106dfe:	90                   	nop
c0106dff:	83 c4 1c             	add    $0x1c,%esp
c0106e02:	c3                   	ret    

c0106e03 <tty_clear>:
c0106e03:	83 ec 10             	sub    $0x10,%esp
c0106e06:	c7 44 24 0c 00 00 00 	movl   $0x0,0xc(%esp)
c0106e0d:	00 
c0106e0e:	eb 1d                	jmp    c0106e2d <tty_clear+0x2a>
c0106e10:	8b 15 00 90 12 c0    	mov    0xc0129000,%edx
c0106e16:	8b 44 24 0c          	mov    0xc(%esp),%eax
c0106e1a:	01 c0                	add    %eax,%eax
c0106e1c:	01 c2                	add    %eax,%edx
c0106e1e:	0f b7 05 08 80 12 c0 	movzwl 0xc0128008,%eax
c0106e25:	66 89 02             	mov    %ax,(%edx)
c0106e28:	83 44 24 0c 01       	addl   $0x1,0xc(%esp)
c0106e2d:	81 7c 24 0c cf 07 00 	cmpl   $0x7cf,0xc(%esp)
c0106e34:	00 
c0106e35:	76 d9                	jbe    c0106e10 <tty_clear+0xd>
c0106e37:	c7 05 0c 80 12 c0 00 	movl   $0x0,0xc012800c
c0106e3e:	00 00 00 
c0106e41:	66 c7 05 10 80 12 c0 	movw   $0x0,0xc0128010
c0106e48:	00 00 
c0106e4a:	90                   	nop
c0106e4b:	83 c4 10             	add    $0x10,%esp
c0106e4e:	c3                   	ret    

c0106e4f <hhk_entry_>:
c0106e4f:	83 ec 10             	sub    $0x10,%esp
c0106e52:	e8 3e 01 00 00       	call   c0106f95 <_init_gdt>
c0106e57:	c7 44 24 02 20 80 12 	movl   $0xc0128020,0x2(%esp)
c0106e5e:	c0 
c0106e5f:	66 a1 04 90 12 c0    	mov    0xc0129004,%ax
c0106e65:	66 89 04 24          	mov    %ax,(%esp)
c0106e69:	0f 01 14 24          	lgdtl  (%esp)
c0106e6d:	66 b9 10 00          	mov    $0x10,%cx
c0106e71:	8e c1                	mov    %ecx,%es
c0106e73:	8e d9                	mov    %ecx,%ds
c0106e75:	8e e1                	mov    %ecx,%fs
c0106e77:	8e e9                	mov    %ecx,%gs
c0106e79:	8e d1                	mov    %ecx,%ss
c0106e7b:	66 6a 08             	pushw  $0x8
c0106e7e:	68 84 6e 10 c0       	push   $0xc0106e84
c0106e83:	cb                   	lret   

c0106e84 <_after_gdt>:
c0106e84:	c7 04 24 00 10 10 00 	movl   $0x101000,(%esp)
c0106e8b:	e8 b5 f9 ff ff       	call   c0106845 <_kernel_init>
c0106e90:	bc f0 ff bf ff       	mov    $0xffbffff0,%esp
c0106e95:	e8 c0 fc ff ff       	call   c0106b5a <_kernel_post_init>
c0106e9a:	83 ec 06             	sub    $0x6,%esp
c0106e9d:	c7 44 24 02 60 80 12 	movl   $0xc0128060,0x2(%esp)
c0106ea4:	c0 
c0106ea5:	66 a1 06 90 12 c0    	mov    0xc0129006,%ax
c0106eab:	66 89 04 24          	mov    %ax,(%esp)
c0106eaf:	0f 01 1c 24          	lidtl  (%esp)
c0106eb3:	83 c4 06             	add    $0x6,%esp
c0106eb6:	e8 13 fd ff ff       	call   c0106bce <_kernel_main>
c0106ebb:	fa                   	cli    

c0106ebc <j_>:
c0106ebc:	f4                   	hlt    
c0106ebd:	eb fd                	jmp    c0106ebc <j_>

c0106ebf <_asm_isr0>:
c0106ebf:	6a 00                	push   $0x0
c0106ec1:	6a 00                	push   $0x0
c0106ec3:	eb 00                	jmp    c0106ec5 <interrupt_wrapper>

c0106ec5 <interrupt_wrapper>:
c0106ec5:	89 e0                	mov    %esp,%eax
c0106ec7:	83 e4 f0             	and    $0xfffffff0,%esp
c0106eca:	83 ec 10             	sub    $0x10,%esp
c0106ecd:	89 04 24             	mov    %eax,(%esp)
c0106ed0:	e8 4d 01 00 00       	call   c0107022 <interrupt_handler>
c0106ed5:	58                   	pop    %eax
c0106ed6:	89 c4                	mov    %eax,%esp
c0106ed8:	83 c4 08             	add    $0x8,%esp
c0106edb:	cf                   	iret   

c0106edc <_set_gdt_entry>:
c0106edc:	55                   	push   %ebp
c0106edd:	57                   	push   %edi
c0106ede:	56                   	push   %esi
c0106edf:	53                   	push   %ebx
c0106ee0:	8b 44 24 18          	mov    0x18(%esp),%eax
c0106ee4:	25 00 00 00 ff       	and    $0xff000000,%eax
c0106ee9:	0b 44 24 20          	or     0x20(%esp),%eax
c0106eed:	89 c2                	mov    %eax,%edx
c0106eef:	8b 44 24 1c          	mov    0x1c(%esp),%eax
c0106ef3:	25 00 00 0f 00       	and    $0xf0000,%eax
c0106ef8:	09 c2                	or     %eax,%edx
c0106efa:	8b 44 24 18          	mov    0x18(%esp),%eax
c0106efe:	c1 e8 10             	shr    $0x10,%eax
c0106f01:	0f b6 c0             	movzbl %al,%eax
c0106f04:	09 d0                	or     %edx,%eax
c0106f06:	ba 00 00 00 00       	mov    $0x0,%edx
c0106f0b:	8b 74 24 14          	mov    0x14(%esp),%esi
c0106f0f:	89 04 f5 20 80 12 c0 	mov    %eax,-0x3fed7fe0(,%esi,8)
c0106f16:	89 14 f5 24 80 12 c0 	mov    %edx,-0x3fed7fdc(,%esi,8)
c0106f1d:	8b 44 24 14          	mov    0x14(%esp),%eax
c0106f21:	8b 14 c5 24 80 12 c0 	mov    -0x3fed7fdc(,%eax,8),%edx
c0106f28:	8b 04 c5 20 80 12 c0 	mov    -0x3fed7fe0(,%eax,8),%eax
c0106f2f:	89 c2                	mov    %eax,%edx
c0106f31:	b8 00 00 00 00       	mov    $0x0,%eax
c0106f36:	8b 74 24 14          	mov    0x14(%esp),%esi
c0106f3a:	89 04 f5 20 80 12 c0 	mov    %eax,-0x3fed7fe0(,%esi,8)
c0106f41:	89 14 f5 24 80 12 c0 	mov    %edx,-0x3fed7fdc(,%esi,8)
c0106f48:	8b 44 24 14          	mov    0x14(%esp),%eax
c0106f4c:	8b 14 c5 24 80 12 c0 	mov    -0x3fed7fdc(,%eax,8),%edx
c0106f53:	8b 04 c5 20 80 12 c0 	mov    -0x3fed7fe0(,%eax,8),%eax
c0106f5a:	8b 74 24 18          	mov    0x18(%esp),%esi
c0106f5e:	89 f7                	mov    %esi,%edi
c0106f60:	c1 e7 10             	shl    $0x10,%edi
c0106f63:	8b 74 24 1c          	mov    0x1c(%esp),%esi
c0106f67:	0f b7 f6             	movzwl %si,%esi
c0106f6a:	09 fe                	or     %edi,%esi
c0106f6c:	bf 00 00 00 00       	mov    $0x0,%edi
c0106f71:	89 c5                	mov    %eax,%ebp
c0106f73:	09 f5                	or     %esi,%ebp
c0106f75:	89 e9                	mov    %ebp,%ecx
c0106f77:	89 d0                	mov    %edx,%eax
c0106f79:	09 f8                	or     %edi,%eax
c0106f7b:	89 c3                	mov    %eax,%ebx
c0106f7d:	8b 44 24 14          	mov    0x14(%esp),%eax
c0106f81:	89 0c c5 20 80 12 c0 	mov    %ecx,-0x3fed7fe0(,%eax,8)
c0106f88:	89 1c c5 24 80 12 c0 	mov    %ebx,-0x3fed7fdc(,%eax,8)
c0106f8f:	90                   	nop
c0106f90:	5b                   	pop    %ebx
c0106f91:	5e                   	pop    %esi
c0106f92:	5f                   	pop    %edi
c0106f93:	5d                   	pop    %ebp
c0106f94:	c3                   	ret    

c0106f95 <_init_gdt>:
c0106f95:	83 ec 04             	sub    $0x4,%esp
c0106f98:	6a 00                	push   $0x0
c0106f9a:	6a 00                	push   $0x0
c0106f9c:	6a 00                	push   $0x0
c0106f9e:	6a 00                	push   $0x0
c0106fa0:	e8 37 ff ff ff       	call   c0106edc <_set_gdt_entry>
c0106fa5:	83 c4 10             	add    $0x10,%esp
c0106fa8:	68 00 9a c0 00       	push   $0xc09a00
c0106fad:	68 ff ff 0f 00       	push   $0xfffff
c0106fb2:	6a 00                	push   $0x0
c0106fb4:	6a 01                	push   $0x1
c0106fb6:	e8 21 ff ff ff       	call   c0106edc <_set_gdt_entry>
c0106fbb:	83 c4 10             	add    $0x10,%esp
c0106fbe:	68 00 92 c0 00       	push   $0xc09200
c0106fc3:	68 ff ff 0f 00       	push   $0xfffff
c0106fc8:	6a 00                	push   $0x0
c0106fca:	6a 02                	push   $0x2
c0106fcc:	e8 0b ff ff ff       	call   c0106edc <_set_gdt_entry>
c0106fd1:	83 c4 10             	add    $0x10,%esp
c0106fd4:	68 00 fa c0 00       	push   $0xc0fa00
c0106fd9:	68 ff ff 0f 00       	push   $0xfffff
c0106fde:	6a 00                	push   $0x0
c0106fe0:	6a 03                	push   $0x3
c0106fe2:	e8 f5 fe ff ff       	call   c0106edc <_set_gdt_entry>
c0106fe7:	83 c4 10             	add    $0x10,%esp
c0106fea:	68 00 f2 c0 00       	push   $0xc0f200
c0106fef:	68 ff ff 0f 00       	push   $0xfffff
c0106ff4:	6a 00                	push   $0x0
c0106ff6:	6a 04                	push   $0x4
c0106ff8:	e8 df fe ff ff       	call   c0106edc <_set_gdt_entry>
c0106ffd:	83 c4 10             	add    $0x10,%esp
c0107000:	90                   	nop
c0107001:	83 c4 04             	add    $0x4,%esp
c0107004:	c3                   	ret    

c0107005 <isr0>:
c0107005:	83 ec 0c             	sub    $0xc,%esp
c0107008:	e8 f6 fd ff ff       	call   c0106e03 <tty_clear>
c010700d:	83 ec 0c             	sub    $0xc,%esp
c0107010:	68 2b a2 12 c0       	push   $0xc012a22b
c0107015:	e8 31 fd ff ff       	call   c0106d4b <tty_put_str>
c010701a:	83 c4 10             	add    $0x10,%esp
c010701d:	90                   	nop
c010701e:	83 c4 0c             	add    $0xc,%esp
c0107021:	c3                   	ret    

c0107022 <interrupt_handler>:
c0107022:	83 ec 0c             	sub    $0xc,%esp
c0107025:	8b 44 24 10          	mov    0x10(%esp),%eax
c0107029:	8b 00                	mov    (%eax),%eax
c010702b:	85 c0                	test   %eax,%eax
c010702d:	75 10                	jne    c010703f <interrupt_handler+0x1d>
c010702f:	83 ec 0c             	sub    $0xc,%esp
c0107032:	ff 74 24 1c          	push   0x1c(%esp)
c0107036:	e8 ca ff ff ff       	call   c0107005 <isr0>
c010703b:	83 c4 10             	add    $0x10,%esp
c010703e:	90                   	nop
c010703f:	90                   	nop
c0107040:	83 c4 0c             	add    $0xc,%esp
c0107043:	c3                   	ret    

c0107044 <_set_idt_entry>:
c0107044:	55                   	push   %ebp
c0107045:	57                   	push   %edi
c0107046:	56                   	push   %esi
c0107047:	53                   	push   %ebx
c0107048:	83 ec 1c             	sub    $0x1c,%esp
c010704b:	8b 44 24 34          	mov    0x34(%esp),%eax
c010704f:	8b 54 24 3c          	mov    0x3c(%esp),%edx
c0107053:	66 89 44 24 04       	mov    %ax,0x4(%esp)
c0107058:	89 d0                	mov    %edx,%eax
c010705a:	88 04 24             	mov    %al,(%esp)
c010705d:	8b 44 24 38          	mov    0x38(%esp),%eax
c0107061:	89 44 24 14          	mov    %eax,0x14(%esp)
c0107065:	8b 44 24 14          	mov    0x14(%esp),%eax
c0107069:	66 b8 00 00          	mov    $0x0,%ax
c010706d:	89 c2                	mov    %eax,%edx
c010706f:	0f b6 04 24          	movzbl (%esp),%eax
c0107073:	c1 e0 0d             	shl    $0xd,%eax
c0107076:	25 00 60 00 00       	and    $0x6000,%eax
c010707b:	09 d0                	or     %edx,%eax
c010707d:	80 cc 8e             	or     $0x8e,%ah
c0107080:	ba 00 00 00 00       	mov    $0x0,%edx
c0107085:	8b 74 24 30          	mov    0x30(%esp),%esi
c0107089:	89 04 f5 60 80 12 c0 	mov    %eax,-0x3fed7fa0(,%esi,8)
c0107090:	89 14 f5 64 80 12 c0 	mov    %edx,-0x3fed7f9c(,%esi,8)
c0107097:	8b 44 24 30          	mov    0x30(%esp),%eax
c010709b:	8b 14 c5 64 80 12 c0 	mov    -0x3fed7f9c(,%eax,8),%edx
c01070a2:	8b 04 c5 60 80 12 c0 	mov    -0x3fed7fa0(,%eax,8),%eax
c01070a9:	89 c2                	mov    %eax,%edx
c01070ab:	b8 00 00 00 00       	mov    $0x0,%eax
c01070b0:	8b 74 24 30          	mov    0x30(%esp),%esi
c01070b4:	89 04 f5 60 80 12 c0 	mov    %eax,-0x3fed7fa0(,%esi,8)
c01070bb:	89 14 f5 64 80 12 c0 	mov    %edx,-0x3fed7f9c(,%esi,8)
c01070c2:	8b 44 24 30          	mov    0x30(%esp),%eax
c01070c6:	8b 14 c5 64 80 12 c0 	mov    -0x3fed7f9c(,%eax,8),%edx
c01070cd:	8b 04 c5 60 80 12 c0 	mov    -0x3fed7fa0(,%eax,8),%eax
c01070d4:	0f b7 74 24 04       	movzwl 0x4(%esp),%esi
c01070d9:	c1 e6 10             	shl    $0x10,%esi
c01070dc:	89 f7                	mov    %esi,%edi
c01070de:	8b 74 24 14          	mov    0x14(%esp),%esi
c01070e2:	0f b7 f6             	movzwl %si,%esi
c01070e5:	09 fe                	or     %edi,%esi
c01070e7:	bf 00 00 00 00       	mov    $0x0,%edi
c01070ec:	89 c5                	mov    %eax,%ebp
c01070ee:	09 f5                	or     %esi,%ebp
c01070f0:	89 e9                	mov    %ebp,%ecx
c01070f2:	89 d0                	mov    %edx,%eax
c01070f4:	09 f8                	or     %edi,%eax
c01070f6:	89 c3                	mov    %eax,%ebx
c01070f8:	8b 44 24 30          	mov    0x30(%esp),%eax
c01070fc:	89 0c c5 60 80 12 c0 	mov    %ecx,-0x3fed7fa0(,%eax,8)
c0107103:	89 1c c5 64 80 12 c0 	mov    %ebx,-0x3fed7f9c(,%eax,8)
c010710a:	90                   	nop
c010710b:	83 c4 1c             	add    $0x1c,%esp
c010710e:	5b                   	pop    %ebx
c010710f:	5e                   	pop    %esi
c0107110:	5f                   	pop    %edi
c0107111:	5d                   	pop    %ebp
c0107112:	c3                   	ret    

c0107113 <_init_idt>:
c0107113:	83 ec 04             	sub    $0x4,%esp
c0107116:	6a 00                	push   $0x0
c0107118:	68 bf 6e 10 c0       	push   $0xc0106ebf
c010711d:	6a 08                	push   $0x8
c010711f:	6a 00                	push   $0x0
c0107121:	e8 1e ff ff ff       	call   c0107044 <_set_idt_entry>
c0107126:	83 c4 10             	add    $0x10,%esp
c0107129:	90                   	nop
c010712a:	83 c4 04             	add    $0x4,%esp
c010712d:	c3                   	ret    

c010712e <cpu_get_model>:
c010712e:	83 ec 10             	sub    $0x10,%esp
c0107131:	8b 44 24 14          	mov    0x14(%esp),%eax
c0107135:	89 44 24 0c          	mov    %eax,0xc(%esp)
c0107139:	90                   	nop
c010713a:	83 c4 10             	add    $0x10,%esp
c010713d:	c3                   	ret    

c010713e <__uitoa_internal>:
c010713e:	83 ec 10             	sub    $0x10,%esp
c0107141:	c7 44 24 0c 00 00 00 	movl   $0x0,0xc(%esp)
c0107148:	00 
c0107149:	83 7c 24 14 00       	cmpl   $0x0,0x14(%esp)
c010714e:	75 4d                	jne    c010719d <__uitoa_internal+0x5f>
c0107150:	8b 44 24 18          	mov    0x18(%esp),%eax
c0107154:	c6 00 30             	movb   $0x30,(%eax)
c0107157:	83 44 24 0c 01       	addl   $0x1,0xc(%esp)
c010715c:	e9 a7 00 00 00       	jmp    c0107208 <__uitoa_internal+0xca>
c0107161:	8b 4c 24 1c          	mov    0x1c(%esp),%ecx
c0107165:	8b 44 24 14          	mov    0x14(%esp),%eax
c0107169:	ba 00 00 00 00       	mov    $0x0,%edx
c010716e:	f7 f1                	div    %ecx
c0107170:	89 d0                	mov    %edx,%eax
c0107172:	8b 4c 24 18          	mov    0x18(%esp),%ecx
c0107176:	8b 54 24 0c          	mov    0xc(%esp),%edx
c010717a:	01 ca                	add    %ecx,%edx
c010717c:	0f b6 80 20 90 12 c0 	movzbl -0x3fed6fe0(%eax),%eax
c0107183:	88 02                	mov    %al,(%edx)
c0107185:	8b 4c 24 1c          	mov    0x1c(%esp),%ecx
c0107189:	8b 44 24 14          	mov    0x14(%esp),%eax
c010718d:	ba 00 00 00 00       	mov    $0x0,%edx
c0107192:	f7 f1                	div    %ecx
c0107194:	89 44 24 14          	mov    %eax,0x14(%esp)
c0107198:	83 44 24 0c 01       	addl   $0x1,0xc(%esp)
c010719d:	83 7c 24 14 00       	cmpl   $0x0,0x14(%esp)
c01071a2:	75 bd                	jne    c0107161 <__uitoa_internal+0x23>
c01071a4:	c7 44 24 08 00 00 00 	movl   $0x0,0x8(%esp)
c01071ab:	00 
c01071ac:	eb 4e                	jmp    c01071fc <__uitoa_internal+0xbe>
c01071ae:	8b 54 24 18          	mov    0x18(%esp),%edx
c01071b2:	8b 44 24 08          	mov    0x8(%esp),%eax
c01071b6:	01 d0                	add    %edx,%eax
c01071b8:	0f b6 00             	movzbl (%eax),%eax
c01071bb:	88 44 24 07          	mov    %al,0x7(%esp)
c01071bf:	8b 44 24 0c          	mov    0xc(%esp),%eax
c01071c3:	2b 44 24 08          	sub    0x8(%esp),%eax
c01071c7:	8d 50 ff             	lea    -0x1(%eax),%edx
c01071ca:	8b 44 24 18          	mov    0x18(%esp),%eax
c01071ce:	01 d0                	add    %edx,%eax
c01071d0:	8b 4c 24 18          	mov    0x18(%esp),%ecx
c01071d4:	8b 54 24 08          	mov    0x8(%esp),%edx
c01071d8:	01 ca                	add    %ecx,%edx
c01071da:	0f b6 00             	movzbl (%eax),%eax
c01071dd:	88 02                	mov    %al,(%edx)
c01071df:	8b 44 24 0c          	mov    0xc(%esp),%eax
c01071e3:	2b 44 24 08          	sub    0x8(%esp),%eax
c01071e7:	8d 50 ff             	lea    -0x1(%eax),%edx
c01071ea:	8b 44 24 18          	mov    0x18(%esp),%eax
c01071ee:	01 c2                	add    %eax,%edx
c01071f0:	0f b6 44 24 07       	movzbl 0x7(%esp),%eax
c01071f5:	88 02                	mov    %al,(%edx)
c01071f7:	83 44 24 08 01       	addl   $0x1,0x8(%esp)
c01071fc:	8b 44 24 0c          	mov    0xc(%esp),%eax
c0107200:	d1 e8                	shr    %eax
c0107202:	39 44 24 08          	cmp    %eax,0x8(%esp)
c0107206:	72 a6                	jb     c01071ae <__uitoa_internal+0x70>
c0107208:	8b 54 24 18          	mov    0x18(%esp),%edx
c010720c:	8b 44 24 0c          	mov    0xc(%esp),%eax
c0107210:	01 d0                	add    %edx,%eax
c0107212:	c6 00 00             	movb   $0x0,(%eax)
c0107215:	83 7c 24 20 00       	cmpl   $0x0,0x20(%esp)
c010721a:	74 0a                	je     c0107226 <__uitoa_internal+0xe8>
c010721c:	8b 44 24 20          	mov    0x20(%esp),%eax
c0107220:	8b 54 24 0c          	mov    0xc(%esp),%edx
c0107224:	89 10                	mov    %edx,(%eax)
c0107226:	8b 44 24 18          	mov    0x18(%esp),%eax
c010722a:	83 c4 10             	add    $0x10,%esp
c010722d:	c3                   	ret    

c010722e <__itoa_internal>:
c010722e:	83 ec 10             	sub    $0x10,%esp
c0107231:	83 7c 24 14 00       	cmpl   $0x0,0x14(%esp)
c0107236:	79 36                	jns    c010726e <__itoa_internal+0x40>
c0107238:	83 7c 24 1c 0a       	cmpl   $0xa,0x1c(%esp)
c010723d:	75 2f                	jne    c010726e <__itoa_internal+0x40>
c010723f:	8b 44 24 18          	mov    0x18(%esp),%eax
c0107243:	c6 00 2d             	movb   $0x2d,(%eax)
c0107246:	8b 44 24 14          	mov    0x14(%esp),%eax
c010724a:	f7 d8                	neg    %eax
c010724c:	89 44 24 0c          	mov    %eax,0xc(%esp)
c0107250:	8b 44 24 18          	mov    0x18(%esp),%eax
c0107254:	83 c0 01             	add    $0x1,%eax
c0107257:	ff 74 24 20          	push   0x20(%esp)
c010725b:	ff 74 24 20          	push   0x20(%esp)
c010725f:	50                   	push   %eax
c0107260:	ff 74 24 18          	push   0x18(%esp)
c0107264:	e8 d5 fe ff ff       	call   c010713e <__uitoa_internal>
c0107269:	83 c4 10             	add    $0x10,%esp
c010726c:	eb 19                	jmp    c0107287 <__itoa_internal+0x59>
c010726e:	8b 44 24 14          	mov    0x14(%esp),%eax
c0107272:	ff 74 24 20          	push   0x20(%esp)
c0107276:	ff 74 24 20          	push   0x20(%esp)
c010727a:	ff 74 24 20          	push   0x20(%esp)
c010727e:	50                   	push   %eax
c010727f:	e8 ba fe ff ff       	call   c010713e <__uitoa_internal>
c0107284:	83 c4 10             	add    $0x10,%esp
c0107287:	8b 44 24 18          	mov    0x18(%esp),%eax
c010728b:	83 c4 10             	add    $0x10,%esp
c010728e:	c3                   	ret    

c010728f <itoa>:
c010728f:	6a 00                	push   $0x0
c0107291:	ff 74 24 10          	push   0x10(%esp)
c0107295:	ff 74 24 10          	push   0x10(%esp)
c0107299:	ff 74 24 10          	push   0x10(%esp)
c010729d:	e8 8c ff ff ff       	call   c010722e <__itoa_internal>
c01072a2:	83 c4 10             	add    $0x10,%esp
c01072a5:	c3                   	ret    

c01072a6 <strcpy>:
c01072a6:	83 ec 10             	sub    $0x10,%esp
c01072a9:	c7 44 24 0c 00 00 00 	movl   $0x0,0xc(%esp)
c01072b0:	00 
c01072b1:	eb 16                	jmp    c01072c9 <strcpy+0x23>
c01072b3:	8b 54 24 14          	mov    0x14(%esp),%edx
c01072b7:	8b 44 24 0c          	mov    0xc(%esp),%eax
c01072bb:	01 c2                	add    %eax,%edx
c01072bd:	0f b6 44 24 0b       	movzbl 0xb(%esp),%eax
c01072c2:	88 02                	mov    %al,(%edx)
c01072c4:	83 44 24 0c 01       	addl   $0x1,0xc(%esp)
c01072c9:	8b 54 24 18          	mov    0x18(%esp),%edx
c01072cd:	8b 44 24 0c          	mov    0xc(%esp),%eax
c01072d1:	01 d0                	add    %edx,%eax
c01072d3:	0f b6 00             	movzbl (%eax),%eax
c01072d6:	88 44 24 0b          	mov    %al,0xb(%esp)
c01072da:	80 7c 24 0b 00       	cmpb   $0x0,0xb(%esp)
c01072df:	75 d2                	jne    c01072b3 <strcpy+0xd>
c01072e1:	8b 54 24 14          	mov    0x14(%esp),%edx
c01072e5:	8b 44 24 0c          	mov    0xc(%esp),%eax
c01072e9:	01 d0                	add    %edx,%eax
c01072eb:	c6 00 00             	movb   $0x0,(%eax)
c01072ee:	8b 44 24 14          	mov    0x14(%esp),%eax
c01072f2:	83 c4 10             	add    $0x10,%esp
c01072f5:	c3                   	ret    

c01072f6 <strlen>:
c01072f6:	83 ec 10             	sub    $0x10,%esp
c01072f9:	c7 44 24 0c 00 00 00 	movl   $0x0,0xc(%esp)
c0107300:	00 
c0107301:	eb 05                	jmp    c0107308 <strlen+0x12>
c0107303:	83 44 24 0c 01       	addl   $0x1,0xc(%esp)
c0107308:	8b 54 24 14          	mov    0x14(%esp),%edx
c010730c:	8b 44 24 0c          	mov    0xc(%esp),%eax
c0107310:	01 d0                	add    %edx,%eax
c0107312:	0f b6 00             	movzbl (%eax),%eax
c0107315:	84 c0                	test   %al,%al
c0107317:	75 ea                	jne    c0107303 <strlen+0xd>
c0107319:	8b 44 24 0c          	mov    0xc(%esp),%eax
c010731d:	83 c4 10             	add    $0x10,%esp
c0107320:	c3                   	ret    

c0107321 <memcpy>:
c0107321:	83 ec 10             	sub    $0x10,%esp
c0107324:	8b 44 24 14          	mov    0x14(%esp),%eax
c0107328:	89 44 24 08          	mov    %eax,0x8(%esp)
c010732c:	8b 44 24 18          	mov    0x18(%esp),%eax
c0107330:	89 44 24 04          	mov    %eax,0x4(%esp)
c0107334:	c7 44 24 0c 00 00 00 	movl   $0x0,0xc(%esp)
c010733b:	00 
c010733c:	eb 1e                	jmp    c010735c <memcpy+0x3b>
c010733e:	8b 54 24 04          	mov    0x4(%esp),%edx
c0107342:	8b 44 24 0c          	mov    0xc(%esp),%eax
c0107346:	01 d0                	add    %edx,%eax
c0107348:	8b 4c 24 08          	mov    0x8(%esp),%ecx
c010734c:	8b 54 24 0c          	mov    0xc(%esp),%edx
c0107350:	01 ca                	add    %ecx,%edx
c0107352:	0f b6 00             	movzbl (%eax),%eax
c0107355:	88 02                	mov    %al,(%edx)
c0107357:	83 44 24 0c 01       	addl   $0x1,0xc(%esp)
c010735c:	8b 44 24 0c          	mov    0xc(%esp),%eax
c0107360:	3b 44 24 1c          	cmp    0x1c(%esp),%eax
c0107364:	72 d8                	jb     c010733e <memcpy+0x1d>
c0107366:	8b 44 24 14          	mov    0x14(%esp),%eax
c010736a:	83 c4 10             	add    $0x10,%esp
c010736d:	c3                   	ret    

c010736e <memmove>:
c010736e:	83 ec 10             	sub    $0x10,%esp
c0107371:	8b 44 24 14          	mov    0x14(%esp),%eax
c0107375:	89 44 24 04          	mov    %eax,0x4(%esp)
c0107379:	8b 44 24 18          	mov    0x18(%esp),%eax
c010737d:	89 04 24             	mov    %eax,(%esp)
c0107380:	8b 44 24 04          	mov    0x4(%esp),%eax
c0107384:	3b 04 24             	cmp    (%esp),%eax
c0107387:	73 33                	jae    c01073bc <memmove+0x4e>
c0107389:	c7 44 24 0c 00 00 00 	movl   $0x0,0xc(%esp)
c0107390:	00 
c0107391:	eb 1d                	jmp    c01073b0 <memmove+0x42>
c0107393:	8b 14 24             	mov    (%esp),%edx
c0107396:	8b 44 24 0c          	mov    0xc(%esp),%eax
c010739a:	01 d0                	add    %edx,%eax
c010739c:	8b 4c 24 04          	mov    0x4(%esp),%ecx
c01073a0:	8b 54 24 0c          	mov    0xc(%esp),%edx
c01073a4:	01 ca                	add    %ecx,%edx
c01073a6:	0f b6 00             	movzbl (%eax),%eax
c01073a9:	88 02                	mov    %al,(%edx)
c01073ab:	83 44 24 0c 01       	addl   $0x1,0xc(%esp)
c01073b0:	8b 44 24 0c          	mov    0xc(%esp),%eax
c01073b4:	3b 44 24 1c          	cmp    0x1c(%esp),%eax
c01073b8:	72 d9                	jb     c0107393 <memmove+0x25>
c01073ba:	eb 34                	jmp    c01073f0 <memmove+0x82>
c01073bc:	8b 44 24 1c          	mov    0x1c(%esp),%eax
c01073c0:	89 44 24 08          	mov    %eax,0x8(%esp)
c01073c4:	eb 23                	jmp    c01073e9 <memmove+0x7b>
c01073c6:	8b 44 24 08          	mov    0x8(%esp),%eax
c01073ca:	8d 50 ff             	lea    -0x1(%eax),%edx
c01073cd:	8b 04 24             	mov    (%esp),%eax
c01073d0:	01 d0                	add    %edx,%eax
c01073d2:	8b 54 24 08          	mov    0x8(%esp),%edx
c01073d6:	8d 4a ff             	lea    -0x1(%edx),%ecx
c01073d9:	8b 54 24 04          	mov    0x4(%esp),%edx
c01073dd:	01 ca                	add    %ecx,%edx
c01073df:	0f b6 00             	movzbl (%eax),%eax
c01073e2:	88 02                	mov    %al,(%edx)
c01073e4:	83 6c 24 08 01       	subl   $0x1,0x8(%esp)
c01073e9:	83 7c 24 08 00       	cmpl   $0x0,0x8(%esp)
c01073ee:	75 d6                	jne    c01073c6 <memmove+0x58>
c01073f0:	8b 44 24 14          	mov    0x14(%esp),%eax
c01073f4:	83 c4 10             	add    $0x10,%esp
c01073f7:	c3                   	ret    

c01073f8 <memset>:
c01073f8:	83 ec 10             	sub    $0x10,%esp
c01073fb:	8b 44 24 14          	mov    0x14(%esp),%eax
c01073ff:	89 44 24 08          	mov    %eax,0x8(%esp)
c0107403:	c7 44 24 0c 00 00 00 	movl   $0x0,0xc(%esp)
c010740a:	00 
c010740b:	eb 15                	jmp    c0107422 <memset+0x2a>
c010740d:	8b 54 24 08          	mov    0x8(%esp),%edx
c0107411:	8b 44 24 0c          	mov    0xc(%esp),%eax
c0107415:	01 d0                	add    %edx,%eax
c0107417:	8b 54 24 18          	mov    0x18(%esp),%edx
c010741b:	88 10                	mov    %dl,(%eax)
c010741d:	83 44 24 0c 01       	addl   $0x1,0xc(%esp)
c0107422:	8b 44 24 0c          	mov    0xc(%esp),%eax
c0107426:	3b 44 24 1c          	cmp    0x1c(%esp),%eax
c010742a:	72 e1                	jb     c010740d <memset+0x15>
c010742c:	8b 44 24 14          	mov    0x14(%esp),%eax
c0107430:	83 c4 10             	add    $0x10,%esp
c0107433:	c3                   	ret    

c0107434 <memcmp>:
c0107434:	83 ec 10             	sub    $0x10,%esp
c0107437:	8b 44 24 14          	mov    0x14(%esp),%eax
c010743b:	89 44 24 08          	mov    %eax,0x8(%esp)
c010743f:	8b 44 24 18          	mov    0x18(%esp),%eax
c0107443:	89 44 24 04          	mov    %eax,0x4(%esp)
c0107447:	c7 44 24 0c 00 00 00 	movl   $0x0,0xc(%esp)
c010744e:	00 
c010744f:	eb 35                	jmp    c0107486 <memcmp+0x52>
c0107451:	8b 54 24 08          	mov    0x8(%esp),%edx
c0107455:	8b 44 24 0c          	mov    0xc(%esp),%eax
c0107459:	01 d0                	add    %edx,%eax
c010745b:	0f b6 00             	movzbl (%eax),%eax
c010745e:	0f b6 c0             	movzbl %al,%eax
c0107461:	8b 4c 24 04          	mov    0x4(%esp),%ecx
c0107465:	8b 54 24 0c          	mov    0xc(%esp),%edx
c0107469:	01 ca                	add    %ecx,%edx
c010746b:	0f b6 12             	movzbl (%edx),%edx
c010746e:	0f b6 d2             	movzbl %dl,%edx
c0107471:	29 d0                	sub    %edx,%eax
c0107473:	89 04 24             	mov    %eax,(%esp)
c0107476:	83 3c 24 00          	cmpl   $0x0,(%esp)
c010747a:	74 05                	je     c0107481 <memcmp+0x4d>
c010747c:	8b 04 24             	mov    (%esp),%eax
c010747f:	eb 14                	jmp    c0107495 <memcmp+0x61>
c0107481:	83 44 24 0c 01       	addl   $0x1,0xc(%esp)
c0107486:	8b 44 24 0c          	mov    0xc(%esp),%eax
c010748a:	3b 44 24 1c          	cmp    0x1c(%esp),%eax
c010748e:	72 c1                	jb     c0107451 <memcmp+0x1d>
c0107490:	b8 00 00 00 00       	mov    $0x0,%eax
c0107495:	83 c4 10             	add    $0x10,%esp
c0107498:	c3                   	ret    

c0107499 <__sprintf_internal>:
c0107499:	83 ec 3c             	sub    $0x3c,%esp
c010749c:	c7 44 24 2c 00 00 00 	movl   $0x0,0x2c(%esp)
c01074a3:	00 
c01074a4:	c7 44 24 0c 00 00 00 	movl   $0x0,0xc(%esp)
c01074ab:	00 
c01074ac:	e9 89 02 00 00       	jmp    c010773a <__sprintf_internal+0x2a1>
c01074b1:	80 7c 24 27 25       	cmpb   $0x25,0x27(%esp)
c01074b6:	74 1e                	je     c01074d6 <__sprintf_internal+0x3d>
c01074b8:	8b 54 24 40          	mov    0x40(%esp),%edx
c01074bc:	8b 44 24 2c          	mov    0x2c(%esp),%eax
c01074c0:	01 c2                	add    %eax,%edx
c01074c2:	0f b6 44 24 27       	movzbl 0x27(%esp),%eax
c01074c7:	88 02                	mov    %al,(%edx)
c01074c9:	c7 44 24 0c 01 00 00 	movl   $0x1,0xc(%esp)
c01074d0:	00 
c01074d1:	e9 57 02 00 00       	jmp    c010772d <__sprintf_internal+0x294>
c01074d6:	c7 44 24 0c 00 00 00 	movl   $0x0,0xc(%esp)
c01074dd:	00 
c01074de:	83 44 24 44 01       	addl   $0x1,0x44(%esp)
c01074e3:	8b 44 24 44          	mov    0x44(%esp),%eax
c01074e7:	0f b6 00             	movzbl (%eax),%eax
c01074ea:	88 44 24 27          	mov    %al,0x27(%esp)
c01074ee:	0f be 44 24 27       	movsbl 0x27(%esp),%eax
c01074f3:	83 f8 25             	cmp    $0x25,%eax
c01074f6:	0f 84 12 02 00 00    	je     c010770e <__sprintf_internal+0x275>
c01074fc:	83 f8 25             	cmp    $0x25,%eax
c01074ff:	0f 8c 24 02 00 00    	jl     c0107729 <__sprintf_internal+0x290>
c0107505:	83 f8 78             	cmp    $0x78,%eax
c0107508:	0f 8f 1b 02 00 00    	jg     c0107729 <__sprintf_internal+0x290>
c010750e:	83 f8 58             	cmp    $0x58,%eax
c0107511:	0f 8c 12 02 00 00    	jl     c0107729 <__sprintf_internal+0x290>
c0107517:	83 e8 58             	sub    $0x58,%eax
c010751a:	83 f8 20             	cmp    $0x20,%eax
c010751d:	0f 87 06 02 00 00    	ja     c0107729 <__sprintf_internal+0x290>
c0107523:	8b 04 85 34 a2 12 c0 	mov    -0x3fed5dcc(,%eax,4),%eax
c010752a:	ff e0                	jmp    *%eax
c010752c:	8b 44 24 48          	mov    0x48(%esp),%eax
c0107530:	8d 50 04             	lea    0x4(%eax),%edx
c0107533:	89 54 24 48          	mov    %edx,0x48(%esp)
c0107537:	8b 10                	mov    (%eax),%edx
c0107539:	8b 4c 24 40          	mov    0x40(%esp),%ecx
c010753d:	8b 44 24 2c          	mov    0x2c(%esp),%eax
c0107541:	01 c8                	add    %ecx,%eax
c0107543:	88 10                	mov    %dl,(%eax)
c0107545:	c7 44 24 0c 01 00 00 	movl   $0x1,0xc(%esp)
c010754c:	00 
c010754d:	e9 db 01 00 00       	jmp    c010772d <__sprintf_internal+0x294>
c0107552:	8b 44 24 48          	mov    0x48(%esp),%eax
c0107556:	8d 50 04             	lea    0x4(%eax),%edx
c0107559:	89 54 24 48          	mov    %edx,0x48(%esp)
c010755d:	8b 00                	mov    (%eax),%eax
c010755f:	89 44 24 1c          	mov    %eax,0x1c(%esp)
c0107563:	8b 54 24 40          	mov    0x40(%esp),%edx
c0107567:	8b 44 24 2c          	mov    0x2c(%esp),%eax
c010756b:	01 d0                	add    %edx,%eax
c010756d:	83 ec 08             	sub    $0x8,%esp
c0107570:	ff 74 24 24          	push   0x24(%esp)
c0107574:	50                   	push   %eax
c0107575:	e8 2c fd ff ff       	call   c01072a6 <strcpy>
c010757a:	83 c4 10             	add    $0x10,%esp
c010757d:	83 ec 0c             	sub    $0xc,%esp
c0107580:	ff 74 24 28          	push   0x28(%esp)
c0107584:	e8 6d fd ff ff       	call   c01072f6 <strlen>
c0107589:	83 c4 10             	add    $0x10,%esp
c010758c:	89 44 24 0c          	mov    %eax,0xc(%esp)
c0107590:	e9 98 01 00 00       	jmp    c010772d <__sprintf_internal+0x294>
c0107595:	8b 44 24 48          	mov    0x48(%esp),%eax
c0107599:	8d 50 04             	lea    0x4(%eax),%edx
c010759c:	89 54 24 48          	mov    %edx,0x48(%esp)
c01075a0:	8b 00                	mov    (%eax),%eax
c01075a2:	89 44 24 14          	mov    %eax,0x14(%esp)
c01075a6:	8b 54 24 40          	mov    0x40(%esp),%edx
c01075aa:	8b 44 24 2c          	mov    0x2c(%esp),%eax
c01075ae:	01 c2                	add    %eax,%edx
c01075b0:	8d 44 24 0c          	lea    0xc(%esp),%eax
c01075b4:	50                   	push   %eax
c01075b5:	6a 0a                	push   $0xa
c01075b7:	52                   	push   %edx
c01075b8:	ff 74 24 20          	push   0x20(%esp)
c01075bc:	e8 6d fc ff ff       	call   c010722e <__itoa_internal>
c01075c1:	83 c4 10             	add    $0x10,%esp
c01075c4:	e9 64 01 00 00       	jmp    c010772d <__sprintf_internal+0x294>
c01075c9:	8b 44 24 48          	mov    0x48(%esp),%eax
c01075cd:	8d 50 04             	lea    0x4(%eax),%edx
c01075d0:	89 54 24 48          	mov    %edx,0x48(%esp)
c01075d4:	8b 00                	mov    (%eax),%eax
c01075d6:	89 44 24 20          	mov    %eax,0x20(%esp)
c01075da:	8b 54 24 40          	mov    0x40(%esp),%edx
c01075de:	8b 44 24 2c          	mov    0x2c(%esp),%eax
c01075e2:	01 c2                	add    %eax,%edx
c01075e4:	8d 44 24 0c          	lea    0xc(%esp),%eax
c01075e8:	50                   	push   %eax
c01075e9:	6a 0a                	push   $0xa
c01075eb:	52                   	push   %edx
c01075ec:	ff 74 24 2c          	push   0x2c(%esp)
c01075f0:	e8 49 fb ff ff       	call   c010713e <__uitoa_internal>
c01075f5:	83 c4 10             	add    $0x10,%esp
c01075f8:	e9 30 01 00 00       	jmp    c010772d <__sprintf_internal+0x294>
c01075fd:	8b 44 24 48          	mov    0x48(%esp),%eax
c0107601:	8d 50 04             	lea    0x4(%eax),%edx
c0107604:	89 54 24 48          	mov    %edx,0x48(%esp)
c0107608:	8b 00                	mov    (%eax),%eax
c010760a:	89 44 24 14          	mov    %eax,0x14(%esp)
c010760e:	8b 54 24 40          	mov    0x40(%esp),%edx
c0107612:	8b 44 24 2c          	mov    0x2c(%esp),%eax
c0107616:	01 c2                	add    %eax,%edx
c0107618:	8d 44 24 0c          	lea    0xc(%esp),%eax
c010761c:	50                   	push   %eax
c010761d:	6a 08                	push   $0x8
c010761f:	52                   	push   %edx
c0107620:	ff 74 24 20          	push   0x20(%esp)
c0107624:	e8 05 fc ff ff       	call   c010722e <__itoa_internal>
c0107629:	83 c4 10             	add    $0x10,%esp
c010762c:	e9 fc 00 00 00       	jmp    c010772d <__sprintf_internal+0x294>
c0107631:	8b 44 24 48          	mov    0x48(%esp),%eax
c0107635:	8d 50 04             	lea    0x4(%eax),%edx
c0107638:	89 54 24 48          	mov    %edx,0x48(%esp)
c010763c:	8b 00                	mov    (%eax),%eax
c010763e:	89 44 24 14          	mov    %eax,0x14(%esp)
c0107642:	8b 54 24 40          	mov    0x40(%esp),%edx
c0107646:	8b 44 24 2c          	mov    0x2c(%esp),%eax
c010764a:	01 c2                	add    %eax,%edx
c010764c:	8d 44 24 0c          	lea    0xc(%esp),%eax
c0107650:	50                   	push   %eax
c0107651:	6a 10                	push   $0x10
c0107653:	52                   	push   %edx
c0107654:	ff 74 24 20          	push   0x20(%esp)
c0107658:	e8 d1 fb ff ff       	call   c010722e <__itoa_internal>
c010765d:	83 c4 10             	add    $0x10,%esp
c0107660:	80 7c 24 27 58       	cmpb   $0x58,0x27(%esp)
c0107665:	0f 85 c1 00 00 00    	jne    c010772c <__sprintf_internal+0x293>
c010766b:	8b 44 24 2c          	mov    0x2c(%esp),%eax
c010766f:	89 44 24 28          	mov    %eax,0x28(%esp)
c0107673:	eb 21                	jmp    c0107696 <__sprintf_internal+0x1fd>
c0107675:	0f be 44 24 13       	movsbl 0x13(%esp),%eax
c010767a:	d1 f8                	sar    %eax
c010767c:	83 e0 20             	and    $0x20,%eax
c010767f:	f7 d0                	not    %eax
c0107681:	8b 4c 24 28          	mov    0x28(%esp),%ecx
c0107685:	8b 54 24 40          	mov    0x40(%esp),%edx
c0107689:	01 ca                	add    %ecx,%edx
c010768b:	22 44 24 13          	and    0x13(%esp),%al
c010768f:	88 02                	mov    %al,(%edx)
c0107691:	83 44 24 28 01       	addl   $0x1,0x28(%esp)
c0107696:	8b 54 24 28          	mov    0x28(%esp),%edx
c010769a:	8b 44 24 40          	mov    0x40(%esp),%eax
c010769e:	01 d0                	add    %edx,%eax
c01076a0:	0f b6 00             	movzbl (%eax),%eax
c01076a3:	88 44 24 13          	mov    %al,0x13(%esp)
c01076a7:	80 7c 24 13 00       	cmpb   $0x0,0x13(%esp)
c01076ac:	75 c7                	jne    c0107675 <__sprintf_internal+0x1dc>
c01076ae:	eb 7c                	jmp    c010772c <__sprintf_internal+0x293>
c01076b0:	8b 44 24 48          	mov    0x48(%esp),%eax
c01076b4:	8d 50 04             	lea    0x4(%eax),%edx
c01076b7:	89 54 24 48          	mov    %edx,0x48(%esp)
c01076bb:	8b 00                	mov    (%eax),%eax
c01076bd:	89 44 24 18          	mov    %eax,0x18(%esp)
c01076c1:	8b 54 24 40          	mov    0x40(%esp),%edx
c01076c5:	8b 44 24 2c          	mov    0x2c(%esp),%eax
c01076c9:	01 d0                	add    %edx,%eax
c01076cb:	c6 00 30             	movb   $0x30,(%eax)
c01076ce:	8b 44 24 2c          	mov    0x2c(%esp),%eax
c01076d2:	8d 50 01             	lea    0x1(%eax),%edx
c01076d5:	8b 44 24 40          	mov    0x40(%esp),%eax
c01076d9:	01 d0                	add    %edx,%eax
c01076db:	c6 00 78             	movb   $0x78,(%eax)
c01076de:	8b 44 24 2c          	mov    0x2c(%esp),%eax
c01076e2:	8d 50 02             	lea    0x2(%eax),%edx
c01076e5:	8b 44 24 40          	mov    0x40(%esp),%eax
c01076e9:	8d 0c 02             	lea    (%edx,%eax,1),%ecx
c01076ec:	8b 44 24 18          	mov    0x18(%esp),%eax
c01076f0:	8d 54 24 0c          	lea    0xc(%esp),%edx
c01076f4:	52                   	push   %edx
c01076f5:	6a 10                	push   $0x10
c01076f7:	51                   	push   %ecx
c01076f8:	50                   	push   %eax
c01076f9:	e8 30 fb ff ff       	call   c010722e <__itoa_internal>
c01076fe:	83 c4 10             	add    $0x10,%esp
c0107701:	8b 44 24 0c          	mov    0xc(%esp),%eax
c0107705:	83 c0 02             	add    $0x2,%eax
c0107708:	89 44 24 0c          	mov    %eax,0xc(%esp)
c010770c:	eb 1f                	jmp    c010772d <__sprintf_internal+0x294>
c010770e:	8b 54 24 40          	mov    0x40(%esp),%edx
c0107712:	8b 44 24 2c          	mov    0x2c(%esp),%eax
c0107716:	01 c2                	add    %eax,%edx
c0107718:	0f b6 44 24 27       	movzbl 0x27(%esp),%eax
c010771d:	88 02                	mov    %al,(%edx)
c010771f:	c7 44 24 0c 01 00 00 	movl   $0x1,0xc(%esp)
c0107726:	00 
c0107727:	eb 04                	jmp    c010772d <__sprintf_internal+0x294>
c0107729:	90                   	nop
c010772a:	eb 01                	jmp    c010772d <__sprintf_internal+0x294>
c010772c:	90                   	nop
c010772d:	83 44 24 44 01       	addl   $0x1,0x44(%esp)
c0107732:	8b 44 24 0c          	mov    0xc(%esp),%eax
c0107736:	01 44 24 2c          	add    %eax,0x2c(%esp)
c010773a:	8b 44 24 44          	mov    0x44(%esp),%eax
c010773e:	0f b6 00             	movzbl (%eax),%eax
c0107741:	88 44 24 27          	mov    %al,0x27(%esp)
c0107745:	80 7c 24 27 00       	cmpb   $0x0,0x27(%esp)
c010774a:	0f 85 61 fd ff ff    	jne    c01074b1 <__sprintf_internal+0x18>
c0107750:	8b 54 24 40          	mov    0x40(%esp),%edx
c0107754:	8b 44 24 2c          	mov    0x2c(%esp),%eax
c0107758:	01 d0                	add    %edx,%eax
c010775a:	c6 00 00             	movb   $0x0,(%eax)
c010775d:	90                   	nop
c010775e:	83 c4 3c             	add    $0x3c,%esp
c0107761:	c3                   	ret    

c0107762 <sprintf>:
c0107762:	83 ec 1c             	sub    $0x1c,%esp
c0107765:	8d 44 24 28          	lea    0x28(%esp),%eax
c0107769:	89 44 24 0c          	mov    %eax,0xc(%esp)
c010776d:	8b 44 24 0c          	mov    0xc(%esp),%eax
c0107771:	83 ec 04             	sub    $0x4,%esp
c0107774:	50                   	push   %eax
c0107775:	ff 74 24 2c          	push   0x2c(%esp)
c0107779:	ff 74 24 2c          	push   0x2c(%esp)
c010777d:	e8 17 fd ff ff       	call   c0107499 <__sprintf_internal>
c0107782:	83 c4 10             	add    $0x10,%esp
c0107785:	90                   	nop
c0107786:	83 c4 1c             	add    $0x1c,%esp
c0107789:	c3                   	ret    

c010778a <printf>:
c010778a:	81 ec 1c 04 00 00    	sub    $0x41c,%esp
c0107790:	8d 84 24 24 04 00 00 	lea    0x424(%esp),%eax
c0107797:	89 44 24 0c          	mov    %eax,0xc(%esp)
c010779b:	8b 44 24 0c          	mov    0xc(%esp),%eax
c010779f:	83 ec 04             	sub    $0x4,%esp
c01077a2:	50                   	push   %eax
c01077a3:	ff b4 24 28 04 00 00 	push   0x428(%esp)
c01077aa:	8d 44 24 1c          	lea    0x1c(%esp),%eax
c01077ae:	50                   	push   %eax
c01077af:	e8 e5 fc ff ff       	call   c0107499 <__sprintf_internal>
c01077b4:	83 c4 10             	add    $0x10,%esp
c01077b7:	83 ec 0c             	sub    $0xc,%esp
c01077ba:	8d 44 24 1c          	lea    0x1c(%esp),%eax
c01077be:	50                   	push   %eax
c01077bf:	e8 87 f5 ff ff       	call   c0106d4b <tty_put_str>
c01077c4:	83 c4 10             	add    $0x10,%esp
c01077c7:	90                   	nop
c01077c8:	81 c4 1c 04 00 00    	add    $0x41c,%esp
c01077ce:	c3                   	ret    

Disassembly of section .bss:

c0108000 <pm_bitmap>:
	...

c0128000 <max_pg>:
c0128000:	00 00                	add    %al,(%eax)
	...

c0128004 <pg_lookup_ptr>:
c0128004:	00 00                	add    %al,(%eax)
	...

c0128008 <tty_theme_color>:
c0128008:	00 00                	add    %al,(%eax)
	...

c012800c <tty_x>:
c012800c:	00 00                	add    %al,(%eax)
	...

c0128010 <tty_y>:
	...

c0128020 <_gdt>:
	...

c0128060 <_idt>:
	...

Disassembly of section .data:

c0129000 <tty_vga_buffer>:
c0129000:	00 80 0b 00      	add    %al,0x27000b(%eax)

c0129004 <_gdt_limit>:
c0129004:	27                   	daa    
	...

c0129006 <_idt_limit>:
c0129006:	ff 00                	incl   (%eax)
	...

c0129020 <base_char>:
c0129020:	30 31                	xor    %dh,(%ecx)
c0129022:	32 33                	xor    (%ebx),%dh
c0129024:	34 35                	xor    $0x35,%al
c0129026:	36 37                	ss aaa 
c0129028:	38 39                	cmp    %bh,(%ecx)
c012902a:	61                   	popa   
c012902b:	62 63 64             	bound  %esp,0x64(%ebx)
c012902e:	65 66 67 68 69 6a    	gs addr16 pushw $0x6a69
c0129034:	6b 6c 6d 6e 6f       	imul   $0x6f,0x6e(%ebp,%ebp,2),%ebp
c0129039:	70 71                	jo     c01290ac <base_char+0x8c>
c012903b:	72 73                	jb     c01290b0 <base_char+0x90>
c012903d:	74 75                	je     c01290b4 <base_char+0x94>
c012903f:	76 77                	jbe    c01290b8 <base_char+0x98>
c0129041:	78 79                	js     c01290bc <base_char+0x9c>
c0129043:	7a 00                	jp     c0129045 <base_char+0x25>

Disassembly of section .rodata:

c012a000 <__heap_start-0x7000>:
c012a000:	5b                   	pop    %ebx
c012a001:	4b                   	dec    %ebx
c012a002:	45                   	inc    %ebp
c012a003:	52                   	push   %edx
c012a004:	4e                   	dec    %esi
c012a005:	45                   	inc    %ebp
c012a006:	4c                   	dec    %esp
c012a007:	5d                   	pop    %ebp
c012a008:	20 3d 3d 3d 20 49    	and    %bh,0x49203d3d
c012a00e:	6e                   	outsb  %ds:(%esi),(%dx)
c012a00f:	69 74 69 61 6c 69 7a 	imul   $0x617a696c,0x61(%ecx,%ebp,2),%esi
c012a016:	61 
c012a017:	74 69                	je     c012a082 <base_char+0x1062>
c012a019:	6f                   	outsl  %ds:(%esi),(%dx)
c012a01a:	6e                   	outsb  %ds:(%esi),(%dx)
c012a01b:	20 3d 3d 3d 20 0a    	and    %bh,0xa203d3d
c012a021:	00 00                	add    %al,(%eax)
c012a023:	00 5b 4d             	add    %bl,0x4d(%ebx)
c012a026:	4d                   	dec    %ebp
c012a027:	5d                   	pop    %ebp
c012a028:	20 4d 65             	and    %cl,0x65(%ebp)
c012a02b:	6d                   	insl   (%dx),%es:(%edi)
c012a02c:	3a 20                	cmp    (%eax),%ah
c012a02e:	25 64 20 4b 69       	and    $0x694b2064,%eax
c012a033:	42                   	inc    %edx
c012a034:	2c 20                	sub    $0x20,%al
c012a036:	45                   	inc    %ebp
c012a037:	78 74                	js     c012a0ad <base_char+0x108d>
c012a039:	65 6e                	outsb  %gs:(%esi),(%dx)
c012a03b:	64 65 64 20 4d 65    	fs gs and %cl,%fs:0x65(%ebp)
c012a041:	6d                   	insl   (%dx),%es:(%edi)
c012a042:	3a 20                	cmp    (%eax),%ah
c012a044:	25 64 20 4b 69       	and    $0x694b2064,%eax
c012a049:	42                   	inc    %edx
c012a04a:	0a 00                	or     (%eax),%al
c012a04c:	5b                   	pop    %ebx
c012a04d:	4d                   	dec    %ebp
c012a04e:	4d                   	dec    %ebp
c012a04f:	5d                   	pop    %ebp
c012a050:	20 42 61             	and    %al,0x61(%edx)
c012a053:	73 65                	jae    c012a0ba <base_char+0x109a>
c012a055:	3a 20                	cmp    (%eax),%ah
c012a057:	30 78 25             	xor    %bh,0x25(%eax)
c012a05a:	78 2c                	js     c012a088 <base_char+0x1068>
c012a05c:	20 6c 65 6e          	and    %ch,0x6e(%ebp,%eiz,2)
c012a060:	3a 20                	cmp    (%eax),%ah
c012a062:	25 75 20 4b 69       	and    $0x694b2075,%eax
c012a067:	42                   	inc    %edx
c012a068:	2c 20                	sub    $0x20,%al
c012a06a:	74 79                	je     c012a0e5 <base_char+0x10c5>
c012a06c:	70 65                	jo     c012a0d3 <base_char+0x10b3>
c012a06e:	3a 20                	cmp    (%eax),%ah
c012a070:	25 75 0a 00 5b       	and    $0x5b000a75,%eax
c012a075:	4d                   	dec    %ebp
c012a076:	4d                   	dec    %ebp
c012a077:	5d                   	pop    %ebp
c012a078:	20 46 72             	and    %al,0x72(%esi)
c012a07b:	65 65 64 20 25 75 20 	gs gs and %ah,%fs:0x61702075
c012a082:	70 61 
c012a084:	67 65 73 20          	addr16 gs jae c012a0a8 <base_char+0x1088>
c012a088:	73 74                	jae    c012a0fe <base_char+0x10de>
c012a08a:	61                   	popa   
c012a08b:	72 74                	jb     c012a101 <base_char+0x10e1>
c012a08d:	20 66 72             	and    %ah,0x72(%esi)
c012a090:	6f                   	outsl  %ds:(%esi),(%dx)
c012a091:	6d                   	insl   (%dx),%es:(%edi)
c012a092:	20 30                	and    %dh,(%eax)
c012a094:	78 25                	js     c012a0bb <base_char+0x109b>
c012a096:	78 0a                	js     c012a0a2 <base_char+0x1082>
c012a098:	00 00                	add    %al,(%eax)
c012a09a:	00 00                	add    %al,(%eax)
c012a09c:	5b                   	pop    %ebx
c012a09d:	4d                   	dec    %ebp
c012a09e:	4d                   	dec    %ebp
c012a09f:	5d                   	pop    %ebp
c012a0a0:	20 41 6c             	and    %al,0x6c(%ecx)
c012a0a3:	6c                   	insb   (%dx),%es:(%edi)
c012a0a4:	6f                   	outsl  %ds:(%esi),(%dx)
c012a0a5:	63 61 74             	arpl   %sp,0x74(%ecx)
c012a0a8:	65 64 20 25 64 20 70 	gs and %ah,%fs:0x61702064
c012a0af:	61 
c012a0b0:	67 65 73 20          	addr16 gs jae c012a0d4 <base_char+0x10b4>
c012a0b4:	66 6f                	outsw  %ds:(%esi),(%dx)
c012a0b6:	72 20                	jb     c012a0d8 <base_char+0x10b8>
c012a0b8:	6b 65 72 6e          	imul   $0x6e,0x72(%ebp),%esp
c012a0bc:	65 6c                	gs insb (%dx),%es:(%edi)
c012a0be:	2e 0a 00             	or     %cs:(%eax),%al
c012a0c1:	5b                   	pop    %ebx
c012a0c2:	4d                   	dec    %ebp
c012a0c3:	4d                   	dec    %ebp
c012a0c4:	5d                   	pop    %ebp
c012a0c5:	20 4d 61             	and    %cl,0x61(%ebp)
c012a0c8:	70 70                	jo     c012a13a <base_char+0x111a>
c012a0ca:	65 64 20 56 47       	gs and %dl,%fs:0x47(%esi)
c012a0cf:	41                   	inc    %ecx
c012a0d0:	20 74 6f 20          	and    %dh,0x20(%edi,%ebp,2)
c012a0d4:	25 70 2e 0a 00       	and    $0xa2e70,%eax
c012a0d9:	00 00                	add    %al,(%eax)
c012a0db:	00 5b 4d             	add    %bl,0x4d(%ebx)
c012a0de:	4d                   	dec    %ebp
c012a0df:	5d                   	pop    %ebp
c012a0e0:	20 41 6c             	and    %al,0x6c(%ecx)
c012a0e3:	6c                   	insb   (%dx),%es:(%edi)
c012a0e4:	6f                   	outsl  %ds:(%esi),(%dx)
c012a0e5:	63 61 74             	arpl   %sp,0x74(%ecx)
c012a0e8:	65 64 20 25 64 20 70 	gs and %ah,%fs:0x61702064
c012a0ef:	61 
c012a0f0:	67 65 73 20          	addr16 gs jae c012a114 <base_char+0x10f4>
c012a0f4:	66 6f                	outsw  %ds:(%esi),(%dx)
c012a0f6:	72 20                	jb     c012a118 <base_char+0x10f8>
c012a0f8:	73 74                	jae    c012a16e <base_char+0x114e>
c012a0fa:	61                   	popa   
c012a0fb:	63 6b 20             	arpl   %bp,0x20(%ebx)
c012a0fe:	73 74                	jae    c012a174 <base_char+0x1154>
c012a100:	61                   	popa   
c012a101:	72 74                	jb     c012a177 <base_char+0x1157>
c012a103:	20 61 74             	and    %ah,0x74(%ecx)
c012a106:	20 25 70 0a 00 00    	and    %ah,0xa70
c012a10c:	5b                   	pop    %ebx
c012a10d:	4b                   	dec    %ebx
c012a10e:	45                   	inc    %ebp
c012a10f:	52                   	push   %edx
c012a110:	4e                   	dec    %esi
c012a111:	45                   	inc    %ebp
c012a112:	4c                   	dec    %esp
c012a113:	5d                   	pop    %ebp
c012a114:	20 3d 3d 3d 20 49    	and    %bh,0x49203d3d
c012a11a:	6e                   	outsb  %ds:(%esi),(%dx)
c012a11b:	69 74 69 61 6c 69 7a 	imul   $0x617a696c,0x61(%ecx,%ebp,2),%esi
c012a122:	61 
c012a123:	74 69                	je     c012a18e <base_char+0x116e>
c012a125:	6f                   	outsl  %ds:(%esi),(%dx)
c012a126:	6e                   	outsb  %ds:(%esi),(%dx)
c012a127:	20 44 6f 6e          	and    %al,0x6e(%edi,%ebp,2)
c012a12b:	65 20 3d 3d 3d 20 0a 	and    %bh,%gs:0xa203d3d
c012a132:	0a 00                	or     (%eax),%al
c012a134:	5b                   	pop    %ebx
c012a135:	4b                   	dec    %ebx
c012a136:	45                   	inc    %ebp
c012a137:	52                   	push   %edx
c012a138:	4e                   	dec    %esi
c012a139:	45                   	inc    %ebp
c012a13a:	4c                   	dec    %esp
c012a13b:	5d                   	pop    %ebp
c012a13c:	20 3d 3d 3d 20 50    	and    %bh,0x50203d3d
c012a142:	6f                   	outsl  %ds:(%esi),(%dx)
c012a143:	73 74                	jae    c012a1b9 <base_char+0x1199>
c012a145:	20 49 6e             	and    %cl,0x6e(%ecx)
c012a148:	69 74 69 61 6c 69 7a 	imul   $0x617a696c,0x61(%ecx,%ebp,2),%esi
c012a14f:	61 
c012a150:	74 69                	je     c012a1bb <base_char+0x119b>
c012a152:	6f                   	outsl  %ds:(%esi),(%dx)
c012a153:	6e                   	outsb  %ds:(%esi),(%dx)
c012a154:	20 3d 3d 3d 20 0a    	and    %bh,0xa203d3d
c012a15a:	00 00                	add    %al,(%eax)
c012a15c:	5b                   	pop    %ebx
c012a15d:	4d                   	dec    %ebp
c012a15e:	4d                   	dec    %ebp
c012a15f:	5d                   	pop    %ebp
c012a160:	20 52 65             	and    %dl,0x65(%edx)
c012a163:	6c                   	insb   (%dx),%es:(%edi)
c012a164:	65 61                	gs popa 
c012a166:	73 65                	jae    c012a1cd <base_char+0x11ad>
c012a168:	69 6e 67 20 25 64 20 	imul   $0x20642520,0x67(%esi),%ebp
c012a16f:	70 61                	jo     c012a1d2 <base_char+0x11b2>
c012a171:	67 65 73 20          	addr16 gs jae c012a195 <base_char+0x1175>
c012a175:	66 72 6f             	data16 jb c012a1e7 <base_char+0x11c7>
c012a178:	6d                   	insl   (%dx),%es:(%edi)
c012a179:	20 30                	and    %dh,(%eax)
c012a17b:	78 30                	js     c012a1ad <base_char+0x118d>
c012a17d:	2e 0a 00             	or     %cs:(%eax),%al
c012a180:	5b                   	pop    %ebx
c012a181:	4b                   	dec    %ebx
c012a182:	45                   	inc    %ebp
c012a183:	52                   	push   %edx
c012a184:	4e                   	dec    %esi
c012a185:	45                   	inc    %ebp
c012a186:	4c                   	dec    %esp
c012a187:	5d                   	pop    %ebp
c012a188:	20 3d 3d 3d 20 50    	and    %bh,0x50203d3d
c012a18e:	6f                   	outsl  %ds:(%esi),(%dx)
c012a18f:	73 74                	jae    c012a205 <base_char+0x11e5>
c012a191:	20 49 6e             	and    %cl,0x6e(%ecx)
c012a194:	69 74 69 61 6c 69 7a 	imul   $0x617a696c,0x61(%ecx,%ebp,2),%esi
c012a19b:	61 
c012a19c:	74 69                	je     c012a207 <base_char+0x11e7>
c012a19e:	6f                   	outsl  %ds:(%esi),(%dx)
c012a19f:	6e                   	outsb  %ds:(%esi),(%dx)
c012a1a0:	20 44 6f 6e          	and    %al,0x6e(%edi,%ebp,2)
c012a1a4:	65 20 3d 3d 3d 20 0a 	and    %bh,%gs:0xa203d3d
c012a1ab:	0a 00                	or     (%eax),%al
c012a1ad:	00 00                	add    %al,(%eax)
c012a1af:	00 48 65             	add    %cl,0x65(%eax)
c012a1b2:	6c                   	insb   (%dx),%es:(%edi)
c012a1b3:	6c                   	insb   (%dx),%es:(%edi)
c012a1b4:	6f                   	outsl  %ds:(%esi),(%dx)
c012a1b5:	20 68 69             	and    %ch,0x69(%eax)
c012a1b8:	67 68 65 72 20 68    	addr16 push $0x68207265
c012a1be:	61                   	popa   
c012a1bf:	6c                   	insb   (%dx),%es:(%edi)
c012a1c0:	66 20 6b 65          	data16 and %ch,0x65(%ebx)
c012a1c4:	72 6e                	jb     c012a234 <base_char+0x1214>
c012a1c6:	65 6c                	gs insb (%dx),%es:(%edi)
c012a1c8:	20 77 6f             	and    %dh,0x6f(%edi)
c012a1cb:	72 6c                	jb     c012a239 <base_char+0x1219>
c012a1cd:	64 21 0a             	and    %ecx,%fs:(%edx)
c012a1d0:	57                   	push   %edi
c012a1d1:	65 20 61 72          	and    %ah,%gs:0x72(%ecx)
c012a1d5:	65 20 6e 6f          	and    %ch,%gs:0x6f(%esi)
c012a1d9:	77 20                	ja     c012a1fb <base_char+0x11db>
c012a1db:	72 75                	jb     c012a252 <base_char+0x1232>
c012a1dd:	6e                   	outsb  %ds:(%esi),(%dx)
c012a1de:	6e                   	outsb  %ds:(%esi),(%dx)
c012a1df:	69 6e 67 20 69 6e 20 	imul   $0x206e6920,0x67(%esi),%ebp
c012a1e6:	76 69                	jbe    c012a251 <base_char+0x1231>
c012a1e8:	72 74                	jb     c012a25e <base_char+0x123e>
c012a1ea:	75 61                	jne    c012a24d <base_char+0x122d>
c012a1ec:	6c                   	insb   (%dx),%es:(%edi)
c012a1ed:	20 61 64             	and    %ah,0x64(%ecx)
c012a1f0:	64 72 65             	fs jb  c012a258 <base_char+0x1238>
c012a1f3:	73 73                	jae    c012a268 <base_char+0x1248>
c012a1f5:	20 73 70             	and    %dh,0x70(%ebx)
c012a1f8:	61                   	popa   
c012a1f9:	63 65 21             	arpl   %sp,0x21(%ebp)
c012a1fc:	0a 0a                	or     (%edx),%cl
c012a1fe:	00 00                	add    %al,(%eax)
c012a200:	54                   	push   %esp
c012a201:	68 65 20 6b 65       	push   $0x656b2065
c012a206:	72 6e                	jb     c012a276 <base_char+0x1256>
c012a208:	65 6c                	gs insb (%dx),%es:(%edi)
c012a20a:	27                   	daa    
c012a20b:	73 20                	jae    c012a22d <base_char+0x120d>
c012a20d:	62 61 73             	bound  %esp,0x73(%ecx)
c012a210:	65 20 61 64          	and    %ah,%gs:0x64(%ecx)
c012a214:	64 72 65             	fs jb  c012a27c <base_char+0x125c>
c012a217:	73 73                	jae    c012a28c <base_char+0x126c>
c012a219:	20 6d 61             	and    %ch,0x61(%ebp)
c012a21c:	70 70                	jo     c012a28e <base_char+0x126e>
c012a21e:	69 6e 67 3a 20 25 70 	imul   $0x7025203a,0x67(%esi),%ebp
c012a225:	2d 3e 25 70 0a       	sub    $0xa70253e,%eax
c012a22a:	00 63 68             	add    %ah,0x68(%ebx)
c012a22d:	75 20                	jne    c012a24f <base_char+0x122f>
c012a22f:	79 69                	jns    c012a29a <base_char+0x127a>
c012a231:	20 30                	and    %dh,(%eax)
c012a233:	00 31                	add    %dh,(%ecx)
c012a235:	76 10                	jbe    c012a247 <base_char+0x1227>
c012a237:	c0 29 77             	shrb   $0x77,(%ecx)
c012a23a:	10 c0                	adc    %al,%al
c012a23c:	29 77 10             	sub    %esi,0x10(%edi)
c012a23f:	c0 29 77             	shrb   $0x77,(%ecx)
c012a242:	10 c0                	adc    %al,%al
c012a244:	29 77 10             	sub    %esi,0x10(%edi)
c012a247:	c0 29 77             	shrb   $0x77,(%ecx)
c012a24a:	10 c0                	adc    %al,%al
c012a24c:	29 77 10             	sub    %esi,0x10(%edi)
c012a24f:	c0 29 77             	shrb   $0x77,(%ecx)
c012a252:	10 c0                	adc    %al,%al
c012a254:	29 77 10             	sub    %esi,0x10(%edi)
c012a257:	c0 29 77             	shrb   $0x77,(%ecx)
c012a25a:	10 c0                	adc    %al,%al
c012a25c:	29 77 10             	sub    %esi,0x10(%edi)
c012a25f:	c0 2c 75 10 c0 95 75 	shrb   $0x10,0x7595c010(,%esi,2)
c012a266:	10 
c012a267:	c0 29 77             	shrb   $0x77,(%ecx)
c012a26a:	10 c0                	adc    %al,%al
c012a26c:	29 77 10             	sub    %esi,0x10(%edi)
c012a26f:	c0 29 77             	shrb   $0x77,(%ecx)
c012a272:	10 c0                	adc    %al,%al
c012a274:	29 77 10             	sub    %esi,0x10(%edi)
c012a277:	c0 95 75 10 c0 29 77 	rclb   $0x77,0x29c01075(%ebp)
c012a27e:	10 c0                	adc    %al,%al
c012a280:	29 77 10             	sub    %esi,0x10(%edi)
c012a283:	c0 29 77             	shrb   $0x77,(%ecx)
c012a286:	10 c0                	adc    %al,%al
c012a288:	29 77 10             	sub    %esi,0x10(%edi)
c012a28b:	c0 29 77             	shrb   $0x77,(%ecx)
c012a28e:	10 c0                	adc    %al,%al
c012a290:	fd                   	std    
c012a291:	75 10                	jne    c012a2a3 <base_char+0x1283>
c012a293:	c0 b0 76 10 c0 29 77 	shlb   $0x77,0x29c01076(%eax)
c012a29a:	10 c0                	adc    %al,%al
c012a29c:	29 77 10             	sub    %esi,0x10(%edi)
c012a29f:	c0 52 75 10          	rclb   $0x10,0x75(%edx)
c012a2a3:	c0 29 77             	shrb   $0x77,(%ecx)
c012a2a6:	10 c0                	adc    %al,%al
c012a2a8:	c9                   	leave  
c012a2a9:	75 10                	jne    c012a2bb <base_char+0x129b>
c012a2ab:	c0 29 77             	shrb   $0x77,(%ecx)
c012a2ae:	10 c0                	adc    %al,%al
c012a2b0:	29 77 10             	sub    %esi,0x10(%edi)
c012a2b3:	c0 31 76             	shlb   $0x76,(%ecx)
c012a2b6:	10 c0                	adc    %al,%al

Disassembly of section .kpg:

c012b000 <_k_ptd>:
	...

Disassembly of section .debug_info:

00000000 <.debug_info>:
       0:	ef                   	out    %eax,(%dx)
       1:	00 00                	add    %al,(%eax)
       3:	00 05 00 01 04 00    	add    %al,0x40100
       9:	00 00                	add    %al,(%eax)
       b:	00 05 14 00 00 00    	add    %al,0x14
      11:	0c 00                	or     $0x0,%al
      13:	00 00                	add    %al,(%eax)
      15:	00 0a                	add    %cl,(%edx)
      17:	00 00                	add    %al,(%eax)
      19:	00 2e                	add    %ch,(%esi)
      1b:	71 10                	jno    2d <start_-0xfffdf>
      1d:	c0 10 00             	rclb   $0x0,(%eax)
      20:	00 00                	add    %al,(%eax)
      22:	00 00                	add    %al,(%eax)
      24:	00 00                	add    %al,(%eax)
      26:	01 01                	add    %eax,(%ecx)
      28:	06                   	push   %es
      29:	7c 00                	jl     2b <start_-0xfffe1>
      2b:	00 00                	add    %al,(%eax)
      2d:	01 02                	add    %eax,(%edx)
      2f:	05 ca 00 00 00       	add    $0xca,%eax
      34:	01 04 05 c1 00 00 00 	add    %eax,0xc1(,%eax,1)
      3b:	01 08                	add    %ecx,(%eax)
      3d:	05 bc 00 00 00       	add    $0xbc,%eax
      42:	01 01                	add    %eax,(%ecx)
      44:	08 7a 00             	or     %bh,0x0(%edx)
      47:	00 00                	add    %al,(%eax)
      49:	01 02                	add    %eax,(%edx)
      4b:	07                   	pop    %es
      4c:	88 00                	mov    %al,(%eax)
      4e:	00 00                	add    %al,(%eax)
      50:	03 42 01             	add    0x1(%edx),%eax
      53:	00 00                	add    %al,(%eax)
      55:	02 34 19             	add    (%ecx,%ebx,1),%dh
      58:	5c                   	pop    %esp
      59:	00 00                	add    %al,(%eax)
      5b:	00 01                	add    %al,(%ecx)
      5d:	04 07                	add    $0x7,%al
      5f:	aa                   	stos   %al,%es:(%edi)
      60:	00 00                	add    %al,(%eax)
      62:	00 01                	add    %al,(%ecx)
      64:	08 07                	or     %al,(%edi)
      66:	a5                   	movsl  %ds:(%esi),%es:(%edi)
      67:	00 00                	add    %al,(%eax)
      69:	00 06                	add    %al,(%esi)
      6b:	04 05                	add    $0x5,%al
      6d:	69 6e 74 00 01 04 07 	imul   $0x7040100,0x74(%esi),%ebp
      74:	af                   	scas   %es:(%edi),%eax
      75:	00 00                	add    %al,(%eax)
      77:	00 03                	add    %al,(%ebx)
      79:	00 00                	add    %al,(%eax)
      7b:	00 00                	add    %al,(%eax)
      7d:	03 04 17             	add    (%edi,%edx,1),%eax
      80:	5c                   	pop    %esp
      81:	00 00                	add    %al,(%eax)
      83:	00 07                	add    %al,(%edi)
      85:	06                   	push   %es
      86:	00 00                	add    %al,(%eax)
      88:	00 01                	add    %al,(%ecx)
      8a:	04 06                	add    $0x6,%al
      8c:	2e 71 10             	jno,pn 9f <start_-0xfff6d>
      8f:	c0 10 00             	rclb   $0x0,(%eax)
      92:	00 00                	add    %al,(%eax)
      94:	01 9c e1 00 00 00 08 	add    %ebx,0x8000000(%ecx,%eiz,8)
      9b:	9b                   	fwait
      9c:	00 00                	add    %al,(%eax)
      9e:	00 01                	add    %al,(%ecx)
      a0:	04 1a                	add    $0x1a,%al
      a2:	e1 00                	loope  a4 <start_-0xfff68>
      a4:	00 00                	add    %al,(%eax)
      a6:	02 91 00 09 6f 75    	add    0x756f0900(%ecx),%dl
      ac:	74 00                	je     ae <start_-0xfff5e>
      ae:	01 05 0f ed 00 00    	add    %eax,0xed0f
      b4:	00 02                	add    %al,(%edx)
      b6:	91                   	xchg   %eax,%ecx
      b7:	78 02                	js     bb <start_-0xfff51>
      b9:	65 61                	gs popa 
      bb:	78 00                	js     bd <start_-0xfff4f>
      bd:	0b 78 00             	or     0x0(%eax),%edi
      c0:	00 00                	add    %al,(%eax)
      c2:	02 65 62             	add    0x62(%ebp),%ah
      c5:	78 00                	js     c7 <start_-0xfff45>
      c7:	10 78 00             	adc    %bh,0x0(%eax)
      ca:	00 00                	add    %al,(%eax)
      cc:	02 65 64             	add    0x64(%ebp),%ah
      cf:	78 00                	js     d1 <start_-0xfff3b>
      d1:	15 78 00 00 00       	adc    $0x78,%eax
      d6:	02 65 63             	add    0x63(%ebp),%ah
      d9:	78 00                	js     db <start_-0xfff31>
      db:	1a 78 00             	sbb    0x0(%eax),%bh
      de:	00 00                	add    %al,(%eax)
      e0:	00 04 e6             	add    %al,(%esi,%eiz,8)
      e3:	00 00                	add    %al,(%eax)
      e5:	00 01                	add    %al,(%ecx)
      e7:	01 06                	add    %eax,(%esi)
      e9:	83 00 00             	addl   $0x0,(%eax)
      ec:	00 04 50             	add    %al,(%eax,%edx,2)
      ef:	00 00                	add    %al,(%eax)
      f1:	00 00                	add    %al,(%eax)
      f3:	36 05 00 00 05 00    	ss add $0x50000,%eax
      f9:	01 04 91             	add    %eax,(%ecx,%edx,4)
      fc:	00 00                	add    %al,(%eax)
      fe:	00 13                	add    %dl,(%ebx)
     100:	14 00                	adc    $0x0,%al
     102:	00 00                	add    %al,(%eax)
     104:	0c 90                	or     $0x90,%al
     106:	00 00                	add    %al,(%eax)
     108:	00 0a                	add    %cl,(%edx)
     10a:	00 00                	add    %al,(%eax)
     10c:	00 57 00             	add    %dl,0x0(%edi)
     10f:	10 00                	adc    %al,(%eax)
     111:	f1                   	icebp  
     112:	02 00                	add    (%eax),%al
     114:	00 61 00             	add    %ah,0x0(%ecx)
     117:	00 00                	add    %al,(%eax)
     119:	02 92 04 00 00 02    	add    0x2000004(%edx),%dl
     11f:	49                   	dec    %ecx
     120:	17                   	pop    %ss
     121:	32 00                	xor    (%eax),%al
     123:	00 00                	add    %al,(%eax)
     125:	03 01                	add    (%ecx),%eax
     127:	08 7a 00             	or     %bh,0x0(%edx)
     12a:	00 00                	add    %al,(%eax)
     12c:	02 4b 01             	add    0x1(%ebx),%cl
     12f:	00 00                	add    %al,(%eax)
     131:	02 4a 18             	add    0x18(%edx),%cl
     134:	45                   	inc    %ebp
     135:	00 00                	add    %al,(%eax)
     137:	00 03                	add    %al,(%ebx)
     139:	02 07                	add    (%edi),%al
     13b:	88 00                	mov    %al,(%eax)
     13d:	00 00                	add    %al,(%eax)
     13f:	02 38                	add    (%eax),%bh
     141:	01 00                	add    %eax,(%eax)
     143:	00 02                	add    %al,(%edx)
     145:	4b                   	dec    %ebx
     146:	16                   	push   %ss
     147:	58                   	pop    %eax
     148:	00 00                	add    %al,(%eax)
     14a:	00 03                	add    %al,(%ebx)
     14c:	04 07                	add    $0x7,%al
     14e:	af                   	scas   %es:(%edi),%eax
     14f:	00 00                	add    %al,(%eax)
     151:	00 02                	add    %al,(%edx)
     153:	1a 03                	sbb    (%ebx),%al
     155:	00 00                	add    %al,(%eax)
     157:	02 4c 1c 6b          	add    0x6b(%esp,%ebx,1),%cl
     15b:	00 00                	add    %al,(%eax)
     15d:	00 03                	add    %al,(%ebx)
     15f:	08 07                	or     %al,(%edi)
     161:	a5                   	movsl  %ds:(%esi),%es:(%edi)
     162:	00 00                	add    %al,(%eax)
     164:	00 07                	add    %al,(%edi)
     166:	00 01                	add    %al,(%ecx)
     168:	00 00                	add    %al,(%eax)
     16a:	10 4e ae             	adc    %cl,-0x52(%esi)
     16d:	00 00                	add    %al,(%eax)
     16f:	00 01                	add    %al,(%ecx)
     171:	d9 03                	flds   (%ebx)
     173:	00 00                	add    %al,(%eax)
     175:	50                   	push   %eax
     176:	18 4c 00 00          	sbb    %cl,0x0(%eax,%eax,1)
     17a:	00 00                	add    %al,(%eax)
     17c:	01 c2                	add    %eax,%edx
     17e:	01 00                	add    %eax,(%eax)
     180:	00 51 18             	add    %dl,0x18(%ecx)
     183:	4c                   	dec    %esp
     184:	00 00                	add    %al,(%eax)
     186:	00 04 01             	add    %al,(%ecx,%eax,1)
     189:	f1                   	icebp  
     18a:	04 00                	add    $0x0,%al
     18c:	00 52 18             	add    %dl,0x18(%edx)
     18f:	4c                   	dec    %esp
     190:	00 00                	add    %al,(%eax)
     192:	00 08                	add    %cl,(%eax)
     194:	01 d4                	add    %edx,%esp
     196:	04 00                	add    $0x0,%al
     198:	00 53 18             	add    %dl,0x18(%ebx)
     19b:	4c                   	dec    %esp
     19c:	00 00                	add    %al,(%eax)
     19e:	00 0c 00             	add    %cl,(%eax,%eax,1)
     1a1:	02 a4 04 00 00 02 55 	add    0x55020000(%esp,%eax,1),%ah
     1a8:	27                   	daa    
     1a9:	72 00                	jb     1ab <start_-0xffe61>
     1ab:	00 00                	add    %al,(%eax)
     1ad:	07                   	pop    %es
     1ae:	68 03 00 00 10       	push   $0x10000003
     1b3:	58                   	pop    %eax
     1b4:	f6 00 00             	testb  $0x0,(%eax)
     1b7:	00 0b                	add    %cl,(%ebx)
     1b9:	6e                   	outsb  %ds:(%esi),(%dx)
     1ba:	75 6d                	jne    229 <start_-0xffde3>
     1bc:	00 5a 18             	add    %bl,0x18(%edx)
     1bf:	4c                   	dec    %esp
     1c0:	00 00                	add    %al,(%eax)
     1c2:	00 00                	add    %al,(%eax)
     1c4:	01 74 02 00          	add    %esi,0x0(%edx,%eax,1)
     1c8:	00 5b 18             	add    %bl,0x18(%ebx)
     1cb:	4c                   	dec    %esp
     1cc:	00 00                	add    %al,(%eax)
     1ce:	00 04 01             	add    %al,(%ecx,%eax,1)
     1d1:	f1                   	icebp  
     1d2:	04 00                	add    $0x0,%al
     1d4:	00 5c 18 4c          	add    %bl,0x4c(%eax,%ebx,1)
     1d8:	00 00                	add    %al,(%eax)
     1da:	00 08                	add    %cl,(%eax)
     1dc:	01 03                	add    %eax,(%ebx)
     1de:	02 00                	add    (%eax),%al
     1e0:	00 5d 18             	add    %bl,0x18(%ebp)
     1e3:	4c                   	dec    %esp
     1e4:	00 00                	add    %al,(%eax)
     1e6:	00 0c 00             	add    %cl,(%eax,%eax,1)
     1e9:	02 de                	add    %dh,%bl
     1eb:	01 00                	add    %eax,(%eax)
     1ed:	00 02                	add    %al,(%edx)
     1ef:	60                   	pusha  
     1f0:	03 ba 00 00 00 0c    	add    0xc000000(%edx),%edi
     1f6:	10 75 20             	adc    %dh,0x20(%ebp)
     1f9:	01 00                	add    %eax,(%eax)
     1fb:	00 0d a2 01 00 00    	add    %cl,0x1a2
     201:	77 22                	ja     225 <start_-0xffde7>
     203:	ae                   	scas   %es:(%edi),%al
     204:	00 00                	add    %al,(%eax)
     206:	00 0d b2 02 00 00    	add    %cl,0x2b2
     20c:	78 2e                	js     23c <start_-0xffdd0>
     20e:	f6 00 00             	testb  $0x0,(%eax)
     211:	00 00                	add    %al,(%eax)
     213:	0e                   	push   %cs
     214:	08 9f 40 01 00 00    	or     %bl,0x140(%edi)
     21a:	01 dd                	add    %ebx,%ebp
     21c:	04 00                	add    $0x0,%al
     21e:	00 a1 20 4c 00 00    	add    %ah,0x4c20(%ecx)
     224:	00 00                	add    %al,(%eax)
     226:	01 23                	add    %esp,(%ebx)
     228:	02 00                	add    (%eax),%al
     22a:	00 a2 20 39 00 00    	add    %ah,0x3920(%edx)
     230:	00 04 00             	add    %al,(%eax,%eax,1)
     233:	0e                   	push   %cs
     234:	06                   	push   %es
     235:	a4                   	movsb  %ds:(%esi),%es:(%edi)
     236:	90                   	nop
     237:	01 00                	add    %eax,(%eax)
     239:	00 01                	add    %al,(%ecx)
     23b:	5e                   	pop    %esi
     23c:	01 00                	add    %eax,(%eax)
     23e:	00 a6 1f 26 00 00    	add    %ah,0x261f(%esi)
     244:	00 00                	add    %al,(%eax)
     246:	01 f2                	add    %esi,%edx
     248:	03 00                	add    (%eax),%eax
     24a:	00 a7 1f 26 00 00    	add    %ah,0x261f(%edi)
     250:	00 01                	add    %al,(%ecx)
     252:	01 17                	add    %edx,(%edi)
     254:	01 00                	add    %eax,(%eax)
     256:	00 a8 1f 26 00 00    	add    %ch,0x261f(%eax)
     25c:	00 02                	add    %al,(%edx)
     25e:	01 27                	add    %esp,(%edi)
     260:	04 00                	add    $0x0,%al
     262:	00 a9 1f 26 00 00    	add    %ch,0x261f(%ecx)
     268:	00 03                	add    %al,(%ebx)
     26a:	01 3e                	add    %edi,(%esi)
     26c:	03 00                	add    (%eax),%eax
     26e:	00 aa 1f 26 00 00    	add    %ch,0x261f(%edx)
     274:	00 04 01             	add    %al,(%ecx,%eax,1)
     277:	d4 00                	aam    $0x0
     279:	00 00                	add    %al,(%eax)
     27b:	ab                   	stos   %eax,%es:(%edi)
     27c:	1f                   	pop    %ds
     27d:	26 00 00             	add    %al,%es:(%eax)
     280:	00 05 00 0c 08 9d    	add    %al,0x9d080c00
     286:	a2 01 00 00 0f       	mov    %al,0xf000001
     28b:	20 01                	and    %al,(%ecx)
     28d:	00 00                	add    %al,(%eax)
     28f:	0f 40 01             	cmovo  (%ecx),%eax
     292:	00 00                	add    %al,(%eax)
     294:	00 07                	add    %al,(%edi)
     296:	0b 03                	or     (%ebx),%eax
     298:	00 00                	add    %al,(%eax)
     29a:	78 62                	js     2fe <start_-0xffd0e>
     29c:	f6 02 00             	testb  $0x0,(%edx)
     29f:	00 01                	add    %al,(%ecx)
     2a1:	14 09                	adc    $0x9,%al
     2a3:	00 00                	add    %al,(%eax)
     2a5:	65 18 4c 00 00       	sbb    %cl,%gs:0x0(%eax,%eax,1)
     2aa:	00 00                	add    %al,(%eax)
     2ac:	01 ba 02 00 00 68    	add    %edi,0x68000002(%edx)
     2b2:	18 4c 00 00          	sbb    %cl,0x0(%eax,%eax,1)
     2b6:	00 04 01             	add    %al,(%ecx,%eax,1)
     2b9:	ae                   	scas   %es:(%edi),%al
     2ba:	03 00                	add    (%eax),%eax
     2bc:	00 69 18             	add    %ch,0x18(%ecx)
     2bf:	4c                   	dec    %esp
     2c0:	00 00                	add    %al,(%eax)
     2c2:	00 08                	add    %cl,(%eax)
     2c4:	01 42 02             	add    %eax,0x2(%edx)
     2c7:	00 00                	add    %al,(%eax)
     2c9:	6c                   	insb   (%dx),%es:(%edi)
     2ca:	18 4c 00 00          	sbb    %cl,0x0(%eax,%eax,1)
     2ce:	00 0c 01             	add    %cl,(%ecx,%eax,1)
     2d1:	89 01                	mov    %eax,(%ecx)
     2d3:	00 00                	add    %al,(%eax)
     2d5:	6f                   	outsl  %ds:(%esi),(%dx)
     2d6:	18 4c 00 00          	sbb    %cl,0x0(%eax,%eax,1)
     2da:	00 10                	add    %dl,(%eax)
     2dc:	01 87 04 00 00 72    	add    %eax,0x72000004(%edi)
     2e2:	18 4c 00 00          	sbb    %cl,0x0(%eax,%eax,1)
     2e6:	00 14 01             	add    %dl,(%ecx,%eax,1)
     2e9:	ab                   	stos   %eax,%es:(%edi)
     2ea:	01 00                	add    %eax,(%eax)
     2ec:	00 73 18             	add    %dh,0x18(%ebx)
     2ef:	4c                   	dec    %esp
     2f0:	00 00                	add    %al,(%eax)
     2f2:	00 18                	add    %bl,(%eax)
     2f4:	0b 75 00             	or     0x0(%ebp),%esi
     2f7:	79 07                	jns    300 <start_-0xffd0c>
     2f9:	02 01                	add    (%ecx),%al
     2fb:	00 00                	add    %al,(%eax)
     2fd:	1c 01                	sbb    $0x1,%al
     2ff:	f1                   	icebp  
     300:	02 00                	add    (%eax),%al
     302:	00 7c 18 4c          	add    %bh,0x4c(%eax,%ebx,1)
     306:	00 00                	add    %al,(%eax)
     308:	00 2c 01             	add    %ch,(%ecx,%eax,1)
     30b:	88 02                	mov    %al,(%edx)
     30d:	00 00                	add    %al,(%eax)
     30f:	7d 18                	jge    329 <start_-0xffce3>
     311:	4c                   	dec    %esp
     312:	00 00                	add    %al,(%eax)
     314:	00 30                	add    %dh,(%eax)
     316:	01 0c 04             	add    %ecx,(%esp,%eax,1)
     319:	00 00                	add    %al,(%eax)
     31b:	80 18 4c             	sbbb   $0x4c,(%eax)
     31e:	00 00                	add    %al,(%eax)
     320:	00 34 01             	add    %dh,(%ecx,%eax,1)
     323:	7d 01                	jge    326 <start_-0xffce6>
     325:	00 00                	add    %al,(%eax)
     327:	81 18 4c 00 00 00    	sbbl   $0x4c,(%eax)
     32d:	38 01                	cmp    %al,(%ecx)
     32f:	1a 04 00             	sbb    (%eax,%eax,1),%al
     332:	00 84 18 4c 00 00 00 	add    %al,0x4c(%eax,%ebx,1)
     339:	3c 01                	cmp    $0x1,%al
     33b:	59                   	pop    %ecx
     33c:	02 00                	add    (%eax),%al
     33e:	00 87 18 4c 00 00    	add    %al,0x4c18(%edi)
     344:	00 40 01             	add    %al,0x1(%eax)
     347:	09 02                	or     %eax,(%edx)
     349:	00 00                	add    %al,(%eax)
     34b:	8a 18                	mov    (%eax),%bl
     34d:	4c                   	dec    %esp
     34e:	00 00                	add    %al,(%eax)
     350:	00 44 01 a1          	add    %al,-0x5f(%ecx,%eax,1)
     354:	02 00                	add    (%eax),%al
     356:	00 8d 18 4c 00 00    	add    %cl,0x4c18(%ebp)
     35c:	00 48 01             	add    %cl,0x1(%eax)
     35f:	cb                   	lret   
     360:	03 00                	add    (%eax),%eax
     362:	00 8e 18 4c 00 00    	add    %cl,0x4c18(%esi)
     368:	00 4c 01 d6          	add    %cl,-0x2a(%ecx,%eax,1)
     36c:	02 00                	add    (%eax),%al
     36e:	00 8f 18 39 00 00    	add    %cl,0x3918(%edi)
     374:	00 50 01             	add    %dl,0x1(%eax)
     377:	bd 04 00 00 90       	mov    $0x90000004,%ebp
     37c:	18 39                	sbb    %bh,(%ecx)
     37e:	00 00                	add    %al,(%eax)
     380:	00 52 01             	add    %dl,0x1(%edx)
     383:	c4 02                	les    (%edx),%eax
     385:	00 00                	add    %al,(%eax)
     387:	91                   	xchg   %eax,%ecx
     388:	18 39                	sbb    %bh,(%ecx)
     38a:	00 00                	add    %al,(%eax)
     38c:	00 54 01 75          	add    %dl,0x75(%ecx,%eax,1)
     390:	04 00                	add    $0x0,%al
     392:	00 92 18 39 00 00    	add    %dl,0x3918(%edx)
     398:	00 56 01             	add    %dl,0x1(%esi)
     39b:	ef                   	out    %eax,(%dx)
     39c:	00 00                	add    %al,(%eax)
     39e:	00 94 18 5f 00 00 00 	add    %dl,0x5f(%eax,%ebx,1)
     3a5:	58                   	pop    %eax
     3a6:	01 8b 03 00 00 95    	add    %ecx,-0x6afffffd(%ebx)
     3ac:	18 4c 00 00          	sbb    %cl,0x0(%eax,%eax,1)
     3b0:	00 60 01             	add    %ah,0x1(%eax)
     3b3:	df 02                	filds  (%edx)
     3b5:	00 00                	add    %al,(%eax)
     3b7:	96                   	xchg   %eax,%esi
     3b8:	18 4c 00 00          	sbb    %cl,0x0(%eax,%eax,1)
     3bc:	00 64 01 62          	add    %ah,0x62(%ecx,%eax,1)
     3c0:	04 00                	add    $0x0,%al
     3c2:	00 97 18 4c 00 00    	add    %dl,0x4c18(%edi)
     3c8:	00 68 01             	add    %ch,0x1(%eax)
     3cb:	13 02                	adc    (%edx),%eax
     3cd:	00 00                	add    %al,(%eax)
     3cf:	98                   	cwtl   
     3d0:	17                   	pop    %ss
     3d1:	26 00 00             	add    %al,%es:(%eax)
     3d4:	00 6c 01 9d          	add    %ch,-0x63(%ecx,%eax,1)
     3d8:	03 00                	add    (%eax),%eax
     3da:	00 9c 17 26 00 00 00 	add    %bl,0x26(%edi,%edx,1)
     3e1:	6d                   	insl   (%dx),%es:(%edi)
     3e2:	14 90                	adc    $0x90,%al
     3e4:	01 00                	add    %eax,(%eax)
     3e6:	00 70 00             	add    %dh,0x0(%eax)
     3e9:	02 43 04             	add    0x4(%ebx),%al
     3ec:	00 00                	add    %al,(%eax)
     3ee:	02 af 1f a2 01 00    	add    0x1a21f(%edi),%ch
     3f4:	00 03                	add    %al,(%ebx)
     3f6:	01 06                	add    %eax,(%esi)
     3f8:	7c 00                	jl     3fa <start_-0xffc12>
     3fa:	00 00                	add    %al,(%eax)
     3fc:	03 02                	add    (%edx),%eax
     3fe:	05 ca 00 00 00       	add    $0xca,%eax
     403:	03 04 05 c1 00 00 00 	add    0xc1(,%eax,1),%eax
     40a:	03 08                	add    (%eax),%ecx
     40c:	05 bc 00 00 00       	add    $0xbc,%eax
     411:	02 9c 04 00 00 03 2e 	add    0x2e030000(%esp,%eax,1),%bl
     418:	18 32                	sbb    %dh,(%edx)
     41a:	00 00                	add    %al,(%eax)
     41c:	00 02                	add    %al,(%edx)
     41e:	42                   	inc    %edx
     41f:	01 00                	add    %eax,(%eax)
     421:	00 03                	add    %al,(%ebx)
     423:	34 19                	xor    $0x19,%al
     425:	36 03 00             	add    %ss:(%eax),%eax
     428:	00 03                	add    %al,(%ebx)
     42a:	04 07                	add    $0x7,%al
     42c:	aa                   	stos   %al,%es:(%edi)
     42d:	00 00                	add    %al,(%eax)
     42f:	00 15 04 05 69 6e    	add    %dl,0x6e690504
     435:	74 00                	je     437 <start_-0xffbd5>
     437:	02 ca                	add    %dl,%cl
     439:	01 00                	add    %eax,(%eax)
     43b:	00 03                	add    %al,(%ebx)
     43d:	56                   	push   %esi
     43e:	1a 36                	sbb    (%esi),%dh
     440:	03 00                	add    (%eax),%eax
     442:	00 02                	add    %al,(%edx)
     444:	6a 02                	push   $0x2
     446:	00 00                	add    %al,(%eax)
     448:	04 39                	add    $0x39,%al
     44a:	16                   	push   %ss
     44b:	58                   	pop    %eax
     44c:	00 00                	add    %al,(%eax)
     44e:	00 08                	add    %cl,(%eax)
     450:	79 02                	jns    454 <start_-0xffbb8>
     452:	00 00                	add    %al,(%eax)
     454:	17                   	pop    %ss
     455:	1e                   	push   %ds
     456:	03 00                	add    (%eax),%eax
     458:	00 08                	add    %cl,(%eax)
     45a:	b5 01                	mov    $0x1,%ch
     45c:	00 00                	add    %al,(%eax)
     45e:	18 1e                	sbb    %bl,(%esi)
     460:	03 00                	add    (%eax),%eax
     462:	00 08                	add    %cl,(%eax)
     464:	92                   	xchg   %eax,%edx
     465:	02 00                	add    (%eax),%al
     467:	00 19                	add    %bl,(%ecx)
     469:	1e                   	push   %ds
     46a:	03 00                	add    (%eax),%eax
     46c:	00 10                	add    %dl,(%eax)
     46e:	d4 01                	aam    $0x1
     470:	00 00                	add    %al,(%eax)
     472:	6d                   	insl   (%dx),%es:(%edi)
     473:	06                   	push   %es
     474:	03 10                	add    (%eax),%edx
     476:	00 42 00             	add    %al,0x0(%edx)
     479:	00 00                	add    %al,(%eax)
     47b:	01 9c cf 03 00 00 11 	add    %ebx,0x11000003(%edi,%ecx,8)
     482:	70 74                	jo     4f8 <start_-0xffb14>
     484:	64 00 6d 17          	add    %ch,%fs:0x17(%ebp)
     488:	cf                   	iret   
     489:	03 00                	add    (%eax),%eax
     48b:	00 02                	add    %al,(%edx)
     48d:	91                   	xchg   %eax,%ecx
     48e:	00 05 70 02 00 00    	add    %al,0x270
     494:	6d                   	insl   (%dx),%es:(%edi)
     495:	25 2a 03 00 00       	and    $0x32a,%eax
     49a:	02 91 04 04 6b 70    	add    0x706b0404(%ecx),%dl
     4a0:	67 00 6f 0e          	add    %ch,0xe(%bx)
     4a4:	d4 03                	aam    $0x3
     4a6:	00 00                	add    %al,(%eax)
     4a8:	02 91 74 12 11 03    	add    0x3111274(%ecx),%dl
     4ae:	10 00                	adc    %al,(%eax)
     4b0:	26 00 00             	add    %al,%es:(%eax)
     4b3:	00 04 69             	add    %al,(%ecx,%ebp,2)
     4b6:	00 70 13             	add    %dh,0x13(%eax)
     4b9:	2a 03                	sub    (%ebx),%al
     4bb:	00 00                	add    %al,(%eax)
     4bd:	02 91 78 00 00 09    	add    0x9000078(%ecx),%dl
     4c3:	50                   	push   %eax
     4c4:	03 00                	add    (%eax),%eax
     4c6:	00 09                	add    %cl,(%ecx)
     4c8:	1e                   	push   %ds
     4c9:	03 00                	add    (%eax),%eax
     4cb:	00 10                	add    %dl,(%eax)
     4cd:	05 03 00 00 5d       	add    $0x5d000003,%eax
     4d2:	40                   	inc    %eax
     4d3:	02 10                	add    (%eax),%dl
     4d5:	00 c6                	add    %al,%dh
     4d7:	00 00                	add    %al,(%eax)
     4d9:	00 01                	add    %al,(%ecx)
     4db:	9c                   	pushf  
     4dc:	26 04 00             	es add $0x0,%al
     4df:	00 05 de 07 00 00    	add    %al,0x7de
     4e5:	5d                   	pop    %ebp
     4e6:	2d 26 04 00 00       	sub    $0x426,%eax
     4eb:	02 91 00 05 bf 03    	add    0x3bf0500(%ecx),%dl
     4f1:	00 00                	add    %al,(%eax)
     4f3:	5d                   	pop    %ebp
     4f4:	3c d4                	cmp    $0xd4,%al
     4f6:	03 00                	add    (%eax),%eax
     4f8:	00 02                	add    %al,(%edx)
     4fa:	91                   	xchg   %eax,%ecx
     4fb:	04 06                	add    $0x6,%al
     4fd:	fd                   	std    
     4fe:	02 00                	add    (%eax),%al
     500:	00 5e 0e             	add    %bl,0xe(%esi)
     503:	2a 03                	sub    (%ebx),%al
     505:	00 00                	add    %al,(%eax)
     507:	02 91 74 06 b8 03    	add    0x3b80674(%ecx),%dl
     50d:	00 00                	add    %al,(%eax)
     50f:	5f                   	pop    %edi
     510:	0e                   	push   %cs
     511:	d4 03                	aam    $0x3
     513:	00 00                	add    %al,(%eax)
     515:	02 91 70 00 09 f6    	add    -0x9f6ff90(%ecx),%dl
     51b:	02 00                	add    (%eax),%al
     51d:	00 16                	add    %dl,(%esi)
     51f:	54                   	push   %esp
     520:	04 00                	add    $0x0,%al
     522:	00 01                	add    %al,(%ecx)
     524:	55                   	push   %ebp
     525:	0a 2a                	or     (%edx),%ch
     527:	03 00                	add    (%eax),%eax
     529:	00 03                	add    %al,(%ebx)
     52b:	02 10                	add    (%eax),%dl
     52d:	00 3d 00 00 00 01    	add    %bh,0x1000000
     533:	9c                   	pushf  
     534:	7c 04                	jl     53a <start_-0xffad2>
     536:	00 00                	add    %al,(%eax)
     538:	05 bf 03 00 00       	add    $0x3bf,%eax
     53d:	55                   	push   %ebp
     53e:	21 d4                	and    %edx,%esp
     540:	03 00                	add    (%eax),%eax
     542:	00 02                	add    %al,(%edx)
     544:	91                   	xchg   %eax,%ecx
     545:	00 05 cf 04 00 00    	add    %al,0x4cf
     54b:	55                   	push   %ebp
     54c:	37                   	aaa    
     54d:	d4 03                	aam    $0x3
     54f:	00 00                	add    %al,(%eax)
     551:	02 91 04 05 74 02    	add    0x2740504(%ecx),%dl
     557:	00 00                	add    %al,(%eax)
     559:	55                   	push   %ebp
     55a:	4a                   	dec    %edx
     55b:	58                   	pop    %eax
     55c:	00 00                	add    %al,(%eax)
     55e:	00 02                	add    %al,(%edx)
     560:	91                   	xchg   %eax,%ecx
     561:	08 04 69             	or     %al,(%ecx,%ebp,2)
     564:	00 56 12             	add    %dl,0x12(%esi)
     567:	58                   	pop    %eax
     568:	00 00                	add    %al,(%eax)
     56a:	00 02                	add    %al,(%edx)
     56c:	91                   	xchg   %eax,%ecx
     56d:	78 00                	js     56f <start_-0xffa9d>
     56f:	17                   	pop    %ss
     570:	4e                   	dec    %esi
     571:	02 00                	add    (%eax),%al
     573:	00 01                	add    %al,(%ecx)
     575:	1c 06                	sbb    $0x6,%al
     577:	57                   	push   %edi
     578:	00 10                	add    %dl,(%eax)
     57a:	00 ac 01 00 00 01 9c 	add    %ch,-0x63ff0000(%ecx,%eax,1)
     581:	11 70 74             	adc    %esi,0x74(%eax)
     584:	64 00 1c 18          	add    %bl,%fs:(%eax,%ebx,1)
     588:	cf                   	iret   
     589:	03 00                	add    (%eax),%eax
     58b:	00 02                	add    %al,(%edx)
     58d:	91                   	xchg   %eax,%ecx
     58e:	00 06                	add    %al,(%esi)
     590:	e1 03                	loope  595 <start_-0xffa77>
     592:	00 00                	add    %al,(%eax)
     594:	2c 0e                	sub    $0xe,%al
     596:	2a 03                	sub    (%ebx),%al
     598:	00 00                	add    %al,(%eax)
     59a:	02 91 68 06 91 01    	add    0x1910668(%ecx),%dl
     5a0:	00 00                	add    %al,(%eax)
     5a2:	2d 0e 2a 03 00       	sub    $0x32a0e,%eax
     5a7:	00 02                	add    %al,(%edx)
     5a9:	91                   	xchg   %eax,%ecx
     5aa:	64 06                	fs push %es
     5ac:	2d 03 00 00 2e       	sub    $0x2e000003,%eax
     5b1:	0e                   	push   %cs
     5b2:	2a 03                	sub    (%ebx),%al
     5b4:	00 00                	add    %al,(%eax)
     5b6:	02 91 60 06 5e 03    	add    0x35e0660(%ecx),%dl
     5bc:	00 00                	add    %al,(%eax)
     5be:	41                   	inc    %ecx
     5bf:	0f 44 03             	cmove  (%ebx),%eax
     5c2:	00 00                	add    %al,(%eax)
     5c4:	02 91 5c 0a 73 00    	add    0x730a5c(%ecx),%dl
     5ca:	10 00                	adc    %al,(%eax)
     5cc:	3d 00 00 00 ee       	cmp    $0xee000000,%eax
     5d1:	04 00                	add    $0x0,%al
     5d3:	00 04 69             	add    %al,(%ecx,%ebp,2)
     5d6:	00 20                	add    %ah,(%eax)
     5d8:	13 2a                	adc    (%edx),%ebp
     5da:	03 00                	add    (%eax),%eax
     5dc:	00 02                	add    %al,(%edx)
     5de:	91                   	xchg   %eax,%ecx
     5df:	78 00                	js     5e1 <start_-0xffa2b>
     5e1:	0a b0 00 10 00 4a    	or     0x4a001000(%eax),%dh
     5e7:	00 00                	add    %al,(%eax)
     5e9:	00 08                	add    %cl,(%eax)
     5eb:	05 00 00 04 69       	add    $0x69040000,%eax
     5f0:	00 25 13 2a 03 00    	add    %ah,0x32a13
     5f6:	00 02                	add    %al,(%edx)
     5f8:	91                   	xchg   %eax,%ecx
     5f9:	74 00                	je     5fb <start_-0xffa11>
     5fb:	0a 32                	or     (%edx),%dh
     5fd:	01 10                	add    %edx,(%eax)
     5ff:	00 4b 00             	add    %cl,0x0(%ebx)
     602:	00 00                	add    %al,(%eax)
     604:	22 05 00 00 04 69    	and    0x69040000,%al
     60a:	00 31                	add    %dh,(%ecx)
     60c:	13 2a                	adc    (%edx),%ebp
     60e:	03 00                	add    (%eax),%eax
     610:	00 02                	add    %al,(%edx)
     612:	91                   	xchg   %eax,%ecx
     613:	70 00                	jo     615 <start_-0xff9f7>
     615:	12 96 01 10 00 4f    	adc    0x4f001001(%esi),%dl
     61b:	00 00                	add    %al,(%eax)
     61d:	00 04 69             	add    %al,(%ecx,%ebp,2)
     620:	00 44 13 2a          	add    %al,0x2a(%ebx,%edx,1)
     624:	03 00                	add    (%eax),%eax
     626:	00 02                	add    %al,(%edx)
     628:	91                   	xchg   %eax,%ecx
     629:	6c                   	insb   (%dx),%es:(%edi)
     62a:	00 00                	add    %al,(%eax)
     62c:	00 a6 01 00 00 05    	add    %ah,0x5000001(%esi)
     632:	00 01                	add    %al,(%ecx)
     634:	04 11                	add    $0x11,%al
     636:	02 00                	add    (%eax),%al
     638:	00 08                	add    %cl,(%eax)
     63a:	14 00                	adc    $0x0,%al
     63c:	00 00                	add    %al,(%eax)
     63e:	0c dc                	or     $0xdc,%al
     640:	00 00                	add    %al,(%eax)
     642:	00 0a                	add    %cl,(%edx)
     644:	00 00                	add    %al,(%eax)
     646:	00 3e                	add    %bh,(%esi)
     648:	71 10                	jno    65a <start_-0xff9b2>
     64a:	c0 68 01 00          	shrb   $0x0,0x1(%eax)
     64e:	00 4b 02             	add    %cl,0x2(%ebx)
     651:	00 00                	add    %al,(%eax)
     653:	02 04 05 c1 00 00 00 	add    0xc1(,%eax,1),%al
     65a:	02 04 07             	add    (%edi,%eax,1),%al
     65d:	aa                   	stos   %al,%es:(%edi)
     65e:	00 00                	add    %al,(%eax)
     660:	00 09                	add    %cl,(%ecx)
     662:	04 05                	add    $0x5,%al
     664:	69 6e 74 00 0a 4b 00 	imul   $0x4b0a00,0x74(%esi),%ebp
     66b:	00 00                	add    %al,(%eax)
     66d:	4b                   	dec    %ebx
     66e:	00 00                	add    %al,(%eax)
     670:	00 0b                	add    %cl,(%ebx)
     672:	2d 00 00 00 24       	sub    $0x24000000,%eax
     677:	00 02                	add    %al,(%edx)
     679:	01 06                	add    %eax,(%esi)
     67b:	83 00 00             	addl   $0x0,(%eax)
     67e:	00 0c f6             	add    %cl,(%esi,%esi,8)
     681:	04 00                	add    $0x0,%al
     683:	00 01                	add    %al,(%ecx)
     685:	05 06 3b 00 00       	add    $0x3b06,%eax
     68a:	00 05 03 20 90 12    	add    %al,0x12902003
     690:	c0 06 00             	rolb   $0x0,(%esi)
     693:	05 00 00 32 a7       	add    $0xa7320000,%eax
     698:	00 00                	add    %al,(%eax)
     69a:	00 8f 72 10 c0 17    	add    %cl,0x17c01072(%edi)
     6a0:	00 00                	add    %al,(%eax)
     6a2:	00 01                	add    %al,(%ecx)
     6a4:	9c                   	pushf  
     6a5:	a7                   	cmpsl  %es:(%edi),%ds:(%esi)
     6a6:	00 00                	add    %al,(%eax)
     6a8:	00 01                	add    %al,(%ecx)
     6aa:	05 05 00 00 32       	add    $0x32000005,%eax
     6af:	0a 34 00             	or     (%eax,%eax,1),%dh
     6b2:	00 00                	add    %al,(%eax)
     6b4:	02 91 00 04 73 74    	add    0x74730400(%ecx),%dl
     6ba:	72 00                	jb     6bc <start_-0xff950>
     6bc:	32 17                	xor    (%edi),%dl
     6be:	a7                   	cmpsl  %es:(%edi),%ds:(%esi)
     6bf:	00 00                	add    %al,(%eax)
     6c1:	00 02                	add    %al,(%edx)
     6c3:	91                   	xchg   %eax,%ecx
     6c4:	04 01                	add    $0x1,%al
     6c6:	cf                   	iret   
     6c7:	04 00                	add    $0x0,%al
     6c9:	00 32                	add    %dh,(%edx)
     6cb:	20 34 00             	and    %dh,(%eax,%eax,1)
     6ce:	00 00                	add    %al,(%eax)
     6d0:	02 91 08 00 07 4b    	add    0x4b070008(%ecx),%dl
     6d6:	00 00                	add    %al,(%eax)
     6d8:	00 06                	add    %al,(%esi)
     6da:	0b 05 00 00 24 a7    	or     0xa7240000,%eax
     6e0:	00 00                	add    %al,(%eax)
     6e2:	00 2e                	add    %ch,(%esi)
     6e4:	72 10                	jb     6f6 <start_-0xff916>
     6e6:	c0 61 00 00          	shlb   $0x0,0x0(%ecx)
     6ea:	00 01                	add    %al,(%ecx)
     6ec:	9c                   	pushf  
     6ed:	14 01                	adc    $0x1,%al
     6ef:	00 00                	add    %al,(%eax)
     6f1:	01 05 05 00 00 24    	add    %eax,0x24000005
     6f7:	15 34 00 00 00       	adc    $0x34,%eax
     6fc:	02 91 00 04 73 74    	add    0x74730400(%ecx),%dl
     702:	72 00                	jb     704 <start_-0xff908>
     704:	24 22                	and    $0x22,%al
     706:	a7                   	cmpsl  %es:(%edi),%ds:(%esi)
     707:	00 00                	add    %al,(%eax)
     709:	00 02                	add    %al,(%edx)
     70b:	91                   	xchg   %eax,%ecx
     70c:	04 01                	add    $0x1,%al
     70e:	cf                   	iret   
     70f:	04 00                	add    $0x0,%al
     711:	00 24 2b             	add    %ah,(%ebx,%ebp,1)
     714:	34 00                	xor    $0x0,%al
     716:	00 00                	add    %al,(%eax)
     718:	02 91 08 01 74 02    	add    0x2740108(%ecx),%dl
     71e:	00 00                	add    %al,(%eax)
     720:	24 3f                	and    $0x3f,%al
     722:	14 01                	adc    $0x1,%al
     724:	00 00                	add    %al,(%eax)
     726:	02 91 0c 05 3f 72    	add    0x723f050c(%ecx),%dl
     72c:	10 c0                	adc    %al,%al
     72e:	2d 00 00 00 03       	sub    $0x3000000,%eax
     733:	5f                   	pop    %edi
     734:	76 00                	jbe    736 <start_-0xff8d6>
     736:	28 16                	sub    %dl,(%esi)
     738:	19 01                	sbb    %eax,(%ecx)
     73a:	00 00                	add    %al,(%eax)
     73c:	02 91 78 00 00 07    	add    0x7000078(%ecx),%dl
     742:	19 01                	sbb    %eax,(%ecx)
     744:	00 00                	add    %al,(%eax)
     746:	02 04 07             	add    (%edi,%eax,1),%al
     749:	af                   	scas   %es:(%edi),%eax
     74a:	00 00                	add    %al,(%eax)
     74c:	00 0d 1b 05 00 00    	add    %cl,0x51b
     752:	01 08                	add    %ecx,(%eax)
     754:	01 a7 00 00 00 3e    	add    %esp,0x3e000000(%edi)
     75a:	71 10                	jno    76c <start_-0xff8a0>
     75c:	c0 f0 00             	shl    $0x0,%al
     75f:	00 00                	add    %al,(%eax)
     761:	01 9c 01 05 05 00 00 	add    %ebx,0x505(%ecx,%eax,1)
     768:	08 1f                	or     %bl,(%edi)
     76a:	19 01                	sbb    %eax,(%ecx)
     76c:	00 00                	add    %al,(%eax)
     76e:	02 91 00 04 73 74    	add    0x74730400(%ecx),%dl
     774:	72 00                	jb     776 <start_-0xff896>
     776:	08 2c a7             	or     %ch,(%edi,%eiz,4)
     779:	00 00                	add    %al,(%eax)
     77b:	00 02                	add    %al,(%edx)
     77d:	91                   	xchg   %eax,%ecx
     77e:	04 01                	add    $0x1,%al
     780:	cf                   	iret   
     781:	04 00                	add    $0x0,%al
     783:	00 08                	add    %cl,(%eax)
     785:	35 34 00 00 00       	xor    $0x34,%eax
     78a:	02 91 08 01 74 02    	add    0x2740108(%ecx),%dl
     790:	00 00                	add    %al,(%eax)
     792:	08 49 14             	or     %cl,0x14(%ecx)
     795:	01 00                	add    %eax,(%eax)
     797:	00 02                	add    %al,(%edx)
     799:	91                   	xchg   %eax,%ecx
     79a:	0c 03                	or     $0x3,%al
     79c:	70 74                	jo     812 <start_-0xff7fa>
     79e:	72 00                	jb     7a0 <start_-0xff86c>
     7a0:	0a 12                	or     (%edx),%dl
     7a2:	19 01                	sbb    %eax,(%ecx)
     7a4:	00 00                	add    %al,(%eax)
     7a6:	02 91 78 05 a4 71    	add    0x71a40578(%ecx),%dl
     7ac:	10 c0                	adc    %al,%al
     7ae:	64 00 00             	add    %al,%fs:(%eax)
     7b1:	00 03                	add    %al,(%ebx)
     7b3:	69 00 15 1b 19 01    	imul   $0x1191b15,(%eax),%eax
     7b9:	00 00                	add    %al,(%eax)
     7bb:	02 91 74 05 ae 71    	add    0x71ae0574(%ecx),%dl
     7c1:	10 c0                	adc    %al,%al
     7c3:	49                   	dec    %ecx
     7c4:	00 00                	add    %al,(%eax)
     7c6:	00 03                	add    %al,(%ebx)
     7c8:	63 00                	arpl   %ax,(%eax)
     7ca:	16                   	push   %ss
     7cb:	12 4b 00             	adc    0x0(%ebx),%cl
     7ce:	00 00                	add    %al,(%eax)
     7d0:	02 91 73 00 00 00    	add    0x73(%ecx),%dl
     7d6:	00 a6 00 00 00 05    	add    %ah,0x5000000(%esi)
     7dc:	00 01                	add    %al,(%ecx)
     7de:	04 e3                	add    $0xe3,%al
     7e0:	02 00                	add    (%eax),%al
     7e2:	00 04 14             	add    %al,(%esp,%edx,1)
     7e5:	00 00                	add    %al,(%eax)
     7e7:	00 0c 05 01 00 00 0a 	add    %cl,0xa000001(,%eax,1)
     7ee:	00 00                	add    %al,(%eax)
     7f0:	00 a6 72 10 c0 50    	add    %ah,0x50c01072(%esi)
     7f6:	00 00                	add    %al,(%eax)
     7f8:	00 57 03             	add    %dl,0x3(%edi)
     7fb:	00 00                	add    %al,(%eax)
     7fd:	01 04 05 c1 00 00 00 	add    %eax,0xc1(,%eax,1)
     804:	01 04 07             	add    %eax,(%edi,%eax,1)
     807:	aa                   	stos   %al,%es:(%edi)
     808:	00 00                	add    %al,(%eax)
     80a:	00 05 04 05 69 6e    	add    %al,0x6e690504
     810:	74 00                	je     812 <start_-0xff7fa>
     812:	06                   	push   %es
     813:	31 05 00 00 01 04    	xor    %eax,0x4010000
     819:	01 8c 00 00 00 a6 72 	add    %ecx,0x72a60000(%eax,%eax,1)
     820:	10 c0                	adc    %al,%al
     822:	50                   	push   %eax
     823:	00 00                	add    %al,(%eax)
     825:	00 01                	add    %al,(%ecx)
     827:	9c                   	pushf  
     828:	8c 00                	mov    %es,(%eax)
     82a:	00 00                	add    %al,(%eax)
     82c:	07                   	pop    %es
     82d:	2c 05                	sub    $0x5,%al
     82f:	00 00                	add    %al,(%eax)
     831:	01 04 0e             	add    %eax,(%esi,%ecx,1)
     834:	8c 00                	mov    %es,(%eax)
     836:	00 00                	add    %al,(%eax)
     838:	02 91 00 08 73 72    	add    0x72730800(%ecx),%dl
     83e:	63 00                	arpl   %ax,(%eax)
     840:	01 04 20             	add    %eax,(%eax,%eiz,1)
     843:	9d                   	popf   
     844:	00 00                	add    %al,(%eax)
     846:	00 02                	add    %al,(%edx)
     848:	91                   	xchg   %eax,%ecx
     849:	04 02                	add    $0x2,%al
     84b:	63 00                	arpl   %ax,(%eax)
     84d:	05 0a 91 00 00       	add    $0x910a,%eax
     852:	00 02                	add    %al,(%edx)
     854:	91                   	xchg   %eax,%ecx
     855:	77 02                	ja     859 <start_-0xff7b3>
     857:	69 00 06 12 a2 00    	imul   $0xa21206,(%eax),%eax
     85d:	00 00                	add    %al,(%eax)
     85f:	02 91 78 00 03 91    	add    -0x6efcff88(%ecx),%dl
     865:	00 00                	add    %al,(%eax)
     867:	00 01                	add    %al,(%ecx)
     869:	01 06                	add    %eax,(%esi)
     86b:	83 00 00             	addl   $0x0,(%eax)
     86e:	00 09                	add    %cl,(%ecx)
     870:	91                   	xchg   %eax,%ecx
     871:	00 00                	add    %al,(%eax)
     873:	00 03                	add    %al,(%ebx)
     875:	98                   	cwtl   
     876:	00 00                	add    %al,(%eax)
     878:	00 01                	add    %al,(%ecx)
     87a:	04 07                	add    $0x7,%al
     87c:	af                   	scas   %es:(%edi),%eax
     87d:	00 00                	add    %al,(%eax)
     87f:	00 00                	add    %al,(%eax)
     881:	8f 00                	pop    (%eax)
     883:	00 00                	add    %al,(%eax)
     885:	05 00 01 04 6f       	add    $0x6f040100,%eax
     88a:	03 00                	add    (%eax),%eax
     88c:	00 02                	add    %al,(%edx)
     88e:	14 00                	adc    $0x0,%al
     890:	00 00                	add    %al,(%eax)
     892:	0c 30                	or     $0x30,%al
     894:	01 00                	add    %eax,(%eax)
     896:	00 0a                	add    %cl,(%edx)
     898:	00 00                	add    %al,(%eax)
     89a:	00 f6                	add    %dh,%dh
     89c:	72 10                	jb     8ae <start_-0xff75e>
     89e:	c0 2b 00             	shrb   $0x0,(%ebx)
     8a1:	00 00                	add    %al,(%eax)
     8a3:	c4 03                	les    (%ebx),%eax
     8a5:	00 00                	add    %al,(%eax)
     8a7:	01 04 05 c1 00 00 00 	add    %eax,0xc1(,%eax,1)
     8ae:	03 3f                	add    (%edi),%edi
     8b0:	05 00 00 02 d1       	add    $0xd1020000,%eax
     8b5:	17                   	pop    %ss
     8b6:	39 00                	cmp    %eax,(%eax)
     8b8:	00 00                	add    %al,(%eax)
     8ba:	01 04 07             	add    %eax,(%edi,%eax,1)
     8bd:	aa                   	stos   %al,%es:(%edi)
     8be:	00 00                	add    %al,(%eax)
     8c0:	00 04 04             	add    %al,(%esp,%eax,1)
     8c3:	05 69 6e 74 00       	add    $0x746e69,%eax
     8c8:	05 38 05 00 00       	add    $0x538,%eax
     8cd:	01 04 01             	add    %eax,(%ecx,%eax,1)
     8d0:	2d 00 00 00 f6       	sub    $0xf6000000,%eax
     8d5:	72 10                	jb     8e7 <start_-0xff725>
     8d7:	c0 2b 00             	shrb   $0x0,(%ebx)
     8da:	00 00                	add    %al,(%eax)
     8dc:	01 9c 80 00 00 00 06 	add    %ebx,0x6000000(%eax,%eax,4)
     8e3:	73 74                	jae    959 <start_-0xff6b3>
     8e5:	72 00                	jb     8e7 <start_-0xff725>
     8e7:	01 04 14             	add    %eax,(%esp,%edx,1)
     8ea:	80 00 00             	addb   $0x0,(%eax)
     8ed:	00 02                	add    %al,(%edx)
     8ef:	91                   	xchg   %eax,%ecx
     8f0:	00 07                	add    %al,(%edi)
     8f2:	6c                   	insb   (%dx),%es:(%edi)
     8f3:	65 6e                	outsb  %gs:(%esi),(%dx)
     8f5:	00 01                	add    %al,(%ecx)
     8f7:	06                   	push   %es
     8f8:	0c 2d                	or     $0x2d,%al
     8fa:	00 00                	add    %al,(%eax)
     8fc:	00 02                	add    %al,(%edx)
     8fe:	91                   	xchg   %eax,%ecx
     8ff:	78 00                	js     901 <start_-0xff70b>
     901:	08 04 8d 00 00 00 01 	or     %al,0x1000000(,%ecx,4)
     908:	01 06                	add    %eax,(%esi)
     90a:	83 00 00             	addl   $0x0,(%eax)
     90d:	00 09                	add    %cl,(%ecx)
     90f:	86 00                	xchg   %al,(%eax)
     911:	00 00                	add    %al,(%eax)
     913:	00 8c 02 00 00 05 00 	add    %cl,0x50000(%edx,%eax,1)
     91a:	01 04 f7             	add    %eax,(%edi,%esi,8)
     91d:	03 00                	add    (%eax),%eax
     91f:	00 0a                	add    %cl,(%edx)
     921:	14 00                	adc    $0x0,%al
     923:	00 00                	add    %al,(%eax)
     925:	0c 53                	or     $0x53,%al
     927:	01 00                	add    %eax,(%eax)
     929:	00 0a                	add    %cl,(%edx)
     92b:	00 00                	add    %al,(%eax)
     92d:	00 21                	add    %ah,(%ecx)
     92f:	73 10                	jae    941 <start_-0xff6cb>
     931:	c0 78 01 00          	sarb   $0x0,0x1(%eax)
     935:	00 29                	add    %ch,(%ecx)
     937:	04 00                	add    $0x0,%al
     939:	00 01                	add    %al,(%ecx)
     93b:	01 06                	add    %eax,(%esi)
     93d:	7c 00                	jl     93f <start_-0xff6cd>
     93f:	00 00                	add    %al,(%eax)
     941:	01 02                	add    %eax,(%edx)
     943:	05 ca 00 00 00       	add    $0xca,%eax
     948:	01 04 05 c1 00 00 00 	add    %eax,0xc1(,%eax,1)
     94f:	01 08                	add    %ecx,(%eax)
     951:	05 bc 00 00 00       	add    $0xbc,%eax
     956:	09 9c 04 00 00 02 2e 	or     %ebx,0x2e020000(%esp,%eax,1)
     95d:	18 53 00             	sbb    %dl,0x0(%ebx)
     960:	00 00                	add    %al,(%eax)
     962:	0b 42 00             	or     0x0(%edx),%eax
     965:	00 00                	add    %al,(%eax)
     967:	01 01                	add    %eax,(%ecx)
     969:	08 7a 00             	or     %bh,0x0(%edx)
     96c:	00 00                	add    %al,(%eax)
     96e:	01 02                	add    %eax,(%edx)
     970:	07                   	pop    %es
     971:	88 00                	mov    %al,(%eax)
     973:	00 00                	add    %al,(%eax)
     975:	01 04 07             	add    %eax,(%edi,%eax,1)
     978:	aa                   	stos   %al,%es:(%edi)
     979:	00 00                	add    %al,(%eax)
     97b:	00 01                	add    %al,(%ecx)
     97d:	08 07                	or     %al,(%edi)
     97f:	a5                   	movsl  %ds:(%esi),%es:(%edi)
     980:	00 00                	add    %al,(%eax)
     982:	00 0c 04             	add    %cl,(%esp,%eax,1)
     985:	05 69 6e 74 00       	add    $0x746e69,%eax
     98a:	01 04 07             	add    %eax,(%edi,%eax,1)
     98d:	af                   	scas   %es:(%edi),%eax
     98e:	00 00                	add    %al,(%eax)
     990:	00 09                	add    %cl,(%ecx)
     992:	3f                   	aas    
     993:	05 00 00 03 d1       	add    $0xd1030000,%eax
     998:	17                   	pop    %ss
     999:	61                   	popa   
     99a:	00 00                	add    %al,(%eax)
     99c:	00 07                	add    %al,(%edi)
     99e:	4e                   	dec    %esi
     99f:	05 00 00 2b 6f       	add    $0x6f2b0000,%eax
     9a4:	00 00                	add    %al,(%eax)
     9a6:	00 34 74             	add    %dh,(%esp,%esi,2)
     9a9:	10 c0                	adc    %al,%al
     9ab:	65 00 00             	add    %al,%gs:(%eax)
     9ae:	00 01                	add    %al,(%ecx)
     9b0:	9c                   	pushf  
     9b1:	14 01                	adc    $0x1,%al
     9b3:	00 00                	add    %al,(%eax)
     9b5:	05 79 05 00 00       	add    $0x579,%eax
     9ba:	2b 14 14             	sub    (%esp,%edx,1),%edx
     9bd:	01 00                	add    %eax,(%eax)
     9bf:	00 02                	add    %al,(%edx)
     9c1:	91                   	xchg   %eax,%ecx
     9c2:	00 05 7e 05 00 00    	add    %al,0x57e
     9c8:	2b 26                	sub    (%esi),%esp
     9ca:	14 01                	adc    $0x1,%al
     9cc:	00 00                	add    %al,(%eax)
     9ce:	02 91 04 02 6e 75    	add    0x756e0204(%ecx),%dl
     9d4:	6d                   	insl   (%dx),%es:(%edi)
     9d5:	00 2b                	add    %ch,(%ebx)
     9d7:	33 7d 00             	xor    0x0(%ebp),%edi
     9da:	00 00                	add    %al,(%eax)
     9dc:	02 91 08 03 70 31    	add    0x31700308(%ecx),%dl
     9e2:	00 2d 0e 1a 01 00    	add    %ch,0x11a0e
     9e8:	00 02                	add    %al,(%edx)
     9ea:	91                   	xchg   %eax,%ecx
     9eb:	74 03                	je     9f0 <start_-0xff61c>
     9ed:	70 32                	jo     a21 <start_-0xff5eb>
     9ef:	00 2e                	add    %ch,(%esi)
     9f1:	0e                   	push   %cs
     9f2:	1a 01                	sbb    (%ecx),%al
     9f4:	00 00                	add    %al,(%eax)
     9f6:	02 91 70 06 47 74    	add    0x74470670(%ecx),%dl
     9fc:	10 c0                	adc    %al,%al
     9fe:	49                   	dec    %ecx
     9ff:	00 00                	add    %al,(%eax)
     a01:	00 03                	add    %al,(%ebx)
     a03:	69 00 2f 11 7d 00    	imul   $0x7d112f,(%eax),%eax
     a09:	00 00                	add    %al,(%eax)
     a0b:	02 91 78 06 51 74    	add    0x74510678(%ecx),%dl
     a11:	10 c0                	adc    %al,%al
     a13:	30 00                	xor    %al,(%eax)
     a15:	00 00                	add    %al,(%eax)
     a17:	04 6d                	add    $0x6d,%al
     a19:	05 00 00 30 0d       	add    $0xd300000,%eax
     a1e:	6f                   	outsl  %ds:(%esi),(%dx)
     a1f:	00 00                	add    %al,(%eax)
     a21:	00 02                	add    %al,(%edx)
     a23:	91                   	xchg   %eax,%ecx
     a24:	6c                   	insb   (%dx),%es:(%edi)
     a25:	00 00                	add    %al,(%eax)
     a27:	00 08                	add    %cl,(%eax)
     a29:	19 01                	sbb    %eax,(%ecx)
     a2b:	00 00                	add    %al,(%eax)
     a2d:	0d 08 42 00 00       	or     $0x4208,%eax
     a32:	00 07                	add    %al,(%edi)
     a34:	5e                   	pop    %esi
     a35:	05 00 00 21 86       	add    $0x86210000,%eax
     a3a:	01 00                	add    %eax,(%eax)
     a3c:	00 f8                	add    %bh,%al
     a3e:	73 10                	jae    a50 <start_-0xff5bc>
     a40:	c0 3c 00 00          	sarb   $0x0,(%eax,%eax,1)
     a44:	00 01                	add    %al,(%ecx)
     a46:	9c                   	pushf  
     a47:	86 01                	xchg   %al,(%ecx)
     a49:	00 00                	add    %al,(%eax)
     a4b:	02 70 74             	add    0x74(%eax),%dh
     a4e:	72 00                	jb     a50 <start_-0xff5bc>
     a50:	21 0e                	and    %ecx,(%esi)
     a52:	86 01                	xchg   %al,(%ecx)
     a54:	00 00                	add    %al,(%eax)
     a56:	02 91 00 05 05 05    	add    0x5050500(%ecx),%dl
     a5c:	00 00                	add    %al,(%eax)
     a5e:	21 17                	and    %edx,(%edi)
     a60:	6f                   	outsl  %ds:(%esi),(%dx)
     a61:	00 00                	add    %al,(%eax)
     a63:	00 02                	add    %al,(%edx)
     a65:	91                   	xchg   %eax,%ecx
     a66:	04 02                	add    $0x2,%al
     a68:	6e                   	outsb  %ds:(%esi),(%dx)
     a69:	75 6d                	jne    ad8 <start_-0xff534>
     a6b:	00 21                	add    %ah,(%ecx)
     a6d:	25 7d 00 00 00       	and    $0x7d,%eax
     a72:	02 91 08 04 67 05    	add    0x5670408(%ecx),%dl
     a78:	00 00                	add    %al,(%eax)
     a7a:	23 0e                	and    (%esi),%ecx
     a7c:	1a 01                	sbb    (%ecx),%al
     a7e:	00 00                	add    %al,(%eax)
     a80:	02 91 74 06 03 74    	add    0x74030674(%ecx),%dl
     a86:	10 c0                	adc    %al,%al
     a88:	29 00                	sub    %eax,(%eax)
     a8a:	00 00                	add    %al,(%eax)
     a8c:	03 69 00             	add    0x0(%ecx),%ebp
     a8f:	24 11                	and    $0x11,%al
     a91:	7d 00                	jge    a93 <start_-0xff579>
     a93:	00 00                	add    %al,(%eax)
     a95:	02 91 78 00 00 0e    	add    0xe000078(%ecx),%dl
     a9b:	04 07                	add    $0x7,%al
     a9d:	46                   	inc    %esi
     a9e:	05 00 00 10 86       	add    $0x86100000,%eax
     aa3:	01 00                	add    %eax,(%eax)
     aa5:	00 6e 73             	add    %ch,0x73(%esi)
     aa8:	10 c0                	adc    %al,%al
     aaa:	8a 00                	mov    (%eax),%al
     aac:	00 00                	add    %al,(%eax)
     aae:	01 9c 17 02 00 00 05 	add    %ebx,0x5000002(%edi,%edx,1)
     ab5:	2c 05                	sub    $0x5,%al
     ab7:	00 00                	add    %al,(%eax)
     ab9:	10 0f                	adc    %cl,(%edi)
     abb:	86 01                	xchg   %al,(%ecx)
     abd:	00 00                	add    %al,(%eax)
     abf:	02 91 00 02 73 72    	add    0x72730200(%ecx),%dl
     ac5:	63 00                	arpl   %ax,(%eax)
     ac7:	10 21                	adc    %ah,(%ecx)
     ac9:	14 01                	adc    $0x1,%al
     acb:	00 00                	add    %al,(%eax)
     acd:	02 91 04 02 6e 75    	add    0x756e0204(%ecx),%dl
     ad3:	6d                   	insl   (%dx),%es:(%edi)
     ad4:	00 10                	add    %dl,(%eax)
     ad6:	2d 7d 00 00 00       	sub    $0x7d,%eax
     adb:	02 91 08 04 55 05    	add    0x5550408(%ecx),%dl
     ae1:	00 00                	add    %al,(%eax)
     ae3:	12 0e                	adc    (%esi),%cl
     ae5:	1a 01                	sbb    (%ecx),%al
     ae7:	00 00                	add    %al,(%eax)
     ae9:	02 91 70 04 65 05    	add    0x5650470(%ecx),%dl
     aef:	00 00                	add    %al,(%eax)
     af1:	13 14 17             	adc    (%edi,%edx,1),%edx
     af4:	02 00                	add    (%eax),%al
     af6:	00 02                	add    %al,(%edx)
     af8:	91                   	xchg   %eax,%ecx
     af9:	6c                   	insb   (%dx),%es:(%edi)
     afa:	0f 89 73 10 c0 33    	jns    33c01b73 <__init_hhk_end+0x33afbbb5>
     b00:	00 00                	add    %al,(%eax)
     b02:	00 00                	add    %al,(%eax)
     b04:	02 00                	add    (%eax),%al
     b06:	00 03                	add    %al,(%ebx)
     b08:	69 00 15 15 7d 00    	imul   $0x7d1515,(%eax),%eax
     b0e:	00 00                	add    %al,(%eax)
     b10:	02 91 78 00 06 bc    	add    -0x43f9ff88(%ecx),%dl
     b16:	73 10                	jae    b28 <start_-0xff4e4>
     b18:	c0 34 00 00          	shlb   $0x0,(%eax,%eax,1)
     b1c:	00 03                	add    %al,(%ebx)
     b1e:	69 00 19 15 7d 00    	imul   $0x7d1519,(%eax),%eax
     b24:	00 00                	add    %al,(%eax)
     b26:	02 91 74 00 00 08    	add    0x8000074(%ecx),%dl
     b2c:	4e                   	dec    %esi
     b2d:	00 00                	add    %al,(%eax)
     b2f:	00 10                	add    %dl,(%eax)
     b31:	72 05                	jb     b38 <start_-0xff4d4>
     b33:	00 00                	add    %al,(%eax)
     b35:	01 05 01 86 01 00    	add    %eax,0x18601
     b3b:	00 21                	add    %ah,(%ecx)
     b3d:	73 10                	jae    b4f <start_-0xff4bd>
     b3f:	c0 4d 00 00          	rorb   $0x0,0x0(%ebp)
     b43:	00 01                	add    %al,(%ecx)
     b45:	9c                   	pushf  
     b46:	05 2c 05 00 00       	add    $0x52c,%eax
     b4b:	05 0e 86 01 00       	add    $0x1860e,%eax
     b50:	00 02                	add    %al,(%edx)
     b52:	91                   	xchg   %eax,%ecx
     b53:	00 02                	add    %al,(%edx)
     b55:	73 72                	jae    bc9 <start_-0xff443>
     b57:	63 00                	arpl   %ax,(%eax)
     b59:	05 20 14 01 00       	add    $0x11420,%eax
     b5e:	00 02                	add    %al,(%edx)
     b60:	91                   	xchg   %eax,%ecx
     b61:	04 02                	add    $0x2,%al
     b63:	6e                   	outsb  %ds:(%esi),(%dx)
     b64:	75 6d                	jne    bd3 <start_-0xff439>
     b66:	00 05 2c 7d 00 00    	add    %al,0x7d2c
     b6c:	00 02                	add    %al,(%edx)
     b6e:	91                   	xchg   %eax,%ecx
     b6f:	08 04 55 05 00 00 07 	or     %al,0x7000005(,%edx,2)
     b76:	0e                   	push   %cs
     b77:	1a 01                	sbb    (%ecx),%al
     b79:	00 00                	add    %al,(%eax)
     b7b:	02 91 74 04 65 05    	add    0x5650474(%ecx),%dl
     b81:	00 00                	add    %al,(%eax)
     b83:	08 14 17             	or     %dl,(%edi,%edx,1)
     b86:	02 00                	add    (%eax),%al
     b88:	00 02                	add    %al,(%edx)
     b8a:	91                   	xchg   %eax,%ecx
     b8b:	70 06                	jo     b93 <start_-0xff479>
     b8d:	34 73                	xor    $0x73,%al
     b8f:	10 c0                	adc    %al,%al
     b91:	32 00                	xor    (%eax),%al
     b93:	00 00                	add    %al,(%eax)
     b95:	03 69 00             	add    0x0(%ecx),%ebp
     b98:	09 11                	or     %edx,(%ecx)
     b9a:	7d 00                	jge    b9c <start_-0xff470>
     b9c:	00 00                	add    %al,(%eax)
     b9e:	02 91 78 00 00 00    	add    0x78(%ecx),%dl
     ba4:	65 02 00             	add    %gs:(%eax),%al
     ba7:	00 05 00 01 04 e3    	add    %al,0xe3040100
     bad:	04 00                	add    $0x0,%al
     baf:	00 0b                	add    %cl,(%ebx)
     bb1:	14 00                	adc    $0x0,%al
     bb3:	00 00                	add    %al,(%eax)
     bb5:	0c 6a                	or     $0x6a,%al
     bb7:	01 00                	add    %eax,(%eax)
     bb9:	00 0a                	add    %cl,(%edx)
     bbb:	00 00                	add    %al,(%eax)
     bbd:	00 99 74 10 c0 f1    	add    %bl,-0xe3fef8c(%ecx)
     bc3:	02 00                	add    (%eax),%al
     bc5:	00 93 05 00 00 04    	add    %dl,0x4000005(%ebx)
     bcb:	83 05 00 00 02 28 1b 	addl   $0x1b,0x28020000
     bd2:	32 00                	xor    (%eax),%al
     bd4:	00 00                	add    %al,(%eax)
     bd6:	0c 04                	or     $0x4,%al
     bd8:	af                   	scas   %es:(%edi),%eax
     bd9:	05 00 00 3c 00       	add    $0x3c0000,%eax
     bde:	00 00                	add    %al,(%eax)
     be0:	02 01                	add    (%ecx),%al
     be2:	06                   	push   %es
     be3:	83 00 00             	addl   $0x0,(%eax)
     be6:	00 0d 3c 00 00 00    	add    %cl,0x3c
     bec:	04 8a                	add    $0x8a,%al
     bee:	05 00 00 02 63       	add    $0x63020000,%eax
     bf3:	18 26                	sbb    %ah,(%esi)
     bf5:	00 00                	add    %al,(%eax)
     bf7:	00 02                	add    %al,(%edx)
     bf9:	04 05                	add    $0x5,%al
     bfb:	c1 00 00             	roll   $0x0,(%eax)
     bfe:	00 04 3f             	add    %al,(%edi,%edi,1)
     c01:	05 00 00 03 d1       	add    $0xd1030000,%eax
     c06:	17                   	pop    %ss
     c07:	67 00 00             	add    %al,(%bx,%si)
     c0a:	00 02                	add    %al,(%edx)
     c0c:	04 07                	add    $0x7,%al
     c0e:	aa                   	stos   %al,%es:(%edi)
     c0f:	00 00                	add    %al,(%eax)
     c11:	00 0e                	add    %cl,(%esi)
     c13:	04 05                	add    $0x5,%al
     c15:	69 6e 74 00 02 01 06 	imul   $0x6010200,0x74(%esi),%ebp
     c1c:	7c 00                	jl     c1e <start_-0xff3ee>
     c1e:	00 00                	add    %al,(%eax)
     c20:	02 02                	add    (%edx),%al
     c22:	05 ca 00 00 00       	add    $0xca,%eax
     c27:	02 08                	add    (%eax),%cl
     c29:	05 bc 00 00 00       	add    $0xbc,%eax
     c2e:	02 01                	add    (%ecx),%al
     c30:	08 7a 00             	or     %bh,0x0(%edx)
     c33:	00 00                	add    %al,(%eax)
     c35:	02 02                	add    (%edx),%al
     c37:	07                   	pop    %es
     c38:	88 00                	mov    %al,(%eax)
     c3a:	00 00                	add    %al,(%eax)
     c3c:	02 08                	add    (%eax),%cl
     c3e:	07                   	pop    %es
     c3f:	a5                   	movsl  %ds:(%esi),%es:(%edi)
     c40:	00 00                	add    %al,(%eax)
     c42:	00 02                	add    %al,(%edx)
     c44:	04 07                	add    $0x7,%al
     c46:	af                   	scas   %es:(%edi),%eax
     c47:	00 00                	add    %al,(%eax)
     c49:	00 04 ca             	add    %al,(%edx,%ecx,8)
     c4c:	01 00                	add    %eax,(%eax)
     c4e:	00 04 56             	add    %al,(%esi,%edx,2)
     c51:	1a 67 00             	sbb    0x0(%edi),%ah
     c54:	00 00                	add    %al,(%eax)
     c56:	05 1b 05 00 00       	add    $0x51b,%eax
     c5b:	05 05 07 d7 00       	add    $0xd70705,%eax
     c60:	00 00                	add    %al,(%eax)
     c62:	d7                   	xlat   %ds:(%ebx)
     c63:	00 00                	add    %al,(%eax)
     c65:	00 01                	add    %al,(%ecx)
     c67:	9f                   	lahf   
     c68:	00 00                	add    %al,(%eax)
     c6a:	00 01                	add    %al,(%ecx)
     c6c:	d7                   	xlat   %ds:(%ebx)
     c6d:	00 00                	add    %al,(%eax)
     c6f:	00 01                	add    %al,(%ecx)
     c71:	6e                   	outsb  %ds:(%esi),(%dx)
     c72:	00 00                	add    %al,(%eax)
     c74:	00 01                	add    %al,(%ecx)
     c76:	dc 00                	faddl  (%eax)
     c78:	00 00                	add    %al,(%eax)
     c7a:	00 06                	add    %al,(%esi)
     c7c:	3c 00                	cmp    $0x0,%al
     c7e:	00 00                	add    %al,(%eax)
     c80:	06                   	push   %es
     c81:	9f                   	lahf   
     c82:	00 00                	add    %al,(%eax)
     c84:	00 05 0b 05 00 00    	add    %al,0x50b
     c8a:	05 06 07 d7 00       	add    $0xd70706,%eax
     c8f:	00 00                	add    %al,(%eax)
     c91:	06                   	push   %es
     c92:	01 00                	add    %eax,(%eax)
     c94:	00 01                	add    %al,(%ecx)
     c96:	6e                   	outsb  %ds:(%esi),(%dx)
     c97:	00 00                	add    %al,(%eax)
     c99:	00 01                	add    %al,(%ecx)
     c9b:	d7                   	xlat   %ds:(%ebx)
     c9c:	00 00                	add    %al,(%eax)
     c9e:	00 01                	add    %al,(%ecx)
     ca0:	6e                   	outsb  %ds:(%esi),(%dx)
     ca1:	00 00                	add    %al,(%eax)
     ca3:	00 01                	add    %al,(%ecx)
     ca5:	dc 00                	faddl  (%eax)
     ca7:	00 00                	add    %al,(%eax)
     ca9:	00 05 38 05 00 00    	add    %al,0x538
     caf:	06                   	push   %es
     cb0:	13 01                	adc    (%ecx),%eax
     cb2:	5b                   	pop    %ebx
     cb3:	00 00                	add    %al,(%eax)
     cb5:	00 1c 01             	add    %bl,(%ecx,%eax,1)
     cb8:	00 00                	add    %al,(%eax)
     cba:	01 1c 01             	add    %ebx,(%ecx,%eax,1)
     cbd:	00 00                	add    %al,(%eax)
     cbf:	00 06                	add    %al,(%esi)
     cc1:	43                   	inc    %ebx
     cc2:	00 00                	add    %al,(%eax)
     cc4:	00 05 31 05 00 00    	add    %al,0x531
     cca:	06                   	push   %es
     ccb:	16                   	push   %ss
     ccc:	01 d7                	add    %edx,%edi
     cce:	00 00                	add    %al,(%eax)
     cd0:	00 3c 01             	add    %bh,(%ecx,%eax,1)
     cd3:	00 00                	add    %al,(%eax)
     cd5:	01 d7                	add    %edx,%edi
     cd7:	00 00                	add    %al,(%eax)
     cd9:	00 01                	add    %al,(%ecx)
     cdb:	1c 01                	sbb    $0x1,%al
     cdd:	00 00                	add    %al,(%eax)
     cdf:	00 0f                	add    %cl,(%edi)
     ce1:	c6 05 00 00 01 5a 01 	movb   $0x1,0x5a010000
     ce8:	62 77 10             	bound  %esi,0x10(%edi)
     ceb:	c0 28 00             	shrb   $0x0,(%eax)
     cee:	00 00                	add    %al,(%eax)
     cf0:	01 9c 7e 01 00 00 07 	add    %ebx,0x7000001(%esi,%edi,2)
     cf7:	b9 08 00 00 5a       	mov    $0x5a000008,%ecx
     cfc:	0f d7                	(bad)  
     cfe:	00 00                	add    %al,(%eax)
     d00:	00 02                	add    %al,(%edx)
     d02:	91                   	xchg   %eax,%ecx
     d03:	00 0a                	add    %cl,(%edx)
     d05:	66 6d                	insw   (%dx),%es:(%edi)
     d07:	74 00                	je     d09 <start_-0xff303>
     d09:	5a                   	pop    %edx
     d0a:	1d d7 00 00 00       	sbb    $0xd7,%eax
     d0f:	02 91 04 10 08 aa    	add    -0x55f7effc(%ecx),%dl
     d15:	05 00 00 5c 0d       	add    $0xd5c0000,%eax
     d1a:	48                   	dec    %eax
     d1b:	00 00                	add    %al,(%eax)
     d1d:	00 02                	add    %al,(%edx)
     d1f:	91                   	xchg   %eax,%ecx
     d20:	6c                   	insb   (%dx),%es:(%edi)
     d21:	00 11                	add    %dl,(%ecx)
     d23:	92                   	xchg   %eax,%edx
     d24:	05 00 00 01 08       	add    $0x8010000,%eax
     d29:	01 99 74 10 c0 c9    	add    %ebx,-0x363fef8c(%ecx)
     d2f:	02 00                	add    (%eax),%al
     d31:	00 01                	add    %al,(%ecx)
     d33:	9c                   	pushf  
     d34:	07                   	pop    %es
     d35:	b9 08 00 00 08       	mov    $0x8000008,%ecx
     d3a:	1a d7                	sbb    %bh,%dl
     d3c:	00 00                	add    %al,(%eax)
     d3e:	00 02                	add    %al,(%edx)
     d40:	91                   	xchg   %eax,%ecx
     d41:	00 0a                	add    %cl,(%edx)
     d43:	66 6d                	insw   (%dx),%es:(%edi)
     d45:	74 00                	je     d47 <start_-0xff2c5>
     d47:	08 28                	or     %ch,(%eax)
     d49:	d7                   	xlat   %ds:(%ebx)
     d4a:	00 00                	add    %al,(%eax)
     d4c:	00 02                	add    %al,(%edx)
     d4e:	91                   	xchg   %eax,%ecx
     d4f:	04 07                	add    $0x7,%al
     d51:	aa                   	stos   %al,%es:(%edi)
     d52:	05 00 00 08 35       	add    $0x35080000,%eax
     d57:	48                   	dec    %eax
     d58:	00 00                	add    %al,(%eax)
     d5a:	00 02                	add    %al,(%edx)
     d5c:	91                   	xchg   %eax,%ecx
     d5d:	08 03                	or     %al,(%ebx)
     d5f:	63 00                	arpl   %ax,(%eax)
     d61:	0a 0a                	or     (%edx),%cl
     d63:	3c 00                	cmp    $0x0,%al
     d65:	00 00                	add    %al,(%eax)
     d67:	02 91 67 03 6e 75    	add    0x756e0367(%ecx),%dl
     d6d:	6d                   	insl   (%dx),%es:(%edi)
     d6e:	00 0b                	add    %cl,(%ebx)
     d70:	09 6e 00             	or     %ebp,0x0(%esi)
     d73:	00 00                	add    %al,(%eax)
     d75:	02 91 54 03 70 74    	add    0x74700354(%ecx),%dl
     d7b:	72 00                	jb     d7d <start_-0xff28f>
     d7d:	0c 12                	or     $0x12,%al
     d7f:	9f                   	lahf   
     d80:	00 00                	add    %al,(%eax)
     d82:	00 02                	add    %al,(%edx)
     d84:	91                   	xchg   %eax,%ecx
     d85:	6c                   	insb   (%dx),%es:(%edi)
     d86:	03 61 64             	add    0x64(%ecx),%esp
     d89:	76 00                	jbe    d8b <start_-0xff281>
     d8b:	0d 12 9f 00 00       	or     $0x9f12,%eax
     d90:	00 02                	add    %al,(%edx)
     d92:	91                   	xchg   %eax,%ecx
     d93:	4c                   	dec    %esp
     d94:	09 52 75             	or     %edx,0x75(%edx)
     d97:	10 c0                	adc    %al,%al
     d99:	43                   	inc    %ebx
     d9a:	00 00                	add    %al,(%eax)
     d9c:	00 0c 02             	add    %cl,(%edx,%eax,1)
     d9f:	00 00                	add    %al,(%eax)
     da1:	03 73 74             	add    0x74(%ebx),%esi
     da4:	72 00                	jb     da6 <start_-0xff266>
     da6:	1c 1b                	sbb    $0x1b,%al
     da8:	d7                   	xlat   %ds:(%ebx)
     da9:	00 00                	add    %al,(%eax)
     dab:	00 02                	add    %al,(%edx)
     dad:	91                   	xchg   %eax,%ecx
     dae:	5c                   	pop    %esp
     daf:	00 09                	add    %cl,(%ecx)
     db1:	c9                   	leave  
     db2:	75 10                	jne    dc4 <start_-0xff248>
     db4:	c0 34 00 00          	shlb   $0x0,(%eax,%eax,1)
     db8:	00 28                	add    %ch,(%eax)
     dba:	02 00                	add    (%eax),%al
     dbc:	00 08                	add    %cl,(%eax)
     dbe:	c1 05 00 00 29 22 9f 	roll   $0x9f,0x22290000
     dc5:	00 00                	add    %al,(%eax)
     dc7:	00 02                	add    %al,(%edx)
     dc9:	91                   	xchg   %eax,%ecx
     dca:	60                   	pusha  
     dcb:	00 09                	add    %cl,(%ecx)
     dcd:	6b 76 10 c0          	imul   $0xffffffc0,0x10(%esi),%esi
     dd1:	43                   	inc    %ebx
     dd2:	00 00                	add    %al,(%eax)
     dd4:	00 4f 02             	add    %cl,0x2(%edi)
     dd7:	00 00                	add    %al,(%eax)
     dd9:	03 70 00             	add    0x0(%eax),%esi
     ddc:	38 1d 6e 00 00 00    	cmp    %bl,0x6e
     de2:	02 91 68 03 63 5f    	add    0x5f630368(%ecx),%dl
     de8:	00 39                	add    %bh,(%ecx)
     dea:	1e                   	push   %ds
     deb:	3c 00                	cmp    $0x0,%al
     ded:	00 00                	add    %al,(%eax)
     def:	02 91 53 00 12 b0    	add    -0x4fedffad(%ecx),%dl
     df5:	76 10                	jbe    e07 <start_-0xff205>
     df7:	c0 5e 00 00          	rcrb   $0x0,0x0(%esi)
     dfb:	00 08                	add    %cl,(%eax)
     dfd:	a5                   	movsl  %ds:(%esi),%es:(%edi)
     dfe:	05 00 00 42 1f       	add    $0x1f420000,%eax
     e03:	a6                   	cmpsb  %es:(%edi),%ds:(%esi)
     e04:	00 00                	add    %al,(%eax)
     e06:	00 02                	add    %al,(%edx)
     e08:	91                   	xchg   %eax,%ecx
     e09:	58                   	pop    %eax
     e0a:	00 00                	add    %al,(%eax)
     e0c:	00 e0                	add    %ah,%al
     e0e:	00 00                	add    %al,(%eax)
     e10:	00 05 00 01 04 eb    	add    %al,0xeb040100
     e16:	05 00 00 06 14       	add    $0x14060000,%eax
     e1b:	00 00                	add    %al,(%eax)
     e1d:	00 0c bd 01 00 00 0a 	add    %cl,0xa000001(,%edi,4)
     e24:	00 00                	add    %al,(%eax)
     e26:	00 8a 77 10 c0 45    	add    %cl,0x45c01077(%edx)
     e2c:	00 00                	add    %al,(%eax)
     e2e:	00 d9                	add    %bl,%cl
     e30:	06                   	push   %es
     e31:	00 00                	add    %al,(%eax)
     e33:	03 83 05 00 00 28    	add    0x28000005(%ebx),%eax
     e39:	1b 31                	sbb    (%ecx),%esi
     e3b:	00 00                	add    %al,(%eax)
     e3d:	00 07                	add    %al,(%edi)
     e3f:	04 af                	add    $0xaf,%al
     e41:	05 00 00 3b 00       	add    $0x3b0000,%eax
     e46:	00 00                	add    %al,(%eax)
     e48:	02 01                	add    (%ecx),%al
     e4a:	06                   	push   %es
     e4b:	83 00 00             	addl   $0x0,(%eax)
     e4e:	00 03                	add    %al,(%ebx)
     e50:	8a 05 00 00 63 18    	mov    0x18630000,%al
     e56:	26 00 00             	add    %al,%es:(%eax)
     e59:	00 02                	add    %al,(%edx)
     e5b:	02 07                	add    (%edi),%al
     e5d:	88 00                	mov    %al,(%eax)
     e5f:	00 00                	add    %al,(%eax)
     e61:	04 ce                	add    $0xce,%al
     e63:	05 00 00 03 1c       	add    $0x1c030000,%eax
     e68:	65 00 00             	add    %al,%gs:(%eax)
     e6b:	00 01                	add    %al,(%ecx)
     e6d:	65 00 00             	add    %al,%gs:(%eax)
     e70:	00 00                	add    %al,(%eax)
     e72:	08 04 3b             	or     %al,(%ebx,%edi,1)
     e75:	00 00                	add    %al,(%eax)
     e77:	00 04 92             	add    %al,(%edx,%edx,4)
     e7a:	05 00 00 04 06       	add    $0x6040000,%eax
     e7f:	86 00                	xchg   %al,(%eax)
     e81:	00 00                	add    %al,(%eax)
     e83:	01 65 00             	add    %esp,0x0(%ebp)
     e86:	00 00                	add    %al,(%eax)
     e88:	01 65 00             	add    %esp,0x0(%ebp)
     e8b:	00 00                	add    %al,(%eax)
     e8d:	01 42 00             	add    %eax,0x0(%edx)
     e90:	00 00                	add    %al,(%eax)
     e92:	00 09                	add    %cl,(%ecx)
     e94:	c7 05 00 00 01 07 06 	movl   $0x10778a06,0x7010000
     e9b:	8a 77 10 
     e9e:	c0 45 00 00          	rolb   $0x0,0x0(%ebp)
     ea2:	00 01                	add    %al,(%ecx)
     ea4:	9c                   	pushf  
     ea5:	cb                   	lret   
     ea6:	00 00                	add    %al,(%eax)
     ea8:	00 0a                	add    %cl,(%edx)
     eaa:	66 6d                	insw   (%dx),%es:(%edi)
     eac:	74 00                	je     eae <start_-0xff15e>
     eae:	01 07                	add    %eax,(%edi)
     eb0:	13 65 00             	adc    0x0(%ebp),%esp
     eb3:	00 00                	add    %al,(%eax)
     eb5:	02 91 00 0b 05 b9    	add    -0x46faf500(%ecx),%dl
     ebb:	08 00                	or     %al,(%eax)
     ebd:	00 08                	add    %cl,(%eax)
     ebf:	0a cb                	or     %bl,%cl
     ec1:	00 00                	add    %al,(%eax)
     ec3:	00 03                	add    %al,(%ebx)
     ec5:	91                   	xchg   %eax,%ecx
     ec6:	f0 77 05             	lock ja ece <start_-0xff13e>
     ec9:	aa                   	stos   %al,%es:(%edi)
     eca:	05 00 00 09 0d       	add    $0xd090000,%eax
     ecf:	42                   	inc    %edx
     ed0:	00 00                	add    %al,(%eax)
     ed2:	00 03                	add    %al,(%ebx)
     ed4:	91                   	xchg   %eax,%ecx
     ed5:	ec                   	in     (%dx),%al
     ed6:	77 00                	ja     ed8 <start_-0xff134>
     ed8:	0c 3b                	or     $0x3b,%al
     eda:	00 00                	add    %al,(%eax)
     edc:	00 dc                	add    %bl,%ah
     ede:	00 00                	add    %al,(%eax)
     ee0:	00 0d dc 00 00 00    	add    %cl,0xdc
     ee6:	ff 03                	incl   (%ebx)
     ee8:	00 02                	add    %al,(%edx)
     eea:	04 07                	add    $0x7,%al
     eec:	aa                   	stos   %al,%es:(%edi)
     eed:	00 00                	add    %al,(%eax)
     eef:	00 00                	add    %al,(%eax)
     ef1:	ce                   	into   
     ef2:	03 00                	add    (%eax),%eax
     ef4:	00 05 00 01 04 a0    	add    %al,0xa0040100
     efa:	06                   	push   %es
     efb:	00 00                	add    %al,(%eax)
     efd:	0c 14                	or     $0x14,%al
     eff:	00 00                	add    %al,(%eax)
     f01:	00 0c f8             	add    %cl,(%eax,%edi,8)
     f04:	01 00                	add    %eax,(%eax)
     f06:	00 0a                	add    %cl,(%edx)
     f08:	00 00                	add    %al,(%eax)
     f0a:	00 00                	add    %al,(%eax)
     f0c:	60                   	pusha  
     f0d:	10 c0                	adc    %al,%al
     f0f:	e4 03                	in     $0x3,%al
     f11:	00 00                	add    %al,(%eax)
     f13:	46                   	inc    %esi
     f14:	07                   	pop    %es
     f15:	00 00                	add    %al,(%eax)
     f17:	03 01                	add    (%ecx),%eax
     f19:	06                   	push   %es
     f1a:	7c 00                	jl     f1c <start_-0xff0f0>
     f1c:	00 00                	add    %al,(%eax)
     f1e:	03 02                	add    (%edx),%eax
     f20:	05 ca 00 00 00       	add    $0xca,%eax
     f25:	03 04 05 c1 00 00 00 	add    0xc1(,%eax,1),%eax
     f2c:	03 08                	add    (%eax),%ecx
     f2e:	05 bc 00 00 00       	add    $0xbc,%eax
     f33:	04 9c                	add    $0x9c,%al
     f35:	04 00                	add    $0x0,%al
     f37:	00 02                	add    %al,(%edx)
     f39:	2e 18 4e 00          	sbb    %cl,%cs:0x0(%esi)
     f3d:	00 00                	add    %al,(%eax)
     f3f:	03 01                	add    (%ecx),%eax
     f41:	08 7a 00             	or     %bh,0x0(%edx)
     f44:	00 00                	add    %al,(%eax)
     f46:	03 02                	add    (%edx),%eax
     f48:	07                   	pop    %es
     f49:	88 00                	mov    %al,(%eax)
     f4b:	00 00                	add    %al,(%eax)
     f4d:	04 42                	add    $0x42,%al
     f4f:	01 00                	add    %eax,(%eax)
     f51:	00 02                	add    %al,(%edx)
     f53:	34 19                	xor    $0x19,%al
     f55:	68 00 00 00 03       	push   $0x3000000
     f5a:	04 07                	add    $0x7,%al
     f5c:	aa                   	stos   %al,%es:(%edi)
     f5d:	00 00                	add    %al,(%eax)
     f5f:	00 03                	add    %al,(%ebx)
     f61:	08 07                	or     %al,(%edi)
     f63:	a5                   	movsl  %ds:(%esi),%es:(%edi)
     f64:	00 00                	add    %al,(%eax)
     f66:	00 0d 04 05 69 6e    	add    %cl,0x6e690504
     f6c:	74 00                	je     f6e <start_-0xff09e>
     f6e:	03 04 07             	add    (%edi,%eax,1),%eax
     f71:	af                   	scas   %es:(%edi),%eax
     f72:	00 00                	add    %al,(%eax)
     f74:	00 04 ca             	add    %al,(%edx,%ecx,8)
     f77:	01 00                	add    %eax,(%eax)
     f79:	00 02                	add    %al,(%edx)
     f7b:	56                   	push   %esi
     f7c:	1a 68 00             	sbb    0x0(%eax),%ch
     f7f:	00 00                	add    %al,(%eax)
     f81:	04 6a                	add    $0x6a,%al
     f83:	02 00                	add    (%eax),%al
     f85:	00 03                	add    %al,(%ebx)
     f87:	39 16                	cmp    %edx,(%esi)
     f89:	7d 00                	jge    f8b <start_-0xff081>
     f8b:	00 00                	add    %al,(%eax)
     f8d:	04 28                	add    $0x28,%al
     f8f:	06                   	push   %es
     f90:	00 00                	add    %al,(%eax)
     f92:	03 3a                	add    (%edx),%edi
     f94:	16                   	push   %ss
     f95:	7d 00                	jge    f97 <start_-0xff075>
     f97:	00 00                	add    %al,(%eax)
     f99:	04 e7                	add    $0xe7,%al
     f9b:	05 00 00 03 3b       	add    $0x3b030000,%eax
     fa0:	16                   	push   %ss
     fa1:	7d 00                	jge    fa3 <start_-0xff069>
     fa3:	00 00                	add    %al,(%eax)
     fa5:	04 3f                	add    $0x3f,%al
     fa7:	05 00 00 04 d1       	add    $0xd1040000,%eax
     fac:	17                   	pop    %ss
     fad:	68 00 00 00 0a       	push   $0xa000000
     fb2:	3e 06                	ds push %es
     fb4:	00 00                	add    %al,(%eax)
     fb6:	05 3e 05 76 00       	add    $0x76053e,%eax
     fbb:	00 00                	add    %al,(%eax)
     fbd:	d6                   	(bad)  
     fbe:	00 00                	add    %al,(%eax)
     fc0:	00 06                	add    %al,(%esi)
     fc2:	d6                   	(bad)  
     fc3:	00 00                	add    %al,(%eax)
     fc5:	00 00                	add    %al,(%eax)
     fc7:	0e                   	push   %cs
     fc8:	04 0a                	add    $0xa,%al
     fca:	5e                   	pop    %esi
     fcb:	05 00 00 06 10       	add    $0x10060000,%eax
     fd0:	01 d6                	add    %edx,%esi
     fd2:	00 00                	add    %al,(%eax)
     fd4:	00 f8                	add    %bh,%al
     fd6:	00 00                	add    %al,(%eax)
     fd8:	00 06                	add    %al,(%esi)
     fda:	d6                   	(bad)  
     fdb:	00 00                	add    %al,(%eax)
     fdd:	00 06                	add    %al,(%esi)
     fdf:	76 00                	jbe    fe1 <start_-0xff02b>
     fe1:	00 00                	add    %al,(%eax)
     fe3:	06                   	push   %es
     fe4:	b4 00                	mov    $0x0,%ah
     fe6:	00 00                	add    %al,(%eax)
     fe8:	00 0f                	add    %cl,(%edi)
     fea:	61                   	popa   
     feb:	06                   	push   %es
     fec:	00 00                	add    %al,(%eax)
     fee:	05 2e 07 d6 00       	add    $0xd6072e,%eax
     ff3:	00 00                	add    %al,(%eax)
     ff5:	0a 01                	or     (%ecx),%al
     ff7:	00 00                	add    %al,(%eax)
     ff9:	10 00                	adc    %al,(%eax)
     ffb:	11 7d 06             	adc    %edi,0x6(%ebp)
     ffe:	00 00                	add    %al,(%eax)
    1000:	01 7f 07             	add    %edi,0x7(%edi)
    1003:	d6                   	(bad)  
    1004:	00 00                	add    %al,(%eax)
    1006:	00 4c 63 10          	add    %cl,0x10(%ebx,%eiz,2)
    100a:	c0 98 00 00 00 01 9c 	rcrb   $0x9c,0x1000000(%eax)
    1011:	a7                   	cmpsl  %es:(%edi),%ds:(%esi)
    1012:	01 00                	add    %eax,(%eax)
    1014:	00 05 76 61 00 7f    	add    %al,0x7f006176
    101a:	15 d6 00 00 00       	adc    $0xd6,%eax
    101f:	02 91 00 02 17 06    	add    0x6170200(%ecx),%dl
    1025:	00 00                	add    %al,(%eax)
    1027:	80 0f 84             	orb    $0x84,(%edi)
    102a:	00 00                	add    %al,(%eax)
    102c:	00 02                	add    %al,(%edx)
    102e:	91                   	xchg   %eax,%ecx
    102f:	78 02                	js     1033 <start_-0xfefd9>
    1031:	04 06                	add    $0x6,%al
    1033:	00 00                	add    %al,(%eax)
    1035:	81 0f 84 00 00 00    	orl    $0x84,(%edi)
    103b:	02 91 74 01 70 6f    	add    0x6f700174(%ecx),%dl
    1041:	00 82 0f 84 00 00    	add    %al,0x840f(%edx)
    1047:	00 02                	add    %al,(%edx)
    1049:	91                   	xchg   %eax,%ecx
    104a:	70 02                	jo     104e <start_-0xfefbe>
    104c:	0e                   	push   %cs
    104d:	06                   	push   %es
    104e:	00 00                	add    %al,(%eax)
    1050:	83 0c a7 01          	orl    $0x1,(%edi,%eiz,4)
    1054:	00 00                	add    %al,(%eax)
    1056:	02 91 6c 01 70 64    	add    0x6470016c(%ecx),%dl
    105c:	65 00 85 0b 90 00 00 	add    %al,%gs:0x900b(%ebp)
    1063:	00 02                	add    %al,(%edx)
    1065:	91                   	xchg   %eax,%ecx
    1066:	68 07 9d 63 10       	push   $0x10639d07
    106b:	c0 3e 00             	sarb   $0x0,(%esi)
    106e:	00 00                	add    %al,(%eax)
    1070:	01 70 74             	add    %esi,0x74(%eax)
    1073:	65 00 87 0e 9c 00 00 	add    %al,%gs:0x9c0e(%edi)
    107a:	00 02                	add    %al,(%edx)
    107c:	91                   	xchg   %eax,%ecx
    107d:	64 07                	fs pop %es
    107f:	c3                   	ret    
    1080:	63 10                	arpl   %dx,(%eax)
    1082:	c0 18 00             	rcrb   $0x0,(%eax)
    1085:	00 00                	add    %al,(%eax)
    1087:	01 70 70             	add    %esi,0x70(%eax)
    108a:	6e                   	outsb  %ds:(%esi),(%dx)
    108b:	00 89 17 84 00 00    	add    %cl,0x8417(%ecx)
    1091:	00 02                	add    %al,(%edx)
    1093:	91                   	xchg   %eax,%ecx
    1094:	60                   	pusha  
    1095:	00 00                	add    %al,(%eax)
    1097:	00 09                	add    %cl,(%ecx)
    1099:	90                   	nop
    109a:	00 00                	add    %al,(%eax)
    109c:	00 12                	add    %dl,(%edx)
    109e:	4c                   	dec    %esp
    109f:	06                   	push   %es
    10a0:	00 00                	add    %al,(%eax)
    10a2:	01 6b 06             	add    %ebp,0x6(%ebx)
    10a5:	aa                   	stos   %al,%es:(%edi)
    10a6:	62 10                	bound  %edx,(%eax)
    10a8:	c0 a2 00 00 00 01 9c 	shlb   $0x9c,0x1000000(%edx)
    10af:	2e 02 00             	add    %cs:(%eax),%al
    10b2:	00 05 76 70 6e 00    	add    %al,0x6e7076
    10b8:	6b 1b d6             	imul   $0xffffffd6,(%ebx),%ebx
    10bb:	00 00                	add    %al,(%eax)
    10bd:	00 02                	add    %al,(%edx)
    10bf:	91                   	xchg   %eax,%ecx
    10c0:	00 02                	add    %al,(%edx)
    10c2:	17                   	pop    %ss
    10c3:	06                   	push   %es
    10c4:	00 00                	add    %al,(%eax)
    10c6:	6c                   	insb   (%dx),%es:(%edi)
    10c7:	0f 84 00 00 00 02    	je     20010cd <__init_hhk_end+0x1efb10f>
    10cd:	91                   	xchg   %eax,%ecx
    10ce:	6c                   	insb   (%dx),%es:(%edi)
    10cf:	02 04 06             	add    (%esi,%eax,1),%al
    10d2:	00 00                	add    %al,(%eax)
    10d4:	6d                   	insl   (%dx),%es:(%edi)
    10d5:	0f 84 00 00 00 02    	je     20010db <__init_hhk_end+0x1efb11d>
    10db:	91                   	xchg   %eax,%ecx
    10dc:	68 02 0e 06 00       	push   $0x60e02
    10e1:	00 6e 0c             	add    %ch,0xc(%esi)
    10e4:	a7                   	cmpsl  %es:(%edi),%ds:(%esi)
    10e5:	01 00                	add    %eax,(%eax)
    10e7:	00 02                	add    %al,(%edx)
    10e9:	91                   	xchg   %eax,%ecx
    10ea:	64 01 70 64          	add    %esi,%fs:0x64(%eax)
    10ee:	65 00 70 0b          	add    %dh,%gs:0xb(%eax)
    10f2:	90                   	nop
    10f3:	00 00                	add    %al,(%eax)
    10f5:	00 02                	add    %al,(%edx)
    10f7:	91                   	xchg   %eax,%ecx
    10f8:	60                   	pusha  
    10f9:	07                   	pop    %es
    10fa:	ee                   	out    %al,(%dx)
    10fb:	62 10                	bound  %edx,(%eax)
    10fd:	c0 59 00 00          	rcrb   $0x0,0x0(%ecx)
    1101:	00 01                	add    %al,(%ecx)
    1103:	70 74                	jo     1179 <start_-0xfee93>
    1105:	00 73 0f             	add    %dh,0xf(%ebx)
    1108:	2e 02 00             	add    %cs:(%eax),%al
    110b:	00 02                	add    %al,(%edx)
    110d:	91                   	xchg   %eax,%ecx
    110e:	5c                   	pop    %esp
    110f:	01 70 74             	add    %esi,0x74(%eax)
    1112:	65 00 74 12 5c       	add    %dh,%gs:0x5c(%edx,%edx,1)
    1117:	00 00                	add    %al,(%eax)
    1119:	00 02                	add    %al,(%edx)
    111b:	91                   	xchg   %eax,%ecx
    111c:	58                   	pop    %eax
    111d:	00 00                	add    %al,(%eax)
    111f:	09 9c 00 00 00 0b 85 	or     %ebx,-0x7af50000(%eax,%eax,1)
    1126:	06                   	push   %es
    1127:	00 00                	add    %al,(%eax)
    1129:	62                   	(bad)  
    112a:	d6                   	(bad)  
    112b:	00 00                	add    %al,(%eax)
    112d:	00 64 62 10          	add    %ah,0x10(%edx,%eiz,2)
    1131:	c0 46 00 00          	rolb   $0x0,0x0(%esi)
    1135:	00 01                	add    %al,(%ecx)
    1137:	9c                   	pushf  
    1138:	91                   	xchg   %eax,%ecx
    1139:	02 00                	add    (%eax),%al
    113b:	00 05 76 70 6e 00    	add    %al,0x6e7076
    1141:	62 1c d6             	bound  %ebx,(%esi,%edx,8)
    1144:	00 00                	add    %al,(%eax)
    1146:	00 02                	add    %al,(%edx)
    1148:	91                   	xchg   %eax,%ecx
    1149:	00 08                	add    %cl,(%eax)
    114b:	5b                   	pop    %ebx
    114c:	06                   	push   %es
    114d:	00 00                	add    %al,(%eax)
    114f:	62 29                	bound  %ebp,(%ecx)
    1151:	a8 00                	test   $0x0,%al
    1153:	00 00                	add    %al,(%eax)
    1155:	02 91 04 08 77 06    	add    0x6770804(%ecx),%dl
    115b:	00 00                	add    %al,(%eax)
    115d:	62 38                	bound  %edi,(%eax)
    115f:	a8 00                	test   $0x0,%al
    1161:	00 00                	add    %al,(%eax)
    1163:	02 91 08 01 70 70    	add    0x70700108(%ecx),%dl
    1169:	00 63 0b             	add    %ah,0xb(%ebx)
    116c:	d6                   	(bad)  
    116d:	00 00                	add    %al,(%eax)
    116f:	00 02                	add    %al,(%edx)
    1171:	91                   	xchg   %eax,%ecx
    1172:	6c                   	insb   (%dx),%es:(%edi)
    1173:	02 37                	add    (%edi),%dh
    1175:	06                   	push   %es
    1176:	00 00                	add    %al,(%eax)
    1178:	64 0b d6             	fs or  %esi,%edx
    117b:	00 00                	add    %al,(%eax)
    117d:	00 02                	add    %al,(%edx)
    117f:	91                   	xchg   %eax,%ecx
    1180:	68 00 0b da 05       	push   $0x5da0b00
    1185:	00 00                	add    %al,(%eax)
    1187:	31 d6                	xor    %edx,%esi
    1189:	00 00                	add    %al,(%eax)
    118b:	00 71 60             	add    %dh,0x60(%ecx)
    118e:	10 c0                	adc    %al,%al
    1190:	f3 01 00             	repz add %eax,(%eax)
    1193:	00 01                	add    %al,(%ecx)
    1195:	9c                   	pushf  
    1196:	33 03                	xor    (%ebx),%eax
    1198:	00 00                	add    %al,(%eax)
    119a:	05 76 61 00 31       	add    $0x31006176,%eax
    119f:	1a d6                	sbb    %dh,%dl
    11a1:	00 00                	add    %al,(%eax)
    11a3:	00 02                	add    %al,(%edx)
    11a5:	91                   	xchg   %eax,%ecx
    11a6:	00 05 70 61 00 31    	add    %al,0x31006170
    11ac:	24 d6                	and    $0xd6,%al
    11ae:	00 00                	add    %al,(%eax)
    11b0:	00 02                	add    %al,(%edx)
    11b2:	91                   	xchg   %eax,%ecx
    11b3:	04 08                	add    $0x8,%al
    11b5:	5b                   	pop    %ebx
    11b6:	06                   	push   %es
    11b7:	00 00                	add    %al,(%eax)
    11b9:	31 30                	xor    %esi,(%eax)
    11bb:	a8 00                	test   $0x0,%al
    11bd:	00 00                	add    %al,(%eax)
    11bf:	02 91 08 08 77 06    	add    0x6770808(%ecx),%dl
    11c5:	00 00                	add    %al,(%eax)
    11c7:	31 3f                	xor    %edi,(%edi)
    11c9:	a8 00                	test   $0x0,%al
    11cb:	00 00                	add    %al,(%eax)
    11cd:	02 91 0c 02 17 06    	add    0x617020c(%ecx),%dl
    11d3:	00 00                	add    %al,(%eax)
    11d5:	37                   	aaa    
    11d6:	0f 84 00 00 00 02    	je     20011dc <__init_hhk_end+0x1efb21e>
    11dc:	91                   	xchg   %eax,%ecx
    11dd:	6c                   	insb   (%dx),%es:(%edi)
    11de:	02 04 06             	add    (%esi,%eax,1),%al
    11e1:	00 00                	add    %al,(%eax)
    11e3:	38 0f                	cmp    %cl,(%edi)
    11e5:	84 00                	test   %al,(%eax)
    11e7:	00 00                	add    %al,(%eax)
    11e9:	02 91 68 01 70 74    	add    0x74700168(%ecx),%dl
    11ef:	64 00 39             	add    %bh,%fs:(%ecx)
    11f2:	0c a7                	or     $0xa7,%al
    11f4:	01 00                	add    %eax,(%eax)
    11f6:	00 02                	add    %al,(%edx)
    11f8:	91                   	xchg   %eax,%ecx
    11f9:	5c                   	pop    %esp
    11fa:	01 70 64             	add    %esi,0x64(%eax)
    11fd:	65 00 3c 0c          	add    %bh,%gs:(%esp,%ecx,1)
    1201:	a7                   	cmpsl  %es:(%edi),%ds:(%esi)
    1202:	01 00                	add    %eax,(%eax)
    1204:	00 02                	add    %al,(%edx)
    1206:	91                   	xchg   %eax,%ecx
    1207:	64 01 70 74          	add    %esi,%fs:0x74(%eax)
    120b:	00 3d 0b 2e 02 00    	add    %bh,0x22e0b
    1211:	00 02                	add    %al,(%edx)
    1213:	91                   	xchg   %eax,%ecx
    1214:	60                   	pusha  
    1215:	02 2d 06 00 00 53    	add    0x53000006,%ch
    121b:	0e                   	push   %cs
    121c:	33 03                	xor    (%ebx),%eax
    121e:	00 00                	add    %al,(%eax)
    1220:	02 91 58 00 09 42    	add    0x42090058(%ecx),%dl
    1226:	00 00                	add    %al,(%eax)
    1228:	00 13                	add    %dl,(%ebx)
    122a:	ef                   	out    %eax,(%dx)
    122b:	05 00 00 01 24       	add    $0x24010000,%eax
    1230:	08 a7 01 00 00 14    	or     %ah,0x14000001(%edi)
    1236:	60                   	pusha  
    1237:	10 c0                	adc    %al,%al
    1239:	5d                   	pop    %ebp
    123a:	00 00                	add    %al,(%eax)
    123c:	00 01                	add    %al,(%ecx)
    123e:	9c                   	pushf  
    123f:	77 03                	ja     1244 <start_-0xfedc8>
    1241:	00 00                	add    %al,(%eax)
    1243:	01 64 69 72          	add    %esp,0x72(%ecx,%ebp,2)
    1247:	00 25 0c a7 01 00    	add    %ah,0x1a70c
    124d:	00 02                	add    %al,(%edx)
    124f:	91                   	xchg   %eax,%ecx
    1250:	68 07 20 60 10       	push   $0x10602007
    1255:	c0 30 00             	shlb   $0x0,(%eax)
    1258:	00 00                	add    %al,(%eax)
    125a:	01 69 00             	add    %ebp,0x0(%ecx)
    125d:	26 11 b4 00 00 00 02 	adc    %esi,%es:-0x6efe0000(%eax,%eax,1)
    1264:	91 
    1265:	6c                   	insb   (%dx),%es:(%edi)
    1266:	00 00                	add    %al,(%eax)
    1268:	14 fb                	adc    $0xfb,%al
    126a:	05 00 00 01 20       	add    $0x20010000,%eax
    126f:	06                   	push   %es
    1270:	12 60 10             	adc    0x10(%eax),%ah
    1273:	c0 02 00             	rolb   $0x0,(%edx)
    1276:	00 00                	add    %al,(%eax)
    1278:	01 9c 15 70 06 00 00 	add    %ebx,0x670(%ebp,%edx,1)
    127f:	01 14 06             	add    %edx,(%esi,%eax,1)
    1282:	10 60 10             	adc    %ah,0x10(%eax)
    1285:	c0 02 00             	rolb   $0x0,(%edx)
    1288:	00 00                	add    %al,(%eax)
    128a:	01 9c ad 03 00 00 05 	add    %ebx,0x5000003(%ebp,%ebp,4)
    1291:	70 64                	jo     12f7 <start_-0xfed15>
    1293:	00 14 14             	add    %dl,(%esp,%edx,1)
    1296:	a7                   	cmpsl  %es:(%edi),%ds:(%esi)
    1297:	01 00                	add    %eax,(%eax)
    1299:	00 02                	add    %al,(%edx)
    129b:	91                   	xchg   %eax,%ecx
    129c:	00 00                	add    %al,(%eax)
    129e:	16                   	push   %ss
    129f:	21 06                	and    %eax,(%esi)
    12a1:	00 00                	add    %al,(%eax)
    12a3:	01 08                	add    %ecx,(%eax)
    12a5:	08 a7 01 00 00 00    	or     %ah,0x1(%edi)
    12ab:	60                   	pusha  
    12ac:	10 c0                	adc    %al,%al
    12ae:	10 00                	adc    %al,(%eax)
    12b0:	00 00                	add    %al,(%eax)
    12b2:	01 9c 01 70 64 00 09 	add    %ebx,0x9006470(%ecx,%eax,1)
    12b9:	0c a7                	or     $0xa7,%al
    12bb:	01 00                	add    %eax,(%eax)
    12bd:	00 02                	add    %al,(%edx)
    12bf:	91                   	xchg   %eax,%ecx
    12c0:	78 00                	js     12c2 <start_-0xfed4a>
    12c2:	00 4f 03             	add    %cl,0x3(%edi)
    12c5:	00 00                	add    %al,(%eax)
    12c7:	05 00 01 04 30       	add    $0x30040100,%eax
    12cc:	08 00                	or     %al,(%eax)
    12ce:	00 0a                	add    %cl,(%edx)
    12d0:	14 00                	adc    $0x0,%al
    12d2:	00 00                	add    %al,(%eax)
    12d4:	0c 18                	or     $0x18,%al
    12d6:	02 00                	add    (%eax),%al
    12d8:	00 0a                	add    %cl,(%edx)
    12da:	00 00                	add    %al,(%eax)
    12dc:	00 e4                	add    %ah,%ah
    12de:	63 10                	arpl   %dx,(%eax)
    12e0:	c0 61 04 00          	shlb   $0x0,0x4(%ecx)
    12e4:	00 50 09             	add    %dl,0x9(%eax)
    12e7:	00 00                	add    %al,(%eax)
    12e9:	02 01                	add    (%ecx),%al
    12eb:	06                   	push   %es
    12ec:	7c 00                	jl     12ee <start_-0xfed1e>
    12ee:	00 00                	add    %al,(%eax)
    12f0:	02 02                	add    (%edx),%al
    12f2:	05 ca 00 00 00       	add    $0xca,%eax
    12f7:	02 04 05 c1 00 00 00 	add    0xc1(,%eax,1),%al
    12fe:	02 08                	add    (%eax),%cl
    1300:	05 bc 00 00 00       	add    $0xbc,%eax
    1305:	05 9c 04 00 00       	add    $0x49c,%eax
    130a:	02 2e                	add    (%esi),%ch
    130c:	18 4e 00             	sbb    %cl,0x0(%esi)
    130f:	00 00                	add    %al,(%eax)
    1311:	02 01                	add    (%ecx),%al
    1313:	08 7a 00             	or     %bh,0x0(%edx)
    1316:	00 00                	add    %al,(%eax)
    1318:	02 02                	add    (%edx),%al
    131a:	07                   	pop    %es
    131b:	88 00                	mov    %al,(%eax)
    131d:	00 00                	add    %al,(%eax)
    131f:	05 42 01 00 00       	add    $0x142,%eax
    1324:	02 34 19             	add    (%ecx,%ebx,1),%dh
    1327:	68 00 00 00 02       	push   $0x2000000
    132c:	04 07                	add    $0x7,%al
    132e:	aa                   	stos   %al,%es:(%edi)
    132f:	00 00                	add    %al,(%eax)
    1331:	00 02                	add    %al,(%edx)
    1333:	08 07                	or     %al,(%edi)
    1335:	a5                   	movsl  %ds:(%esi),%es:(%edi)
    1336:	00 00                	add    %al,(%eax)
    1338:	00 0b                	add    %cl,(%ebx)
    133a:	04 05                	add    $0x5,%al
    133c:	69 6e 74 00 02 04 07 	imul   $0x7040200,0x74(%esi),%ebp
    1343:	af                   	scas   %es:(%edi),%eax
    1344:	00 00                	add    %al,(%eax)
    1346:	00 05 ca 01 00 00    	add    %al,0x1ca
    134c:	02 56 1a             	add    0x1a(%esi),%dl
    134f:	68 00 00 00 05       	push   $0x5000000
    1354:	3f                   	aas    
    1355:	05 00 00 03 d1       	add    $0xd1030000,%eax
    135a:	17                   	pop    %ss
    135b:	68 00 00 00 0c       	push   $0xc000000
    1360:	42                   	inc    %edx
    1361:	00 00                	add    %al,(%eax)
    1363:	00 af 00 00 00 0d    	add    %ch,0xd000000(%edi)
    1369:	68 00 00 00 ff       	push   $0xff000000
    136e:	ff 01                	incl   (%ecx)
    1370:	00 00                	add    %al,(%eax)
    1372:	08 94 06 00 00 10 09 	or     %dl,0x9100000(%esi,%eax,1)
    1379:	9c                   	pushf  
    137a:	00 00                	add    %al,(%eax)
    137c:	00 05 03 00 80 10    	add    %al,0x10800003
    1382:	c0 08 15             	rorb   $0x15,(%eax)
    1385:	07                   	pop    %es
    1386:	00 00                	add    %al,(%eax)
    1388:	12 0b                	adc    (%ebx),%cl
    138a:	84 00                	test   %al,(%eax)
    138c:	00 00                	add    %al,(%eax)
    138e:	05 03 00 80 12       	add    $0x12800003,%eax
    1393:	c0 08 1c             	rorb   $0x1c,(%eax)
    1396:	07                   	pop    %es
    1397:	00 00                	add    %al,(%eax)
    1399:	4d                   	dec    %ebp
    139a:	08 90 00 00 00 05    	or     %dl,0x5000000(%eax)
    13a0:	03 04 80             	add    (%eax,%eax,4),%eax
    13a3:	12 c0                	adc    %al,%al
    13a5:	0e                   	push   %cs
    13a6:	3e 06                	ds push %es
    13a8:	00 00                	add    %al,(%eax)
    13aa:	01 81 01 76 00 00    	add    %eax,0x7601(%ecx)
    13b0:	00 09                	add    %cl,(%ecx)
    13b2:	68 10 c0 3c 00       	push   $0x3cc010
    13b7:	00 00                	add    %al,(%eax)
    13b9:	01 9c 18 01 00 00 04 	add    %ebx,0x4000001(%eax,%ebx,1)
    13c0:	6b 06 00             	imul   $0x0,(%esi),%eax
    13c3:	00 81 15 18 01 00    	add    %al,0x11815(%ecx)
    13c9:	00 02                	add    %al,(%edx)
    13cb:	91                   	xchg   %eax,%ecx
    13cc:	00 03                	add    %al,(%ebx)
    13ce:	70 67                	jo     1437 <start_-0xfebd5>
    13d0:	00 84 0e 5c 00 00 00 	add    %al,0x5c(%esi,%ecx,1)
    13d7:	02 91 78 00 0f 04    	add    0x40f0078(%ecx),%dl
    13dd:	10 61 06             	adc    %ah,0x6(%ecx)
    13e0:	00 00                	add    %al,(%eax)
    13e2:	01 5d 01             	add    %ebx,0x1(%ebp)
    13e5:	18 01                	sbb    %al,(%ecx)
    13e7:	00 00                	add    %al,(%eax)
    13e9:	10 67 10             	adc    %ah,0x10(%edi)
    13ec:	c0 f9 00             	sar    $0x0,%cl
    13ef:	00 00                	add    %al,(%eax)
    13f1:	01 9c 83 01 00 00 01 	add    %ebx,0x1000001(%ebx,%eax,4)
    13f8:	9e                   	sahf   
    13f9:	06                   	push   %es
    13fa:	00 00                	add    %al,(%eax)
    13fc:	60                   	pusha  
    13fd:	0f 84 00 00 00 02    	je     2001403 <__init_hhk_end+0x1efb445>
    1403:	91                   	xchg   %eax,%ecx
    1404:	74 01                	je     1407 <start_-0xfec05>
    1406:	54                   	push   %esp
    1407:	07                   	pop    %es
    1408:	00 00                	add    %al,(%eax)
    140a:	61                   	popa   
    140b:	0c 90                	or     $0x90,%al
    140d:	00 00                	add    %al,(%eax)
    140f:	00 02                	add    %al,(%edx)
    1411:	91                   	xchg   %eax,%ecx
    1412:	70 01                	jo     1415 <start_-0xfebf7>
    1414:	b2 06                	mov    $0x6,%dl
    1416:	00 00                	add    %al,(%eax)
    1418:	62 0c 90             	bound  %ecx,(%eax,%edx,4)
    141b:	00 00                	add    %al,(%eax)
    141d:	00 02                	add    %al,(%edx)
    141f:	91                   	xchg   %eax,%ecx
    1420:	6c                   	insb   (%dx),%es:(%edi)
    1421:	01 e7                	add    %esp,%edi
    1423:	06                   	push   %es
    1424:	00 00                	add    %al,(%eax)
    1426:	63 0d 42 00 00 00    	arpl   %cx,0x42
    142c:	02 91 67 06 52 67    	add    0x67520667(%ecx),%dl
    1432:	10 c0                	adc    %al,%al
    1434:	5d                   	pop    %ebp
    1435:	00 00                	add    %al,(%eax)
    1437:	00 03                	add    %al,(%ebx)
    1439:	69 00 69 19 90 00    	imul   $0x901969,(%eax),%eax
    143f:	00 00                	add    %al,(%eax)
    1441:	02 91 68 00 00 07    	add    0x7000068(%ecx),%dl
    1447:	de 06                	fiadds (%esi)
    1449:	00 00                	add    %al,(%eax)
    144b:	50                   	push   %eax
    144c:	cc                   	int3   
    144d:	66 10 c0             	data16 adc %al,%al
    1450:	44                   	inc    %esp
    1451:	00 00                	add    %al,(%eax)
    1453:	00 01                	add    %al,(%ecx)
    1455:	9c                   	pushf  
    1456:	bc 01 00 00 04       	mov    $0x4000001,%esp
    145b:	ae                   	scas   %es:(%edi),%al
    145c:	06                   	push   %es
    145d:	00 00                	add    %al,(%eax)
    145f:	50                   	push   %eax
    1460:	14 84                	adc    $0x84,%al
    1462:	00 00                	add    %al,(%eax)
    1464:	00 02                	add    %al,(%edx)
    1466:	91                   	xchg   %eax,%ecx
    1467:	00 06                	add    %al,(%esi)
    1469:	e5 66                	in     $0x66,%eax
    146b:	10 c0                	adc    %al,%al
    146d:	25 00 00 00 03       	and    $0x3000000,%eax
    1472:	69 00 57 11 90 00    	imul   $0x901157,(%eax),%eax
    1478:	00 00                	add    %al,(%eax)
    147a:	02 91 78 00 00 07    	add    0x7000078(%ecx),%dl
    1480:	c6 06 00             	movb   $0x0,(%esi)
    1483:	00 39                	add    %bh,(%ecx)
    1485:	a1 65 10 c0 2b       	mov    0x2bc01065,%eax
    148a:	01 00                	add    %eax,(%eax)
    148c:	00 01                	add    %al,(%ecx)
    148e:	9c                   	pushf  
    148f:	49                   	dec    %ecx
    1490:	02 00                	add    (%eax),%al
    1492:	00 04 bc             	add    %al,(%esp,%edi,4)
    1495:	06                   	push   %es
    1496:	00 00                	add    %al,(%eax)
    1498:	39 22                	cmp    %esp,(%edx)
    149a:	5c                   	pop    %esp
    149b:	00 00                	add    %al,(%eax)
    149d:	00 02                	add    %al,(%edx)
    149f:	91                   	xchg   %eax,%ecx
    14a0:	00 04 0a             	add    %al,(%edx,%ecx,1)
    14a3:	07                   	pop    %es
    14a4:	00 00                	add    %al,(%eax)
    14a6:	39 34 90             	cmp    %esi,(%eax,%edx,4)
    14a9:	00 00                	add    %al,(%eax)
    14ab:	00 02                	add    %al,(%edx)
    14ad:	91                   	xchg   %eax,%ecx
    14ae:	04 01                	add    $0x1,%al
    14b0:	ed                   	in     (%dx),%eax
    14b1:	06                   	push   %es
    14b2:	00 00                	add    %al,(%eax)
    14b4:	3b 05 5c 00 00 00    	cmp    0x5c,%eax
    14ba:	02 91 74 01 1a 06    	add    0x61a0174(%ecx),%dl
    14c0:	00 00                	add    %al,(%eax)
    14c2:	3b 05 5c 00 00 00    	cmp    0x5c,%eax
    14c8:	02 91 6c 01 2a 07    	add    0x72a016c(%ecx),%dl
    14ce:	00 00                	add    %al,(%eax)
    14d0:	3b 05 5c 00 00 00    	cmp    0x5c,%eax
    14d6:	02 91 68 01 4a 07    	add    0x74a0168(%ecx),%dl
    14dc:	00 00                	add    %al,(%eax)
    14de:	3b 05 5c 00 00 00    	cmp    0x5c,%eax
    14e4:	02 91 64 01 72 07    	add    0x7720164(%ecx),%dl
    14ea:	00 00                	add    %al,(%eax)
    14ec:	3b 05 5c 00 00 00    	cmp    0x5c,%eax
    14f2:	02 91 60 06 48 66    	add    0x66480660(%ecx),%dl
    14f8:	10 c0                	adc    %al,%al
    14fa:	34 00                	xor    $0x0,%al
    14fc:	00 00                	add    %al,(%eax)
    14fe:	03 69 00             	add    0x0(%ecx),%ebp
    1501:	42                   	inc    %edx
    1502:	13 5c 00 00          	adc    0x0(%eax,%eax,1),%ebx
    1506:	00 02                	add    %al,(%edx)
    1508:	91                   	xchg   %eax,%ecx
    1509:	70 00                	jo     150b <start_-0xfeb01>
    150b:	00 07                	add    %al,(%edi)
    150d:	36 07                	ss pop %es
    150f:	00 00                	add    %al,(%eax)
    1511:	25 72 64 10 c0       	and    $0xc0106472,%eax
    1516:	2f                   	das    
    1517:	01 00                	add    %eax,(%eax)
    1519:	00 01                	add    %al,(%ecx)
    151b:	9c                   	pushf  
    151c:	d6                   	(bad)  
    151d:	02 00                	add    (%eax),%al
    151f:	00 04 bc             	add    %al,(%esp,%edi,4)
    1522:	06                   	push   %es
    1523:	00 00                	add    %al,(%eax)
    1525:	25 1f 84 00 00       	and    $0x841f,%eax
    152a:	00 02                	add    %al,(%edx)
    152c:	91                   	xchg   %eax,%ecx
    152d:	00 04 0a             	add    %al,(%edx,%ecx,1)
    1530:	07                   	pop    %es
    1531:	00 00                	add    %al,(%eax)
    1533:	25 31 90 00 00       	and    $0x9031,%eax
    1538:	00 02                	add    %al,(%edx)
    153a:	91                   	xchg   %eax,%ecx
    153b:	04 01                	add    $0x1,%al
    153d:	ed                   	in     (%dx),%eax
    153e:	06                   	push   %es
    153f:	00 00                	add    %al,(%eax)
    1541:	27                   	daa    
    1542:	05 5c 00 00 00       	add    $0x5c,%eax
    1547:	02 91 74 01 1a 06    	add    0x61a0174(%ecx),%dl
    154d:	00 00                	add    %al,(%eax)
    154f:	27                   	daa    
    1550:	05 5c 00 00 00       	add    $0x5c,%eax
    1555:	02 91 6c 01 2a 07    	add    0x72a016c(%ecx),%dl
    155b:	00 00                	add    %al,(%eax)
    155d:	27                   	daa    
    155e:	05 5c 00 00 00       	add    $0x5c,%eax
    1563:	02 91 68 01 4a 07    	add    0x74a0168(%ecx),%dl
    1569:	00 00                	add    %al,(%eax)
    156b:	27                   	daa    
    156c:	05 5c 00 00 00       	add    $0x5c,%eax
    1571:	02 91 64 01 72 07    	add    0x7720164(%ecx),%dl
    1577:	00 00                	add    %al,(%eax)
    1579:	27                   	daa    
    157a:	05 5c 00 00 00       	add    $0x5c,%eax
    157f:	02 91 60 06 1b 65    	add    0x651b0660(%ecx),%dl
    1585:	10 c0                	adc    %al,%al
    1587:	34 00                	xor    $0x0,%al
    1589:	00 00                	add    %al,(%eax)
    158b:	03 69 00             	add    0x0(%ecx),%ebp
    158e:	30 13                	xor    %dl,(%ebx)
    1590:	5c                   	pop    %esp
    1591:	00 00                	add    %al,(%eax)
    1593:	00 02                	add    %al,(%edx)
    1595:	91                   	xchg   %eax,%ecx
    1596:	70 00                	jo     1598 <start_-0xfea74>
    1598:	00 07                	add    %al,(%edi)
    159a:	f3 06                	repz push %es
    159c:	00 00                	add    %al,(%eax)
    159e:	1e                   	push   %ds
    159f:	2c 64                	sub    $0x64,%al
    15a1:	10 c0                	adc    %al,%al
    15a3:	46                   	inc    %esi
    15a4:	00 00                	add    %al,(%eax)
    15a6:	00 01                	add    %al,(%ecx)
    15a8:	9c                   	pushf  
    15a9:	15 03 00 00 09       	adc    $0x9000003,%eax
    15ae:	70 70                	jo     1620 <start_-0xfe9ec>
    15b0:	6e                   	outsb  %ds:(%esi),(%dx)
    15b1:	00 1e                	add    %bl,(%esi)
    15b3:	22 84 00 00 00 02 91 	and    -0x6efe0000(%eax,%eax,1),%al
    15ba:	00 01                	add    %al,(%ecx)
    15bc:	ed                   	in     (%dx),%eax
    15bd:	06                   	push   %es
    15be:	00 00                	add    %al,(%eax)
    15c0:	20 05 5c 00 00 00    	and    %al,0x5c
    15c6:	02 91 78 03 6d 73    	add    0x736d0378(%ecx),%dl
    15cc:	6b 00 20             	imul   $0x20,(%eax),%eax
    15cf:	05 5c 00 00 00       	add    $0x5c,%eax
    15d4:	02 91 74 00 11 5f    	add    0x5f110074(%ecx),%dl
    15da:	07                   	pop    %es
    15db:	00 00                	add    %al,(%eax)
    15dd:	01 17                	add    %edx,(%edi)
    15df:	01 e4                	add    %esp,%esp
    15e1:	63 10                	arpl   %dx,(%eax)
    15e3:	c0 48 00 00          	rorb   $0x0,0x0(%eax)
    15e7:	00 01                	add    %al,(%ecx)
    15e9:	9c                   	pushf  
    15ea:	09 70 70             	or     %esi,0x70(%eax)
    15ed:	6e                   	outsb  %ds:(%esi),(%dx)
    15ee:	00 17                	add    %dl,(%edi)
    15f0:	1e                   	push   %ds
    15f1:	84 00                	test   %al,(%eax)
    15f3:	00 00                	add    %al,(%eax)
    15f5:	02 91 00 01 ed 06    	add    0x6ed0100(%ecx),%dl
    15fb:	00 00                	add    %al,(%eax)
    15fd:	19 05 5c 00 00 00    	sbb    %eax,0x5c
    1603:	02 91 78 03 6d 73    	add    0x736d0378(%ecx),%dl
    1609:	6b 00 19             	imul   $0x19,(%eax),%eax
    160c:	05 5c 00 00 00       	add    $0x5c,%eax
    1611:	02 91 74 00 00 4c    	add    0x4c000074(%ecx),%dl
    1617:	06                   	push   %es
    1618:	00 00                	add    %al,(%eax)
    161a:	05 00 01 04 55       	add    $0x55040100,%eax
    161f:	09 00                	or     %eax,(%eax)
    1621:	00 17                	add    %dl,(%edi)
    1623:	14 00                	adc    $0x0,%al
    1625:	00 00                	add    %al,(%eax)
    1627:	0c 28                	or     $0x28,%al
    1629:	02 00                	add    (%eax),%al
    162b:	00 0a                	add    %cl,(%edx)
    162d:	00 00                	add    %al,(%eax)
    162f:	00 45 68             	add    %al,0x68(%ebp)
    1632:	10 c0                	adc    %al,%al
    1634:	da 03                	fiaddl (%ebx)
    1636:	00 00                	add    %al,(%eax)
    1638:	0b 0c 00             	or     (%eax,%eax,1),%ecx
    163b:	00 04 01             	add    %al,(%ecx,%eax,1)
    163e:	06                   	push   %es
    163f:	7c 00                	jl     1641 <start_-0xfe9cb>
    1641:	00 00                	add    %al,(%eax)
    1643:	04 02                	add    $0x2,%al
    1645:	05 ca 00 00 00       	add    $0xca,%eax
    164a:	04 04                	add    $0x4,%al
    164c:	05 c1 00 00 00       	add    $0xc1,%eax
    1651:	04 08                	add    $0x8,%al
    1653:	05 bc 00 00 00       	add    $0xbc,%eax
    1658:	04 01                	add    $0x1,%al
    165a:	08 7a 00             	or     %bh,0x0(%edx)
    165d:	00 00                	add    %al,(%eax)
    165f:	04 02                	add    $0x2,%al
    1661:	07                   	pop    %es
    1662:	88 00                	mov    %al,(%eax)
    1664:	00 00                	add    %al,(%eax)
    1666:	04 04                	add    $0x4,%al
    1668:	07                   	pop    %es
    1669:	aa                   	stos   %al,%es:(%edi)
    166a:	00 00                	add    %al,(%eax)
    166c:	00 04 08             	add    %al,(%eax,%ecx,1)
    166f:	07                   	pop    %es
    1670:	a5                   	movsl  %ds:(%esi),%es:(%edi)
    1671:	00 00                	add    %al,(%eax)
    1673:	00 18                	add    %bl,(%eax)
    1675:	04 05                	add    $0x5,%al
    1677:	69 6e 74 00 04 04 07 	imul   $0x7040400,0x74(%esi),%ebp
    167e:	af                   	scas   %es:(%edi),%eax
    167f:	00 00                	add    %al,(%eax)
    1681:	00 03                	add    %al,(%ebx)
    1683:	ca 01 00             	lret   $0x1
    1686:	00 02                	add    %al,(%edx)
    1688:	56                   	push   %esi
    1689:	1a 50 00             	sbb    0x0(%eax),%dl
    168c:	00 00                	add    %al,(%eax)
    168e:	03 6a 08             	add    0x8(%edx),%ebp
    1691:	00 00                	add    %al,(%eax)
    1693:	03 04 18             	add    (%eax,%ebx,1),%eax
    1696:	49                   	dec    %ecx
    1697:	00 00                	add    %al,(%eax)
    1699:	00 03                	add    %al,(%ebx)
    169b:	e7 05                	out    %eax,$0x5
    169d:	00 00                	add    %al,(%eax)
    169f:	04 3b                	add    $0x3b,%al
    16a1:	16                   	push   %ss
    16a2:	65 00 00             	add    %al,%gs:(%eax)
    16a5:	00 03                	add    %al,(%ebx)
    16a7:	3f                   	aas    
    16a8:	05 00 00 05 d1       	add    $0xd1050000,%eax
    16ad:	17                   	pop    %ss
    16ae:	50                   	push   %eax
    16af:	00 00                	add    %al,(%eax)
    16b1:	00 03                	add    %al,(%ebx)
    16b3:	92                   	xchg   %eax,%edx
    16b4:	04 00                	add    $0x0,%al
    16b6:	00 06                	add    %al,(%esi)
    16b8:	49                   	dec    %ecx
    16b9:	17                   	pop    %ss
    16ba:	42                   	inc    %edx
    16bb:	00 00                	add    %al,(%eax)
    16bd:	00 03                	add    %al,(%ebx)
    16bf:	4b                   	dec    %ebx
    16c0:	01 00                	add    %eax,(%eax)
    16c2:	00 06                	add    %al,(%esi)
    16c4:	4a                   	dec    %edx
    16c5:	18 49 00             	sbb    %cl,0x0(%ecx)
    16c8:	00 00                	add    %al,(%eax)
    16ca:	03 38                	add    (%eax),%edi
    16cc:	01 00                	add    %eax,(%eax)
    16ce:	00 06                	add    %al,(%esi)
    16d0:	4b                   	dec    %ebx
    16d1:	16                   	push   %ss
    16d2:	65 00 00             	add    %al,%gs:(%eax)
    16d5:	00 03                	add    %al,(%ebx)
    16d7:	1a 03                	sbb    (%ebx),%al
    16d9:	00 00                	add    %al,(%eax)
    16db:	06                   	push   %es
    16dc:	4c                   	dec    %esp
    16dd:	1c 57                	sbb    $0x57,%al
    16df:	00 00                	add    %al,(%eax)
    16e1:	00 08                	add    %cl,(%eax)
    16e3:	00 01                	add    %al,(%ecx)
    16e5:	00 00                	add    %al,(%eax)
    16e7:	10 4e 08             	adc    %cl,0x8(%esi)
    16ea:	01 00                	add    %eax,(%eax)
    16ec:	00 01                	add    %al,(%ecx)
    16ee:	d9 03                	flds   (%ebx)
    16f0:	00 00                	add    %al,(%eax)
    16f2:	50                   	push   %eax
    16f3:	18 b4 00 00 00 00 01 	sbb    %dh,0x1000000(%eax,%eax,1)
    16fa:	c2 01 00             	ret    $0x1
    16fd:	00 51 18             	add    %dl,0x18(%ecx)
    1700:	b4 00                	mov    $0x0,%ah
    1702:	00 00                	add    %al,(%eax)
    1704:	04 01                	add    $0x1,%al
    1706:	f1                   	icebp  
    1707:	04 00                	add    $0x0,%al
    1709:	00 52 18             	add    %dl,0x18(%edx)
    170c:	b4 00                	mov    $0x0,%ah
    170e:	00 00                	add    %al,(%eax)
    1710:	08 01                	or     %al,(%ecx)
    1712:	d4 04                	aam    $0x4
    1714:	00 00                	add    %al,(%eax)
    1716:	53                   	push   %ebx
    1717:	18 b4 00 00 00 0c 00 	sbb    %dh,0xc0000(%eax,%eax,1)
    171e:	03 a4 04 00 00 06 55 	add    0x55060000(%esp,%eax,1),%esp
    1725:	27                   	daa    
    1726:	cc                   	int3   
    1727:	00 00                	add    %al,(%eax)
    1729:	00 08                	add    %cl,(%eax)
    172b:	68 03 00 00 10       	push   $0x10000003
    1730:	58                   	pop    %eax
    1731:	50                   	push   %eax
    1732:	01 00                	add    %eax,(%eax)
    1734:	00 0e                	add    %cl,(%esi)
    1736:	6e                   	outsb  %ds:(%esi),(%dx)
    1737:	75 6d                	jne    17a6 <start_-0xfe866>
    1739:	00 5a 18             	add    %bl,0x18(%edx)
    173c:	b4 00                	mov    $0x0,%ah
    173e:	00 00                	add    %al,(%eax)
    1740:	00 01                	add    %al,(%ecx)
    1742:	74 02                	je     1746 <start_-0xfe8c6>
    1744:	00 00                	add    %al,(%eax)
    1746:	5b                   	pop    %ebx
    1747:	18 b4 00 00 00 04 01 	sbb    %dh,0x1040000(%eax,%eax,1)
    174e:	f1                   	icebp  
    174f:	04 00                	add    $0x0,%al
    1751:	00 5c 18 b4          	add    %bl,-0x4c(%eax,%ebx,1)
    1755:	00 00                	add    %al,(%eax)
    1757:	00 08                	add    %cl,(%eax)
    1759:	01 03                	add    %eax,(%ebx)
    175b:	02 00                	add    (%eax),%al
    175d:	00 5d 18             	add    %bl,0x18(%ebp)
    1760:	b4 00                	mov    $0x0,%ah
    1762:	00 00                	add    %al,(%eax)
    1764:	0c 00                	or     $0x0,%al
    1766:	03 de                	add    %esi,%ebx
    1768:	01 00                	add    %eax,(%eax)
    176a:	00 06                	add    %al,(%esi)
    176c:	60                   	pusha  
    176d:	03 14 01             	add    (%ecx,%eax,1),%edx
    1770:	00 00                	add    %al,(%eax)
    1772:	0f 10 75 7a          	movups 0x7a(%ebp),%xmm6
    1776:	01 00                	add    %eax,(%eax)
    1778:	00 10                	add    %dl,(%eax)
    177a:	a2 01 00 00 77       	mov    %al,0x77000001
    177f:	22 08                	and    (%eax),%cl
    1781:	01 00                	add    %eax,(%eax)
    1783:	00 10                	add    %dl,(%eax)
    1785:	b2 02                	mov    $0x2,%dl
    1787:	00 00                	add    %al,(%eax)
    1789:	78 2e                	js     17b9 <start_-0xfe853>
    178b:	50                   	push   %eax
    178c:	01 00                	add    %eax,(%eax)
    178e:	00 00                	add    %al,(%eax)
    1790:	11 08                	adc    %ecx,(%eax)
    1792:	9f                   	lahf   
    1793:	9a 01 00 00 01 dd 04 	lcall  $0x4dd,$0x1000001
    179a:	00 00                	add    %al,(%eax)
    179c:	a1 20 b4 00 00       	mov    0xb420,%eax
    17a1:	00 00                	add    %al,(%eax)
    17a3:	01 23                	add    %esp,(%ebx)
    17a5:	02 00                	add    (%eax),%al
    17a7:	00 a2 20 a8 00 00    	add    %ah,0xa820(%edx)
    17ad:	00 04 00             	add    %al,(%eax,%eax,1)
    17b0:	11 06                	adc    %eax,(%esi)
    17b2:	a4                   	movsb  %ds:(%esi),%es:(%edi)
    17b3:	ea 01 00 00 01 5e 01 	ljmp   $0x15e,$0x1000001
    17ba:	00 00                	add    %al,(%eax)
    17bc:	a6                   	cmpsb  %es:(%edi),%ds:(%esi)
    17bd:	1f                   	pop    %ds
    17be:	9c                   	pushf  
    17bf:	00 00                	add    %al,(%eax)
    17c1:	00 00                	add    %al,(%eax)
    17c3:	01 f2                	add    %esi,%edx
    17c5:	03 00                	add    (%eax),%eax
    17c7:	00 a7 1f 9c 00 00    	add    %ah,0x9c1f(%edi)
    17cd:	00 01                	add    %al,(%ecx)
    17cf:	01 17                	add    %edx,(%edi)
    17d1:	01 00                	add    %eax,(%eax)
    17d3:	00 a8 1f 9c 00 00    	add    %ch,0x9c1f(%eax)
    17d9:	00 02                	add    %al,(%edx)
    17db:	01 27                	add    %esp,(%edi)
    17dd:	04 00                	add    $0x0,%al
    17df:	00 a9 1f 9c 00 00    	add    %ch,0x9c1f(%ecx)
    17e5:	00 03                	add    %al,(%ebx)
    17e7:	01 3e                	add    %edi,(%esi)
    17e9:	03 00                	add    (%eax),%eax
    17eb:	00 aa 1f 9c 00 00    	add    %ch,0x9c1f(%edx)
    17f1:	00 04 01             	add    %al,(%ecx,%eax,1)
    17f4:	d4 00                	aam    $0x0
    17f6:	00 00                	add    %al,(%eax)
    17f8:	ab                   	stos   %eax,%es:(%edi)
    17f9:	1f                   	pop    %ds
    17fa:	9c                   	pushf  
    17fb:	00 00                	add    %al,(%eax)
    17fd:	00 05 00 0f 08 9d    	add    %al,0x9d080f00
    1803:	fc                   	cld    
    1804:	01 00                	add    %eax,(%eax)
    1806:	00 12                	add    %dl,(%edx)
    1808:	7a 01                	jp     180b <start_-0xfe801>
    180a:	00 00                	add    %al,(%eax)
    180c:	12 9a 01 00 00 00    	adc    0x1(%edx),%bl
    1812:	08 0b                	or     %cl,(%ebx)
    1814:	03 00                	add    (%eax),%eax
    1816:	00 78 62             	add    %bh,0x62(%eax)
    1819:	50                   	push   %eax
    181a:	03 00                	add    (%eax),%eax
    181c:	00 01                	add    %al,(%ecx)
    181e:	14 09                	adc    $0x9,%al
    1820:	00 00                	add    %al,(%eax)
    1822:	65 18 b4 00 00 00 00 	sbb    %dh,%gs:0x1000000(%eax,%eax,1)
    1829:	01 
    182a:	ba 02 00 00 68       	mov    $0x68000002,%edx
    182f:	18 b4 00 00 00 04 01 	sbb    %dh,0x1040000(%eax,%eax,1)
    1836:	ae                   	scas   %es:(%edi),%al
    1837:	03 00                	add    (%eax),%eax
    1839:	00 69 18             	add    %ch,0x18(%ecx)
    183c:	b4 00                	mov    $0x0,%ah
    183e:	00 00                	add    %al,(%eax)
    1840:	08 01                	or     %al,(%ecx)
    1842:	42                   	inc    %edx
    1843:	02 00                	add    (%eax),%al
    1845:	00 6c 18 b4          	add    %ch,-0x4c(%eax,%ebx,1)
    1849:	00 00                	add    %al,(%eax)
    184b:	00 0c 01             	add    %cl,(%ecx,%eax,1)
    184e:	89 01                	mov    %eax,(%ecx)
    1850:	00 00                	add    %al,(%eax)
    1852:	6f                   	outsl  %ds:(%esi),(%dx)
    1853:	18 b4 00 00 00 10 01 	sbb    %dh,0x1100000(%eax,%eax,1)
    185a:	87 04 00             	xchg   %eax,(%eax,%eax,1)
    185d:	00 72 18             	add    %dh,0x18(%edx)
    1860:	b4 00                	mov    $0x0,%ah
    1862:	00 00                	add    %al,(%eax)
    1864:	14 01                	adc    $0x1,%al
    1866:	ab                   	stos   %eax,%es:(%edi)
    1867:	01 00                	add    %eax,(%eax)
    1869:	00 73 18             	add    %dh,0x18(%ebx)
    186c:	b4 00                	mov    $0x0,%ah
    186e:	00 00                	add    %al,(%eax)
    1870:	18 0e                	sbb    %cl,(%esi)
    1872:	75 00                	jne    1874 <start_-0xfe798>
    1874:	79 07                	jns    187d <start_-0xfe78f>
    1876:	5c                   	pop    %esp
    1877:	01 00                	add    %eax,(%eax)
    1879:	00 1c 01             	add    %bl,(%ecx,%eax,1)
    187c:	f1                   	icebp  
    187d:	02 00                	add    (%eax),%al
    187f:	00 7c 18 b4          	add    %bh,-0x4c(%eax,%ebx,1)
    1883:	00 00                	add    %al,(%eax)
    1885:	00 2c 01             	add    %ch,(%ecx,%eax,1)
    1888:	88 02                	mov    %al,(%edx)
    188a:	00 00                	add    %al,(%eax)
    188c:	7d 18                	jge    18a6 <start_-0xfe766>
    188e:	b4 00                	mov    $0x0,%ah
    1890:	00 00                	add    %al,(%eax)
    1892:	30 01                	xor    %al,(%ecx)
    1894:	0c 04                	or     $0x4,%al
    1896:	00 00                	add    %al,(%eax)
    1898:	80 18 b4             	sbbb   $0xb4,(%eax)
    189b:	00 00                	add    %al,(%eax)
    189d:	00 34 01             	add    %dh,(%ecx,%eax,1)
    18a0:	7d 01                	jge    18a3 <start_-0xfe769>
    18a2:	00 00                	add    %al,(%eax)
    18a4:	81 18 b4 00 00 00    	sbbl   $0xb4,(%eax)
    18aa:	38 01                	cmp    %al,(%ecx)
    18ac:	1a 04 00             	sbb    (%eax,%eax,1),%al
    18af:	00 84 18 b4 00 00 00 	add    %al,0xb4(%eax,%ebx,1)
    18b6:	3c 01                	cmp    $0x1,%al
    18b8:	59                   	pop    %ecx
    18b9:	02 00                	add    (%eax),%al
    18bb:	00 87 18 b4 00 00    	add    %al,0xb418(%edi)
    18c1:	00 40 01             	add    %al,0x1(%eax)
    18c4:	09 02                	or     %eax,(%edx)
    18c6:	00 00                	add    %al,(%eax)
    18c8:	8a 18                	mov    (%eax),%bl
    18ca:	b4 00                	mov    $0x0,%ah
    18cc:	00 00                	add    %al,(%eax)
    18ce:	44                   	inc    %esp
    18cf:	01 a1 02 00 00 8d    	add    %esp,-0x72fffffe(%ecx)
    18d5:	18 b4 00 00 00 48 01 	sbb    %dh,0x1480000(%eax,%eax,1)
    18dc:	cb                   	lret   
    18dd:	03 00                	add    (%eax),%eax
    18df:	00 8e 18 b4 00 00    	add    %cl,0xb418(%esi)
    18e5:	00 4c 01 d6          	add    %cl,-0x2a(%ecx,%eax,1)
    18e9:	02 00                	add    (%eax),%al
    18eb:	00 8f 18 a8 00 00    	add    %cl,0xa818(%edi)
    18f1:	00 50 01             	add    %dl,0x1(%eax)
    18f4:	bd 04 00 00 90       	mov    $0x90000004,%ebp
    18f9:	18 a8 00 00 00 52    	sbb    %ch,0x52000000(%eax)
    18ff:	01 c4                	add    %eax,%esp
    1901:	02 00                	add    (%eax),%al
    1903:	00 91 18 a8 00 00    	add    %dl,0xa818(%ecx)
    1909:	00 54 01 75          	add    %dl,0x75(%ecx,%eax,1)
    190d:	04 00                	add    $0x0,%al
    190f:	00 92 18 a8 00 00    	add    %dl,0xa818(%edx)
    1915:	00 56 01             	add    %dl,0x1(%esi)
    1918:	ef                   	out    %eax,(%dx)
    1919:	00 00                	add    %al,(%eax)
    191b:	00 94 18 c0 00 00 00 	add    %dl,0xc0(%eax,%ebx,1)
    1922:	58                   	pop    %eax
    1923:	01 8b 03 00 00 95    	add    %ecx,-0x6afffffd(%ebx)
    1929:	18 b4 00 00 00 60 01 	sbb    %dh,0x1600000(%eax,%eax,1)
    1930:	df 02                	filds  (%edx)
    1932:	00 00                	add    %al,(%eax)
    1934:	96                   	xchg   %eax,%esi
    1935:	18 b4 00 00 00 64 01 	sbb    %dh,0x1640000(%eax,%eax,1)
    193c:	62 04 00             	bound  %eax,(%eax,%eax,1)
    193f:	00 97 18 b4 00 00    	add    %dl,0xb418(%edi)
    1945:	00 68 01             	add    %ch,0x1(%eax)
    1948:	13 02                	adc    (%edx),%eax
    194a:	00 00                	add    %al,(%eax)
    194c:	98                   	cwtl   
    194d:	17                   	pop    %ss
    194e:	9c                   	pushf  
    194f:	00 00                	add    %al,(%eax)
    1951:	00 6c 01 9d          	add    %ch,-0x63(%ecx,%eax,1)
    1955:	03 00                	add    (%eax),%eax
    1957:	00 9c 17 9c 00 00 00 	add    %bl,0x9c(%edi,%edx,1)
    195e:	6d                   	insl   (%dx),%es:(%edi)
    195f:	19 ea                	sbb    %ebp,%edx
    1961:	01 00                	add    %eax,(%eax)
    1963:	00 70 00             	add    %dh,0x0(%eax)
    1966:	03 43 04             	add    0x4(%ebx),%eax
    1969:	00 00                	add    %al,(%eax)
    196b:	06                   	push   %es
    196c:	af                   	scas   %es:(%edi),%eax
    196d:	1f                   	pop    %ds
    196e:	fc                   	cld    
    196f:	01 00                	add    %eax,(%eax)
    1971:	00 08                	add    %cl,(%eax)
    1973:	e3 07                	jecxz  197c <start_-0xfe690>
    1975:	00 00                	add    %al,(%eax)
    1977:	18 b8 b0 03 00 00    	sbb    %bh,0x3b0(%eax)
    197d:	01 74 02 00          	add    %esi,0x0(%edx,%eax,1)
    1981:	00 ba 18 b4 00 00    	add    %bh,0xb418(%edx)
    1987:	00 00                	add    %al,(%eax)
    1989:	01 ae 07 00 00 bb    	add    %ebp,-0x44fffff9(%esi)
    198f:	18 b4 00 00 00 04 01 	sbb    %dh,0x1040000(%eax,%eax,1)
    1996:	9c                   	pushf  
    1997:	07                   	pop    %es
    1998:	00 00                	add    %al,(%eax)
    199a:	bc 18 b4 00 00       	mov    $0xb418,%esp
    199f:	00 08                	add    %cl,(%eax)
    19a1:	01 a6 07 00 00 bd    	add    %esp,-0x42fffff9(%esi)
    19a7:	18 b4 00 00 00 0c 01 	sbb    %dh,0x10c0000(%eax,%eax,1)
    19ae:	c9                   	leave  
    19af:	07                   	pop    %es
    19b0:	00 00                	add    %al,(%eax)
    19b2:	be 18 b4 00 00       	mov    $0xb418,%esi
    19b7:	00 10                	add    %dl,(%eax)
    19b9:	01 a9 03 00 00 c4    	add    %ebp,-0x3bfffffd(%ecx)
    19bf:	18 b4 00 00 00 14 00 	sbb    %dh,0x140000(%eax,%eax,1)
    19c6:	03 42 08             	add    0x8(%edx),%eax
    19c9:	00 00                	add    %al,(%eax)
    19cb:	06                   	push   %es
    19cc:	c7                   	(bad)  
    19cd:	25 5c 03 00 00       	and    $0x35c,%eax
    19d2:	04 01                	add    $0x1,%al
    19d4:	06                   	push   %es
    19d5:	83 00 00             	addl   $0x0,(%eax)
    19d8:	00 0a                	add    %cl,(%edx)
    19da:	79 02                	jns    19de <start_-0xfe62e>
    19dc:	00 00                	add    %al,(%eax)
    19de:	10 0a                	adc    %cl,(%edx)
    19e0:	b5 01                	mov    $0x1,%ch
    19e2:	00 00                	add    %al,(%eax)
    19e4:	11 0a                	adc    %ecx,(%edx)
    19e6:	92                   	xchg   %eax,%edx
    19e7:	02 00                	add    (%eax),%al
    19e9:	00 12                	add    %dl,(%edx)
    19eb:	0b 7d 06             	or     0x6(%ebp),%edi
    19ee:	00 00                	add    %al,(%eax)
    19f0:	3a e9                	cmp    %cl,%ch
    19f2:	03 00                	add    (%eax),%eax
    19f4:	00 e9                	add    %ch,%cl
    19f6:	03 00                	add    (%eax),%eax
    19f8:	00 02                	add    %al,(%edx)
    19fa:	e9 03 00 00 00       	jmp    1a02 <start_-0xfe60a>
    19ff:	1a 04 05 4c 06 00 00 	sbb    0x64c(,%eax,1),%al
    1a06:	07                   	pop    %es
    1a07:	2f                   	das    
    1a08:	fc                   	cld    
    1a09:	03 00                	add    (%eax),%eax
    1a0b:	00 02                	add    %al,(%edx)
    1a0d:	e9 03 00 00 00       	jmp    1a15 <start_-0xfe5f7>
    1a12:	0b 85 06 00 00 28    	or     0x28000006(%ebp),%eax
    1a18:	e9 03 00 00 1a       	jmp    1a001a20 <__init_hhk_end+0x19efba62>
    1a1d:	04 00                	add    $0x0,%al
    1a1f:	00 02                	add    %al,(%edx)
    1a21:	e9 03 00 00 02       	jmp    2001a29 <__init_hhk_end+0x1efba6b>
    1a26:	84 00                	test   %al,(%eax)
    1a28:	00 00                	add    %al,(%eax)
    1a2a:	02 84 00 00 00 00 05 	add    0x5000000(%eax,%eax,1),%al
    1a31:	26 08 00             	or     %al,%es:(%eax)
    1a34:	00 03                	add    %al,(%ebx)
    1a36:	19 2b                	sbb    %ebp,(%ebx)
    1a38:	04 00                	add    $0x0,%al
    1a3a:	00 02                	add    %al,(%edx)
    1a3c:	e9 03 00 00 00       	jmp    1a44 <start_-0xfe5c8>
    1a41:	0b da                	or     %edx,%ebx
    1a43:	05 00 00 20 e9       	add    $0xe9200000,%eax
    1a48:	03 00                	add    (%eax),%eax
    1a4a:	00 4e 04             	add    %cl,0x4(%esi)
    1a4d:	00 00                	add    %al,(%eax)
    1a4f:	02 e9                	add    %cl,%ch
    1a51:	03 00                	add    (%eax),%eax
    1a53:	00 02                	add    %al,(%edx)
    1a55:	e9 03 00 00 02       	jmp    2001a5d <__init_hhk_end+0x1efba9f>
    1a5a:	84 00                	test   %al,(%eax)
    1a5c:	00 00                	add    %al,(%eax)
    1a5e:	02 84 00 00 00 00 05 	add    0x5000000(%eax,%eax,1),%al
    1a65:	c6 06 00             	movb   $0x0,(%esi)
    1a68:	00 08                	add    %cl,(%eax)
    1a6a:	27                   	daa    
    1a6b:	64 04 00             	fs add $0x0,%al
    1a6e:	00 02                	add    %al,(%edx)
    1a70:	6c                   	insb   (%dx),%es:(%edi)
    1a71:	00 00                	add    %al,(%eax)
    1a73:	00 02                	add    %al,(%edx)
    1a75:	90                   	nop
    1a76:	00 00                	add    %al,(%eax)
    1a78:	00 00                	add    %al,(%eax)
    1a7a:	05 36 07 00 00       	add    $0x736,%eax
    1a7f:	08 1f                	or     %bl,(%edi)
    1a81:	7a 04                	jp     1a87 <start_-0xfe585>
    1a83:	00 00                	add    %al,(%eax)
    1a85:	02 6c 00 00          	add    0x0(%eax,%eax,1),%ch
    1a89:	00 02                	add    %al,(%edx)
    1a8b:	90                   	nop
    1a8c:	00 00                	add    %al,(%eax)
    1a8e:	00 00                	add    %al,(%eax)
    1a90:	05 c7 05 00 00       	add    $0x5c7,%eax
    1a95:	09 0a                	or     %ecx,(%edx)
    1a97:	8c 04 00             	mov    %es,(%eax,%eax,1)
    1a9a:	00 02                	add    %al,(%edx)
    1a9c:	8c 04 00             	mov    %es,(%eax,%eax,1)
    1a9f:	00 0c 00             	add    %cl,(%eax,%eax,1)
    1aa2:	0d bc 03 00 00       	or     $0x3bc,%eax
    1aa7:	05 8e 07 00 00       	add    $0x78e,%eax
    1aac:	03 1a                	add    (%edx),%ebx
    1aae:	a7                   	cmpsl  %es:(%edi),%ds:(%esi)
    1aaf:	04 00                	add    $0x0,%al
    1ab1:	00 02                	add    %al,(%edx)
    1ab3:	78 00                	js     1ab5 <start_-0xfe557>
    1ab5:	00 00                	add    %al,(%eax)
    1ab7:	02 78 00             	add    0x0(%eax),%bh
    1aba:	00 00                	add    %al,(%eax)
    1abc:	00 05 d2 07 00 00    	add    %al,0x7d2
    1ac2:	03 18                	add    (%eax),%ebx
    1ac4:	b8 04 00 00 02       	mov    $0x2000004,%eax
    1ac9:	e9 03 00 00 00       	jmp    1ad1 <start_-0xfe53b>
    1ace:	13 fb                	adc    %ebx,%edi
    1ad0:	05 00 00 07 0c       	add    $0xc070000,%eax
    1ad5:	c5 04 00             	lds    (%eax,%eax,1),%eax
    1ad8:	00 0c 00             	add    %cl,(%eax,%eax,1)
    1adb:	05 de 06 00 00       	add    $0x6de,%eax
    1ae0:	08 35 d6 04 00 00    	or     %dh,0x4d6
    1ae6:	02 6c 00 00          	add    0x0(%eax,%eax,1),%ch
    1aea:	00 00                	add    %al,(%eax)
    1aec:	13 78 08             	adc    0x8(%eax),%edi
    1aef:	00 00                	add    %al,(%eax)
    1af1:	0a 05 e3 04 00 00    	or     0x4e3,%al
    1af7:	0c 00                	or     $0x0,%al
    1af9:	14 35                	adc    $0x35,%al
    1afb:	08 00                	or     %al,(%eax)
    1afd:	00 71 06             	add    %dh,0x6(%ecx)
    1b00:	ce                   	into   
    1b01:	6b 10 c0             	imul   $0xffffffc0,(%eax),%edx
    1b04:	51                   	push   %ecx
    1b05:	00 00                	add    %al,(%eax)
    1b07:	00 01                	add    %al,(%ecx)
    1b09:	9c                   	pushf  
    1b0a:	24 05                	and    $0x5,%al
    1b0c:	00 00                	add    %al,(%eax)
    1b0e:	15 1b 08 00 00       	adc    $0x81b,%eax
    1b13:	71 19                	jno    1b2e <start_-0xfe4de>
    1b15:	e9 03 00 00 02       	jmp    2001b1d <__init_hhk_end+0x1efbb5f>
    1b1a:	91                   	xchg   %eax,%ecx
    1b1b:	00 06                	add    %al,(%esi)
    1b1d:	62 75 66             	bound  %esi,0x66(%ebp)
    1b20:	00 72 0b             	add    %dh,0xb(%edx)
    1b23:	24 05                	and    $0x5,%al
    1b25:	00 00                	add    %al,(%eax)
    1b27:	03 91 ec 7d 07 62    	add    0x62077dec(%ecx),%edx
    1b2d:	08 00                	or     %al,(%eax)
    1b2f:	00 77 0f             	add    %dh,0xf(%edi)
    1b32:	6c                   	insb   (%dx),%es:(%edi)
    1b33:	00 00                	add    %al,(%eax)
    1b35:	00 02                	add    %al,(%edx)
    1b37:	91                   	xchg   %eax,%ecx
    1b38:	6c                   	insb   (%dx),%es:(%edi)
    1b39:	00 1b                	add    %bl,(%ebx)
    1b3b:	8c 04 00             	mov    %es,(%eax,%eax,1)
    1b3e:	00 34 05 00 00 1c 50 	add    %dh,0x501c0000(,%eax,1)
    1b45:	00 00                	add    %al,(%eax)
    1b47:	00 3f                	add    %bh,(%edi)
    1b49:	00 1d b7 07 00 00    	add    %bl,0x7b7
    1b4f:	01 65 01             	add    %esp,0x1(%ebp)
    1b52:	5a                   	pop    %edx
    1b53:	6b 10 c0             	imul   $0xffffffc0,(%eax),%edx
    1b56:	74 00                	je     1b58 <start_-0xfe4b4>
    1b58:	00 00                	add    %al,(%eax)
    1b5a:	01 9c 6f 05 00 00 07 	add    %ebx,0x7000005(%edi,%ebp,2)
    1b61:	09 08                	or     %ecx,(%eax)
    1b63:	00 00                	add    %al,(%eax)
    1b65:	67 0c 90             	addr16 or $0x90,%al
    1b68:	00 00                	add    %al,(%eax)
    1b6a:	00 02                	add    %al,(%edx)
    1b6c:	91                   	xchg   %eax,%ecx
    1b6d:	68 09 8d 6b 10       	push   $0x106b8d09
    1b72:	c0 2c 00 00          	shrb   $0x0,(%eax,%eax,1)
    1b76:	00 06                	add    %al,(%esi)
    1b78:	69 00 6b 11 90 00    	imul   $0x90116b,(%eax),%eax
    1b7e:	00 00                	add    %al,(%eax)
    1b80:	02 91 6c 00 00 14    	add    0x1400006c(%ecx),%dl
    1b86:	81 07 00 00 15 01    	addl   $0x1150000,(%edi)
    1b8c:	45                   	inc    %ebp
    1b8d:	68 10 c0 15 03       	push   $0x315c010
    1b92:	00 00                	add    %al,(%eax)
    1b94:	01 9c 45 06 00 00 15 	add    %ebx,0x15000006(%ebp,%eax,2)
    1b9b:	db 07                	fildl  (%edi)
    1b9d:	00 00                	add    %al,(%eax)
    1b9f:	15 20 45 06 00       	adc    $0x64520,%eax
    1ba4:	00 02                	add    %al,(%edx)
    1ba6:	91                   	xchg   %eax,%ecx
    1ba7:	00 06                	add    %al,(%esi)
    1ba9:	6d                   	insl   (%dx),%es:(%edi)
    1baa:	61                   	popa   
    1bab:	70 00                	jo     1bad <start_-0xfe45f>
    1bad:	19 1d 4a 06 00 00    	sbb    %ebx,0x64a
    1bb3:	02 91 60 07 59 08    	add    0x8590760(%ecx),%dl
    1bb9:	00 00                	add    %al,(%eax)
    1bbb:	2d 12 65 00 00       	sub    $0x6512,%eax
    1bc0:	00 02                	add    %al,(%edx)
    1bc2:	91                   	xchg   %eax,%ecx
    1bc3:	5c                   	pop    %esp
    1bc4:	07                   	pop    %es
    1bc5:	12 08                	adc    (%eax),%cl
    1bc7:	00 00                	add    %al,(%eax)
    1bc9:	46                   	inc    %esi
    1bca:	0c 90                	or     $0x90,%al
    1bcc:	00 00                	add    %al,(%eax)
    1bce:	00 02                	add    %al,(%edx)
    1bd0:	91                   	xchg   %eax,%ecx
    1bd1:	58                   	pop    %eax
    1bd2:	07                   	pop    %es
    1bd3:	f8                   	clc    
    1bd4:	07                   	pop    %es
    1bd5:	00 00                	add    %al,(%eax)
    1bd7:	4b                   	dec    %ebx
    1bd8:	0c 90                	or     $0x90,%al
    1bda:	00 00                	add    %al,(%eax)
    1bdc:	00 02                	add    %al,(%edx)
    1bde:	91                   	xchg   %eax,%ecx
    1bdf:	54                   	push   %esp
    1be0:	16                   	push   %ss
    1be1:	df 68 10             	fildll 0x10(%eax)
    1be4:	c0 52 01 00          	rclb   $0x0,0x1(%edx)
    1be8:	00 14 06             	add    %dl,(%esi,%eax,1)
    1beb:	00 00                	add    %al,(%eax)
    1bed:	06                   	push   %es
    1bee:	69 00 35 17 65 00    	imul   $0x651735,(%eax),%eax
    1bf4:	00 00                	add    %al,(%eax)
    1bf6:	02 91 6c 09 ec 68    	add    0x68ec096c(%ecx),%dl
    1bfc:	10 c0                	adc    %al,%al
    1bfe:	32 01                	xor    (%ecx),%al
    1c00:	00 00                	add    %al,(%eax)
    1c02:	07                   	pop    %es
    1c03:	04 08                	add    $0x8,%al
    1c05:	00 00                	add    %al,(%eax)
    1c07:	36 20 b0 03 00 00 03 	and    %dh,%ss:0x3000003(%eax)
    1c0e:	91                   	xchg   %eax,%ecx
    1c0f:	b8 7f 09 94 69       	mov    $0x6994097f,%eax
    1c14:	10 c0                	adc    %al,%al
    1c16:	8a 00                	mov    (%eax),%al
    1c18:	00 00                	add    %al,(%eax)
    1c1a:	06                   	push   %es
    1c1b:	70 67                	jo     1c84 <start_-0xfe388>
    1c1d:	00 3d 17 6c 00 00    	add    %bh,0x6c17
    1c23:	00 02                	add    %al,(%edx)
    1c25:	91                   	xchg   %eax,%ecx
    1c26:	50                   	push   %eax
    1c27:	00 00                	add    %al,(%eax)
    1c29:	00 16                	add    %dl,(%esi)
    1c2b:	8f 6a 10 c0          	(bad)
    1c2f:	41                   	inc    %ecx
    1c30:	00 00                	add    %al,(%eax)
    1c32:	00 2e                	add    %ch,(%esi)
    1c34:	06                   	push   %es
    1c35:	00 00                	add    %al,(%eax)
    1c37:	06                   	push   %es
    1c38:	69 00 51 11 90 00    	imul   $0x901151,(%eax),%eax
    1c3e:	00 00                	add    %al,(%eax)
    1c40:	02 91 68 00 09 f5    	add    -0xaf6ff98(%ecx),%dl
    1c46:	6a 10                	push   $0x10
    1c48:	c0 35 00 00 00 06 69 	shlb   $0x69,0x6000000
    1c4f:	00 5c 11 90          	add    %bl,-0x70(%ecx,%edx,1)
    1c53:	00 00                	add    %al,(%eax)
    1c55:	00 02                	add    %al,(%edx)
    1c57:	91                   	xchg   %eax,%ecx
    1c58:	64 00 00             	add    %al,%fs:(%eax)
    1c5b:	0d 50 03 00 00       	or     $0x350,%eax
    1c60:	0d b0 03 00 00       	or     $0x3b0,%eax
    1c65:	00 44 02 00          	add    %al,0x0(%edx,%eax,1)
    1c69:	00 05 00 01 04 0b    	add    %al,0xb040100
    1c6f:	0b 00                	or     (%eax),%eax
    1c71:	00 0d 14 00 00 00    	add    %cl,0x14
    1c77:	0c 5d                	or     $0x5d,%al
    1c79:	02 00                	add    (%eax),%al
    1c7b:	00 0a                	add    %cl,(%edx)
    1c7d:	00 00                	add    %al,(%eax)
    1c7f:	00 1f                	add    %bl,(%edi)
    1c81:	6c                   	insb   (%dx),%es:(%edi)
    1c82:	10 c0                	adc    %al,%al
    1c84:	30 02                	xor    %al,(%edx)
    1c86:	00 00                	add    %al,(%eax)
    1c88:	f6 0d 00 00 01 04 05 	testb  $0x5,0x4010000
    1c8f:	c1 00 00             	roll   $0x0,(%eax)
    1c92:	00 02                	add    %al,(%edx)
    1c94:	3f                   	aas    
    1c95:	05 00 00 02 d1       	add    $0xd1020000,%eax
    1c9a:	17                   	pop    %ss
    1c9b:	39 00                	cmp    %eax,(%eax)
    1c9d:	00 00                	add    %al,(%eax)
    1c9f:	01 04 07             	add    %eax,(%edi,%eax,1)
    1ca2:	aa                   	stos   %al,%es:(%edi)
    1ca3:	00 00                	add    %al,(%eax)
    1ca5:	00 0e                	add    %cl,(%esi)
    1ca7:	04 05                	add    $0x5,%al
    1ca9:	69 6e 74 00 02 6a 08 	imul   $0x86a0200,0x74(%esi),%ebp
    1cb0:	00 00                	add    %al,(%eax)
    1cb2:	03 04 18             	add    (%eax,%ebx,1),%eax
    1cb5:	53                   	push   %ebx
    1cb6:	00 00                	add    %al,(%eax)
    1cb8:	00 01                	add    %al,(%ecx)
    1cba:	02 07                	add    (%edi),%al
    1cbc:	88 00                	mov    %al,(%eax)
    1cbe:	00 00                	add    %al,(%eax)
    1cc0:	01 01                	add    %eax,(%ecx)
    1cc2:	06                   	push   %es
    1cc3:	7c 00                	jl     1cc5 <start_-0xfe347>
    1cc5:	00 00                	add    %al,(%eax)
    1cc7:	01 02                	add    %eax,(%edx)
    1cc9:	05 ca 00 00 00       	add    $0xca,%eax
    1cce:	01 08                	add    %ecx,(%eax)
    1cd0:	05 bc 00 00 00       	add    $0xbc,%eax
    1cd5:	01 01                	add    %eax,(%ecx)
    1cd7:	08 7a 00             	or     %bh,0x0(%edx)
    1cda:	00 00                	add    %al,(%eax)
    1cdc:	02 55 01             	add    0x1(%ebp),%dl
    1cdf:	00 00                	add    %al,(%eax)
    1ce1:	04 31                	add    $0x31,%al
    1ce3:	19 53 00             	sbb    %edx,0x0(%ebx)
    1ce6:	00 00                	add    %al,(%eax)
    1ce8:	02 42 01             	add    0x1(%edx),%al
    1ceb:	00 00                	add    %al,(%eax)
    1ced:	04 34                	add    $0x34,%al
    1cef:	19 39                	sbb    %edi,(%ecx)
    1cf1:	00 00                	add    %al,(%eax)
    1cf3:	00 01                	add    %al,(%ecx)
    1cf5:	08 07                	or     %al,(%edi)
    1cf7:	a5                   	movsl  %ds:(%esi),%es:(%edi)
    1cf8:	00 00                	add    %al,(%eax)
    1cfa:	00 01                	add    %al,(%ecx)
    1cfc:	04 07                	add    $0x7,%al
    1cfe:	af                   	scas   %es:(%edi),%eax
    1cff:	00 00                	add    %al,(%eax)
    1d01:	00 03                	add    %al,(%ebx)
    1d03:	b1 08                	mov    $0x8,%cl
    1d05:	00 00                	add    %al,(%eax)
    1d07:	09 10                	or     %edx,(%eax)
    1d09:	ad                   	lods   %ds:(%esi),%eax
    1d0a:	00 00                	add    %al,(%eax)
    1d0c:	00 05 03 00 90 12    	add    %al,0x12900003
    1d12:	c0 05 47 00 00 00 03 	rolb   $0x3,0x47
    1d19:	99                   	cltd   
    1d1a:	08 00                	or     %al,(%eax)
    1d1c:	00 0b                	add    %cl,(%ebx)
    1d1e:	0f 47 00             	cmova  (%eax),%eax
    1d21:	00 00                	add    %al,(%eax)
    1d23:	05 03 08 80 12       	add    $0x12800803,%eax
    1d28:	c0 03 ca             	rolb   $0xca,(%ebx)
    1d2b:	08 00                	or     %al,(%eax)
    1d2d:	00 0d 0a 82 00 00    	add    %cl,0x820a
    1d33:	00 05 03 0c 80 12    	add    %al,0x12800c03
    1d39:	c0 03 d0             	rolb   $0xd0,(%ebx)
    1d3c:	08 00                	or     %al,(%eax)
    1d3e:	00 0e                	add    %cl,(%esi)
    1d40:	0a 76 00             	or     0x0(%esi),%dh
    1d43:	00 00                	add    %al,(%eax)
    1d45:	05 03 10 80 12       	add    $0x12801003,%eax
    1d4a:	c0 0f 72             	rorb   $0x72,(%edi)
    1d4d:	05 00 00 05 0a       	add    $0xa050000,%eax
    1d52:	01 05 01 00 00 05    	add    %eax,0x5000001
    1d58:	01 00                	add    %eax,(%eax)
    1d5a:	00 06                	add    %al,(%esi)
    1d5c:	07                   	pop    %es
    1d5d:	01 00                	add    %eax,(%eax)
    1d5f:	00 06                	add    %al,(%esi)
    1d61:	11 01                	adc    %eax,(%ecx)
    1d63:	00 00                	add    %al,(%eax)
    1d65:	06                   	push   %es
    1d66:	2d 00 00 00 00       	sub    $0x0,%eax
    1d6b:	10 04 07             	adc    %al,(%edi,%eax,1)
    1d6e:	05 01 00 00 05       	add    $0x5000001,%eax
    1d73:	16                   	push   %ss
    1d74:	01 00                	add    %eax,(%eax)
    1d76:	00 07                	add    %al,(%edi)
    1d78:	0c 01                	or     $0x1,%al
    1d7a:	00 00                	add    %al,(%eax)
    1d7c:	11 12                	adc    %edx,(%edx)
    1d7e:	c0 08 00             	rorb   $0x0,(%eax)
    1d81:	00 01                	add    %al,(%ecx)
    1d83:	50                   	push   %eax
    1d84:	01 03                	add    %eax,(%ebx)
    1d86:	6e                   	outsb  %ds:(%esi),(%dx)
    1d87:	10 c0                	adc    %al,%al
    1d89:	4c                   	dec    %esp
    1d8a:	00 00                	add    %al,(%eax)
    1d8c:	00 01                	add    %al,(%ecx)
    1d8e:	9c                   	pushf  
    1d8f:	44                   	inc    %esp
    1d90:	01 00                	add    %eax,(%eax)
    1d92:	00 08                	add    %cl,(%eax)
    1d94:	06                   	push   %es
    1d95:	6e                   	outsb  %ds:(%esi),(%dx)
    1d96:	10 c0                	adc    %al,%al
    1d98:	31 00                	xor    %eax,(%eax)
    1d9a:	00 00                	add    %al,(%eax)
    1d9c:	09 69 00             	or     %ebp,0x0(%ecx)
    1d9f:	52                   	push   %edx
    1da0:	13 82 00 00 00 02    	adc    0x2000000(%edx),%eax
    1da6:	91                   	xchg   %eax,%ecx
    1da7:	78 00                	js     1da9 <start_-0xfe263>
    1da9:	00 13                	add    %dl,(%ebx)
    1dab:	d6                   	(bad)  
    1dac:	08 00                	or     %al,(%eax)
    1dae:	00 01                	add    %al,(%ecx)
    1db0:	45                   	inc    %ebp
    1db1:	01 7c 6d 10          	add    %edi,0x10(%ebp,%ebp,2)
    1db5:	c0 87 00 00 00 01 9c 	rolb   $0x9c,0x1000000(%edi)
    1dbc:	80 01 00             	addb   $0x0,(%ecx)
    1dbf:	00 14 8f             	add    %dl,(%edi,%ecx,4)
    1dc2:	08 00                	or     %al,(%eax)
    1dc4:	00 01                	add    %al,(%ecx)
    1dc6:	47                   	inc    %edi
    1dc7:	0c 2d                	or     $0x2d,%al
    1dc9:	00 00                	add    %al,(%eax)
    1dcb:	00 02                	add    %al,(%edx)
    1dcd:	91                   	xchg   %eax,%ecx
    1dce:	68 08 ac 6d 10       	push   $0x106dac08
    1dd3:	c0 34 00 00          	shlb   $0x0,(%eax,%eax,1)
    1dd7:	00 09                	add    %cl,(%ecx)
    1dd9:	69 00 49 11 2d 00    	imul   $0x2d1149,(%eax),%eax
    1ddf:	00 00                	add    %al,(%eax)
    1de1:	02 91 6c 00 00 0a    	add    0xa00006c(%ecx),%dl
    1de7:	ce                   	into   
    1de8:	05 00 00 3c 4b       	add    $0x4b3c0000,%eax
    1ded:	6d                   	insl   (%dx),%es:(%edi)
    1dee:	10 c0                	adc    %al,%al
    1df0:	31 00                	xor    %eax,(%eax)
    1df2:	00 00                	add    %al,(%eax)
    1df4:	01 9c a3 01 00 00 04 	add    %ebx,0x4000001(%ebx,%eiz,4)
    1dfb:	73 74                	jae    1e71 <start_-0xfe19b>
    1dfd:	72 00                	jb     1dff <start_-0xfe20d>
    1dff:	3c 13                	cmp    $0x13,%al
    1e01:	a3 01 00 00 02       	mov    %eax,0x2000001
    1e06:	91                   	xchg   %eax,%ecx
    1e07:	00 00                	add    %al,(%eax)
    1e09:	05 a8 01 00 00       	add    $0x1a8,%eax
    1e0e:	01 01                	add    %eax,(%ecx)
    1e10:	06                   	push   %es
    1e11:	83 00 00             	addl   $0x0,(%eax)
    1e14:	00 0a                	add    %cl,(%edx)
    1e16:	82 08 00             	orb    $0x0,(%eax)
    1e19:	00 20                	add    %ah,(%eax)
    1e1b:	72 6c                	jb     1e89 <start_-0xfe183>
    1e1d:	10 c0                	adc    %al,%al
    1e1f:	d9 00                	flds   (%eax)
    1e21:	00 00                	add    %al,(%eax)
    1e23:	01 9c d2 01 00 00 04 	add    %ebx,0x4000001(%edx,%edx,8)
    1e2a:	63 68 72             	arpl   %bp,0x72(%eax)
    1e2d:	00 20                	add    %ah,(%eax)
    1e2f:	13 a8 01 00 00 02    	adc    0x2000001(%eax),%ebp
    1e35:	91                   	xchg   %eax,%ecx
    1e36:	6c                   	insb   (%dx),%es:(%edi)
    1e37:	00 0b                	add    %cl,(%ebx)
    1e39:	8e 07                	mov    (%edi),%es
    1e3b:	00 00                	add    %al,(%eax)
    1e3d:	1a 01                	sbb    (%ecx),%al
    1e3f:	40                   	inc    %eax
    1e40:	6c                   	insb   (%dx),%es:(%edi)
    1e41:	10 c0                	adc    %al,%al
    1e43:	32 00                	xor    (%eax),%al
    1e45:	00 00                	add    %al,(%eax)
    1e47:	01 9c 02 02 00 00 04 	add    %ebx,0x4000002(%edx,%eax,1)
    1e4e:	66 67 00 1a          	data16 add %bl,(%bp,%si)
    1e52:	1d 47 00 00 00       	sbb    $0x47,%eax
    1e57:	02 91 78 04 62 67    	add    0x67620478(%ecx),%dl
    1e5d:	00 1a                	add    %bl,(%edx)
    1e5f:	2f                   	das    
    1e60:	47                   	inc    %edi
    1e61:	00 00                	add    %al,(%eax)
    1e63:	00 02                	add    %al,(%edx)
    1e65:	91                   	xchg   %eax,%ecx
    1e66:	74 00                	je     1e68 <start_-0xfe1a4>
    1e68:	0b 26                	or     (%esi),%esp
    1e6a:	08 00                	or     %al,(%eax)
    1e6c:	00 15 06 35 6c 10    	add    %dl,0x106c3506
    1e72:	c0 0b 00             	rorb   $0x0,(%ebx)
    1e75:	00 00                	add    %al,(%eax)
    1e77:	01 9c 26 02 00 00 0c 	add    %ebx,0xc000002(%esi,%eiz,1)
    1e7e:	a9 08 00 00 15       	test   $0x15000008,%eax
    1e83:	1b 05 01 00 00 02    	sbb    0x2000001,%eax
    1e89:	91                   	xchg   %eax,%ecx
    1e8a:	00 00                	add    %al,(%eax)
    1e8c:	15 d2 07 00 00       	adc    $0x7d2,%eax
    1e91:	01 10                	add    %edx,(%eax)
    1e93:	06                   	push   %es
    1e94:	1f                   	pop    %ds
    1e95:	6c                   	insb   (%dx),%es:(%edi)
    1e96:	10 c0                	adc    %al,%al
    1e98:	16                   	push   %ss
    1e99:	00 00                	add    %al,(%eax)
    1e9b:	00 01                	add    %al,(%ecx)
    1e9d:	9c                   	pushf  
    1e9e:	0c a9                	or     $0xa9,%al
    1ea0:	08 00                	or     %al,(%eax)
    1ea2:	00 10                	add    %dl,(%eax)
    1ea4:	15 05 01 00 00       	adc    $0x105,%eax
    1ea9:	02 91 00 00 00 10    	add    0x10000000(%ecx),%dl
    1eaf:	01 00                	add    %eax,(%eax)
    1eb1:	00 05 00 01 04 67    	add    %al,0x67040100
    1eb7:	0c 00                	or     $0x0,%al
    1eb9:	00 05 14 00 00 00    	add    %al,0x14
    1ebf:	0c 79                	or     $0x79,%al
    1ec1:	02 00                	add    (%eax),%al
    1ec3:	00 0a                	add    %cl,(%edx)
    1ec5:	00 00                	add    %al,(%eax)
    1ec7:	00 dc                	add    %bl,%ah
    1ec9:	6e                   	outsb  %ds:(%esi),(%dx)
    1eca:	10 c0                	adc    %al,%al
    1ecc:	29 01                	sub    %eax,(%ecx)
    1ece:	00 00                	add    %al,(%eax)
    1ed0:	52                   	push   %edx
    1ed1:	0f 00 00             	sldt   (%eax)
    1ed4:	01 01                	add    %eax,(%ecx)
    1ed6:	06                   	push   %es
    1ed7:	7c 00                	jl     1ed9 <start_-0xfe133>
    1ed9:	00 00                	add    %al,(%eax)
    1edb:	01 02                	add    %eax,(%edx)
    1edd:	05 ca 00 00 00       	add    $0xca,%eax
    1ee2:	01 04 05 c1 00 00 00 	add    %eax,0xc1(,%eax,1)
    1ee9:	01 08                	add    %ecx,(%eax)
    1eeb:	05 bc 00 00 00       	add    $0xbc,%eax
    1ef0:	01 01                	add    %eax,(%ecx)
    1ef2:	08 7a 00             	or     %bh,0x0(%edx)
    1ef5:	00 00                	add    %al,(%eax)
    1ef7:	03 55 01             	add    0x1(%ebp),%edx
    1efa:	00 00                	add    %al,(%eax)
    1efc:	31 53 00             	xor    %edx,0x0(%ebx)
    1eff:	00 00                	add    %al,(%eax)
    1f01:	01 02                	add    %eax,(%edx)
    1f03:	07                   	pop    %es
    1f04:	88 00                	mov    %al,(%eax)
    1f06:	00 00                	add    %al,(%eax)
    1f08:	03 42 01             	add    0x1(%edx),%eax
    1f0b:	00 00                	add    %al,(%eax)
    1f0d:	34 64                	xor    $0x64,%al
    1f0f:	00 00                	add    %al,(%eax)
    1f11:	00 01                	add    %al,(%ecx)
    1f13:	04 07                	add    $0x7,%al
    1f15:	aa                   	stos   %al,%es:(%edi)
    1f16:	00 00                	add    %al,(%eax)
    1f18:	00 03                	add    %al,(%ebx)
    1f1a:	24 03                	and    $0x3,%al
    1f1c:	00 00                	add    %al,(%eax)
    1f1e:	37                   	aaa    
    1f1f:	75 00                	jne    1f21 <start_-0xfe0eb>
    1f21:	00 00                	add    %al,(%eax)
    1f23:	01 08                	add    %ecx,(%eax)
    1f25:	07                   	pop    %es
    1f26:	a5                   	movsl  %ds:(%esi),%es:(%edi)
    1f27:	00 00                	add    %al,(%eax)
    1f29:	00 06                	add    %al,(%esi)
    1f2b:	04 05                	add    $0x5,%al
    1f2d:	69 6e 74 00 01 04 07 	imul   $0x7040100,0x74(%esi),%ebp
    1f34:	af                   	scas   %es:(%edi),%eax
    1f35:	00 00                	add    %al,(%eax)
    1f37:	00 07                	add    %al,(%edi)
    1f39:	6b 00 00             	imul   $0x0,(%eax),%eax
    1f3c:	00 9a 00 00 00 08    	add    %bl,0x8000000(%edx)
    1f42:	64 00 00             	add    %al,%fs:(%eax)
    1f45:	00 04 00             	add    %al,(%eax,%eax,1)
    1f48:	04 03                	add    $0x3,%al
    1f4a:	09 00                	or     %eax,(%eax)
    1f4c:	00 06                	add    %al,(%esi)
    1f4e:	8a 00                	mov    (%eax),%al
    1f50:	00 00                	add    %al,(%eax)
    1f52:	05 03 20 80 12       	add    $0x12802003,%eax
    1f57:	c0 04 f3 08          	rolb   $0x8,(%ebx,%esi,8)
    1f5b:	00 00                	add    %al,(%eax)
    1f5d:	07                   	pop    %es
    1f5e:	49                   	dec    %ecx
    1f5f:	00 00                	add    %al,(%eax)
    1f61:	00 05 03 04 90 12    	add    %al,0x12900403
    1f67:	c0 09 fe             	rorb   $0xfe,(%ecx)
    1f6a:	08 00                	or     %al,(%eax)
    1f6c:	00 01                	add    %al,(%ecx)
    1f6e:	0f 06                	clts   
    1f70:	95                   	xchg   %eax,%ebp
    1f71:	6f                   	outsl  %ds:(%esi),(%dx)
    1f72:	10 c0                	adc    %al,%al
    1f74:	70 00                	jo     1f76 <start_-0xfe096>
    1f76:	00 00                	add    %al,(%eax)
    1f78:	01 9c 0a e4 08 00 00 	add    %ebx,0x8e4(%edx,%ecx,1)
    1f7f:	01 09                	add    %ecx,(%ecx)
    1f81:	06                   	push   %es
    1f82:	dc 6e 10             	fsubrl 0x10(%esi)
    1f85:	c0 b9 00 00 00 01 9c 	sarb   $0x9c,0x1000000(%ecx)
    1f8c:	02 ec                	add    %ah,%ch
    1f8e:	03 00                	add    (%eax),%eax
    1f90:	00 1e                	add    %bl,(%esi)
    1f92:	5a                   	pop    %edx
    1f93:	00 00                	add    %al,(%eax)
    1f95:	00 02                	add    %al,(%edx)
    1f97:	91                   	xchg   %eax,%ecx
    1f98:	00 02                	add    %al,(%edx)
    1f9a:	cf                   	iret   
    1f9b:	04 00                	add    $0x0,%al
    1f9d:	00 2e                	add    %ch,(%esi)
    1f9f:	5a                   	pop    %edx
    1fa0:	00 00                	add    %al,(%eax)
    1fa2:	00 02                	add    %al,(%edx)
    1fa4:	91                   	xchg   %eax,%ecx
    1fa5:	04 02                	add    $0x2,%al
    1fa7:	f8                   	clc    
    1fa8:	08 00                	or     %al,(%eax)
    1faa:	00 3d 5a 00 00 00    	add    %bh,0x5a
    1fb0:	02 91 08 02 14 09    	add    0x9140208(%ecx),%dl
    1fb6:	00 00                	add    %al,(%eax)
    1fb8:	4d                   	dec    %ebp
    1fb9:	5a                   	pop    %edx
    1fba:	00 00                	add    %al,(%eax)
    1fbc:	00 02                	add    %al,(%edx)
    1fbe:	91                   	xchg   %eax,%ecx
    1fbf:	0c 00                	or     $0x0,%al
    1fc1:	00 f6                	add    %dh,%dh
    1fc3:	00 00                	add    %al,(%eax)
    1fc5:	00 05 00 01 04 0c    	add    %al,0xc040100
    1fcb:	0d 00 00 06 14       	or     $0x14060000,%eax
    1fd0:	00 00                	add    %al,(%eax)
    1fd2:	00 0c 9d 02 00 00 0a 	add    %cl,0xa000002(,%ebx,4)
    1fd9:	00 00                	add    %al,(%eax)
    1fdb:	00 05 70 10 c0 3f    	add    %al,0x3fc01070
    1fe1:	00 00                	add    %al,(%eax)
    1fe3:	00 e0                	add    %ah,%al
    1fe5:	0f 00 00             	sldt   (%eax)
    1fe8:	07                   	pop    %es
    1fe9:	12 02                	adc    (%edx),%al
    1feb:	02 09                	add    (%ecx),%cl
    1fed:	68 00 00 00 01       	push   $0x1000000
    1ff2:	24 09                	and    $0x9,%al
    1ff4:	00 00                	add    %al,(%eax)
    1ff6:	03 68 00             	add    0x0(%eax),%ebp
    1ff9:	00 00                	add    %al,(%eax)
    1ffb:	00 01                	add    %al,(%ecx)
    1ffd:	08 09                	or     %cl,(%ecx)
    1fff:	00 00                	add    %al,(%eax)
    2001:	04 68                	add    $0x68,%al
    2003:	00 00                	add    %al,(%eax)
    2005:	00 04 03             	add    %al,(%ebx,%eax,1)
    2008:	65 69 70 00 05 12 68 	imul   $0x681205,%gs:0x0(%eax),%esi
    200f:	00 
    2010:	00 00                	add    %al,(%eax)
    2012:	08 03                	or     %al,(%ebx)
    2014:	63 73 00             	arpl   %si,0x0(%ebx)
    2017:	06                   	push   %es
    2018:	14 6f                	adc    $0x6f,%al
    201a:	00 00                	add    %al,(%eax)
    201c:	00 0c 01             	add    %cl,(%ecx,%eax,1)
    201f:	13 09                	adc    (%ecx),%ecx
    2021:	00 00                	add    %al,(%eax)
    2023:	07                   	pop    %es
    2024:	68 00 00 00 0e       	push   $0xe000000
    2029:	00 02                	add    %al,(%edx)
    202b:	04 07                	add    $0x7,%al
    202d:	af                   	scas   %es:(%edi),%eax
    202e:	00 00                	add    %al,(%eax)
    2030:	00 02                	add    %al,(%edx)
    2032:	02 07                	add    (%edi),%al
    2034:	88 00                	mov    %al,(%eax)
    2036:	00 00                	add    %al,(%eax)
    2038:	08 1a                	or     %bl,(%edx)
    203a:	09 00                	or     %eax,(%eax)
    203c:	00 02                	add    %al,(%edx)
    203e:	08 03                	or     %al,(%ebx)
    2040:	26 00 00             	add    %al,%es:(%eax)
    2043:	00 09                	add    %cl,(%ecx)
    2045:	ce                   	into   
    2046:	05 00 00 03 1c       	add    $0x1c030000,%eax
    204b:	06                   	push   %es
    204c:	94                   	xchg   %eax,%esp
    204d:	00 00                	add    %al,(%eax)
    204f:	00 0a                	add    %cl,(%edx)
    2051:	94                   	xchg   %eax,%esp
    2052:	00 00                	add    %al,(%eax)
    2054:	00 00                	add    %al,(%eax)
    2056:	04 99                	add    $0x99,%al
    2058:	00 00                	add    %al,(%eax)
    205a:	00 02                	add    %al,(%edx)
    205c:	01 06                	add    %eax,(%esi)
    205e:	83 00 00             	addl   $0x0,(%eax)
    2061:	00 0b                	add    %cl,(%ebx)
    2063:	c0 08 00             	rorb   $0x0,(%eax)
    2066:	00 03                	add    %al,(%ebx)
    2068:	1e                   	push   %ds
    2069:	06                   	push   %es
    206a:	ae                   	scas   %es:(%edi),%al
    206b:	00 00                	add    %al,(%eax)
    206d:	00 0c 00             	add    %cl,(%eax,%eax,1)
    2070:	0d 2b 09 00 00       	or     $0x92b,%eax
    2075:	01 09                	add    %ecx,(%ecx)
    2077:	06                   	push   %es
    2078:	22 70 10             	and    0x10(%eax),%dh
    207b:	c0 22 00             	shlb   $0x0,(%edx)
    207e:	00 00                	add    %al,(%eax)
    2080:	01 9c d3 00 00 00 05 	add    %ebx,0x5000000(%ebx,%edx,8)
    2087:	1e                   	push   %ds
    2088:	09 00                	or     %eax,(%eax)
    208a:	00 09                	add    %cl,(%ecx)
    208c:	23 d3                	and    %ebx,%edx
    208e:	00 00                	add    %al,(%eax)
    2090:	00 02                	add    %al,(%edx)
    2092:	91                   	xchg   %eax,%ecx
    2093:	00 00                	add    %al,(%eax)
    2095:	04 76                	add    $0x76,%al
    2097:	00 00                	add    %al,(%eax)
    2099:	00 0e                	add    %cl,(%esi)
    209b:	42                   	inc    %edx
    209c:	09 00                	or     %eax,(%eax)
    209e:	00 01                	add    %al,(%ecx)
    20a0:	04 06                	add    $0x6,%al
    20a2:	05 70 10 c0 1d       	add    $0x1dc01070,%eax
    20a7:	00 00                	add    %al,(%eax)
    20a9:	00 01                	add    %al,(%ecx)
    20ab:	9c                   	pushf  
    20ac:	05 1e 09 00 00       	add    $0x91e,%eax
    20b1:	04 17                	add    $0x17,%al
    20b3:	d3 00                	roll   %cl,(%eax)
    20b5:	00 00                	add    %al,(%eax)
    20b7:	02 91 00 00 00 57    	add    0x57000000(%ecx),%dl
    20bd:	01 00                	add    %eax,(%eax)
    20bf:	00 05 00 01 04 f2    	add    %al,0xf2040100
    20c5:	0d 00 00 07 14       	or     $0x14070000,%eax
    20ca:	00 00                	add    %al,(%eax)
    20cc:	00 0c c6             	add    %cl,(%esi,%eax,8)
    20cf:	02 00                	add    (%eax),%al
    20d1:	00 0a                	add    %cl,(%edx)
    20d3:	00 00                	add    %al,(%eax)
    20d5:	00 44 70 10          	add    %al,0x10(%eax,%esi,2)
    20d9:	c0 ea 00             	shr    $0x0,%dl
    20dc:	00 00                	add    %al,(%eax)
    20de:	52                   	push   %edx
    20df:	10 00                	adc    %al,(%eax)
    20e1:	00 01                	add    %al,(%ecx)
    20e3:	04 07                	add    $0x7,%al
    20e5:	af                   	scas   %es:(%edi),%eax
    20e6:	00 00                	add    %al,(%eax)
    20e8:	00 01                	add    %al,(%ecx)
    20ea:	02 07                	add    (%edi),%al
    20ec:	88 00                	mov    %al,(%eax)
    20ee:	00 00                	add    %al,(%eax)
    20f0:	01 01                	add    %eax,(%ecx)
    20f2:	06                   	push   %es
    20f3:	7c 00                	jl     20f5 <start_-0xfdf17>
    20f5:	00 00                	add    %al,(%eax)
    20f7:	01 02                	add    %eax,(%edx)
    20f9:	05 ca 00 00 00       	add    $0xca,%eax
    20fe:	01 04 05 c1 00 00 00 	add    %eax,0xc1(,%eax,1)
    2105:	01 08                	add    %ecx,(%eax)
    2107:	05 bc 00 00 00       	add    $0xbc,%eax
    210c:	02 9c 04 00 00 2e 18 	add    0x182e0000(%esp,%eax,1),%bl
    2113:	5b                   	pop    %ebx
    2114:	00 00                	add    %al,(%eax)
    2116:	00 01                	add    %al,(%ecx)
    2118:	01 08                	add    %ecx,(%eax)
    211a:	7a 00                	jp     211c <start_-0xfdef0>
    211c:	00 00                	add    %al,(%eax)
    211e:	02 55 01             	add    0x1(%ebp),%dl
    2121:	00 00                	add    %al,(%eax)
    2123:	31 19                	xor    %ebx,(%ecx)
    2125:	2d 00 00 00 02       	sub    $0x2000000,%eax
    212a:	42                   	inc    %edx
    212b:	01 00                	add    %eax,(%eax)
    212d:	00 34 19             	add    %dh,(%ecx,%ebx,1)
    2130:	78 00                	js     2132 <start_-0xfdeda>
    2132:	00 00                	add    %al,(%eax)
    2134:	01 04 07             	add    %eax,(%edi,%eax,1)
    2137:	aa                   	stos   %al,%es:(%edi)
    2138:	00 00                	add    %al,(%eax)
    213a:	00 02                	add    %al,(%edx)
    213c:	24 03                	and    $0x3,%al
    213e:	00 00                	add    %al,(%eax)
    2140:	37                   	aaa    
    2141:	19 8a 00 00 00 01    	sbb    %ecx,0x1000000(%edx)
    2147:	08 07                	or     %al,(%edi)
    2149:	a5                   	movsl  %ds:(%esi),%es:(%edi)
    214a:	00 00                	add    %al,(%eax)
    214c:	00 08                	add    %cl,(%eax)
    214e:	04 05                	add    $0x5,%al
    2150:	69 6e 74 00 02 ca 01 	imul   $0x1ca0200,0x74(%esi),%ebp
    2157:	00 00                	add    %al,(%eax)
    2159:	56                   	push   %esi
    215a:	1a 78 00             	sbb    0x0(%eax),%bh
    215d:	00 00                	add    %al,(%eax)
    215f:	09 7f 00             	or     %edi,0x0(%edi)
    2162:	00 00                	add    %al,(%eax)
    2164:	b3 00                	mov    $0x0,%bl
    2166:	00 00                	add    %al,(%eax)
    2168:	0a 78 00             	or     0x0(%eax),%bh
    216b:	00 00                	add    %al,(%eax)
    216d:	1f                   	pop    %ds
    216e:	00 03                	add    %al,(%ebx)
    2170:	7d 08                	jge    217a <start_-0xfde92>
    2172:	00 00                	add    %al,(%eax)
    2174:	08 a3 00 00 00 05    	or     %ah,0x5000000(%ebx)
    217a:	03 60 80             	add    -0x80(%eax),%esp
    217d:	12 c0                	adc    %al,%al
    217f:	03 47 09             	add    0x9(%edi),%eax
    2182:	00 00                	add    %al,(%eax)
    2184:	09 62 00             	or     %esp,0x0(%edx)
    2187:	00 00                	add    %al,(%eax)
    2189:	05 03 06 90 12       	add    $0x12900603,%eax
    218e:	c0 0b 3d             	rorb   $0x3d,(%ebx)
    2191:	09 00                	or     %eax,(%eax)
    2193:	00 03                	add    %al,(%ebx)
    2195:	0b 06                	or     (%esi),%eax
    2197:	e1 00                	loope  2199 <start_-0xfde73>
    2199:	00 00                	add    %al,(%eax)
    219b:	04 00                	add    $0x0,%al
    219d:	0c 78                	or     $0x78,%al
    219f:	08 00                	or     %al,(%eax)
    21a1:	00 01                	add    %al,(%ecx)
    21a3:	12 06                	adc    (%esi),%al
    21a5:	13 71 10             	adc    0x10(%ecx),%esi
    21a8:	c0 1b 00             	rcrb   $0x0,(%ebx)
    21ab:	00 00                	add    %al,(%eax)
    21ad:	01 9c 0d 5f 09 00 00 	add    %ebx,0x95f(%ebp,%ecx,1)
    21b4:	01 0b                	add    %ecx,(%ebx)
    21b6:	06                   	push   %es
    21b7:	44                   	inc    %esp
    21b8:	70 10                	jo     21ca <start_-0xfde42>
    21ba:	c0 cf 00             	ror    $0x0,%bh
    21bd:	00 00                	add    %al,(%eax)
    21bf:	01 9c 4d 01 00 00 05 	add    %ebx,0x5000001(%ebp,%ecx,2)
    21c6:	24 09                	and    $0x9,%al
    21c8:	00 00                	add    %al,(%eax)
    21ca:	1e                   	push   %ds
    21cb:	6d                   	insl   (%dx),%es:(%edi)
    21cc:	00 00                	add    %al,(%eax)
    21ce:	00 02                	add    %al,(%edx)
    21d0:	91                   	xchg   %eax,%ecx
    21d1:	00 05 52 09 00 00    	add    %al,0x952
    21d7:	2f                   	das    
    21d8:	62 00                	bound  %eax,(%eax)
    21da:	00 00                	add    %al,(%eax)
    21dc:	02 91 54 06 69 73    	add    0x73690654(%ecx),%dl
    21e2:	72 00                	jb     21e4 <start_-0xfde28>
    21e4:	44                   	inc    %esp
    21e5:	54                   	push   %esp
    21e6:	01 00                	add    %eax,(%eax)
    21e8:	00 02                	add    %al,(%edx)
    21ea:	91                   	xchg   %eax,%ecx
    21eb:	08 06                	or     %al,(%esi)
    21ed:	64 70 6c             	fs jo  225c <start_-0xfddb0>
    21f0:	00 54 50 00          	add    %dl,0x0(%eax,%edx,2)
    21f4:	00 00                	add    %al,(%eax)
    21f6:	02 91 50 0e 1a 06    	add    0x61a0e50(%ecx),%dl
    21fc:	00 00                	add    %al,(%eax)
    21fe:	01 0c 0f             	add    %ecx,(%edi,%ecx,1)
    2201:	98                   	cwtl   
    2202:	00 00                	add    %al,(%eax)
    2204:	00 02                	add    %al,(%edx)
    2206:	91                   	xchg   %eax,%ecx
    2207:	64 00 0f             	add    %cl,%fs:(%edi)
    220a:	54                   	push   %esp
    220b:	01 00                	add    %eax,(%eax)
    220d:	00 04 00             	add    %al,(%eax,%eax,1)
    2210:	10 04 4d 01 00 00 00 	adc    %al,0x1(,%ecx,2)

Disassembly of section .debug_abbrev:

00000000 <.debug_abbrev>:
   0:	01 24 00             	add    %esp,(%eax,%eax,1)
   3:	0b 0b                	or     (%ebx),%ecx
   5:	3e 0b 03             	or     %ds:(%ebx),%eax
   8:	0e                   	push   %cs
   9:	00 00                	add    %al,(%eax)
   b:	02 34 00             	add    (%eax,%eax,1),%dh
   e:	03 08                	add    (%eax),%ecx
  10:	3a 21                	cmp    (%ecx),%ah
  12:	01 3b                	add    %edi,(%ebx)
  14:	21 06                	and    %eax,(%esi)
  16:	39 0b                	cmp    %ecx,(%ebx)
  18:	49                   	dec    %ecx
  19:	13 00                	adc    (%eax),%eax
  1b:	00 03                	add    %al,(%ebx)
  1d:	16                   	push   %ss
  1e:	00 03                	add    %al,(%ebx)
  20:	0e                   	push   %cs
  21:	3a 0b                	cmp    (%ebx),%cl
  23:	3b 0b                	cmp    (%ebx),%ecx
  25:	39 0b                	cmp    %ecx,(%ebx)
  27:	49                   	dec    %ecx
  28:	13 00                	adc    (%eax),%eax
  2a:	00 04 0f             	add    %al,(%edi,%ecx,1)
  2d:	00 0b                	add    %cl,(%ebx)
  2f:	21 04 49             	and    %eax,(%ecx,%ecx,2)
  32:	13 00                	adc    (%eax),%eax
  34:	00 05 11 01 25 0e    	add    %al,0xe250111
  3a:	13 0b                	adc    (%ebx),%ecx
  3c:	03 1f                	add    (%edi),%ebx
  3e:	1b 1f                	sbb    (%edi),%ebx
  40:	11 01                	adc    %eax,(%ecx)
  42:	12 06                	adc    (%esi),%al
  44:	10 17                	adc    %dl,(%edi)
  46:	00 00                	add    %al,(%eax)
  48:	06                   	push   %es
  49:	24 00                	and    $0x0,%al
  4b:	0b 0b                	or     (%ebx),%ecx
  4d:	3e 0b 03             	or     %ds:(%ebx),%eax
  50:	08 00                	or     %al,(%eax)
  52:	00 07                	add    %al,(%edi)
  54:	2e 01 3f             	add    %edi,%cs:(%edi)
  57:	19 03                	sbb    %eax,(%ebx)
  59:	0e                   	push   %cs
  5a:	3a 0b                	cmp    (%ebx),%cl
  5c:	3b 0b                	cmp    (%ebx),%ecx
  5e:	39 0b                	cmp    %ecx,(%ebx)
  60:	27                   	daa    
  61:	19 11                	sbb    %edx,(%ecx)
  63:	01 12                	add    %edx,(%edx)
  65:	06                   	push   %es
  66:	40                   	inc    %eax
  67:	18 7a 19             	sbb    %bh,0x19(%edx)
  6a:	01 13                	add    %edx,(%ebx)
  6c:	00 00                	add    %al,(%eax)
  6e:	08 05 00 03 0e 3a    	or     %al,0x3a0e0300
  74:	0b 3b                	or     (%ebx),%edi
  76:	0b 39                	or     (%ecx),%edi
  78:	0b 49 13             	or     0x13(%ecx),%ecx
  7b:	02 18                	add    (%eax),%bl
  7d:	00 00                	add    %al,(%eax)
  7f:	09 34 00             	or     %esi,(%eax,%eax,1)
  82:	03 08                	add    (%eax),%ecx
  84:	3a 0b                	cmp    (%ebx),%cl
  86:	3b 0b                	cmp    (%ebx),%ecx
  88:	39 0b                	cmp    %ecx,(%ebx)
  8a:	49                   	dec    %ecx
  8b:	13 02                	adc    (%edx),%eax
  8d:	18 00                	sbb    %al,(%eax)
  8f:	00 00                	add    %al,(%eax)
  91:	01 0d 00 03 0e 3a    	add    %ecx,0x3a0e0300
  97:	21 02                	and    %eax,(%edx)
  99:	3b 0b                	cmp    (%ebx),%ecx
  9b:	39 0b                	cmp    %ecx,(%ebx)
  9d:	49                   	dec    %ecx
  9e:	13 38                	adc    (%eax),%edi
  a0:	0b 00                	or     (%eax),%eax
  a2:	00 02                	add    %al,(%edx)
  a4:	16                   	push   %ss
  a5:	00 03                	add    %al,(%ebx)
  a7:	0e                   	push   %cs
  a8:	3a 0b                	cmp    (%ebx),%cl
  aa:	3b 0b                	cmp    (%ebx),%ecx
  ac:	39 0b                	cmp    %ecx,(%ebx)
  ae:	49                   	dec    %ecx
  af:	13 00                	adc    (%eax),%eax
  b1:	00 03                	add    %al,(%ebx)
  b3:	24 00                	and    $0x0,%al
  b5:	0b 0b                	or     (%ebx),%ecx
  b7:	3e 0b 03             	or     %ds:(%ebx),%eax
  ba:	0e                   	push   %cs
  bb:	00 00                	add    %al,(%eax)
  bd:	04 34                	add    $0x34,%al
  bf:	00 03                	add    %al,(%ebx)
  c1:	08 3a                	or     %bh,(%edx)
  c3:	21 01                	and    %eax,(%ecx)
  c5:	3b 0b                	cmp    (%ebx),%ecx
  c7:	39 0b                	cmp    %ecx,(%ebx)
  c9:	49                   	dec    %ecx
  ca:	13 02                	adc    (%edx),%eax
  cc:	18 00                	sbb    %al,(%eax)
  ce:	00 05 05 00 03 0e    	add    %al,0xe030005
  d4:	3a 21                	cmp    (%ecx),%ah
  d6:	01 3b                	add    %edi,(%ebx)
  d8:	0b 39                	or     (%ecx),%edi
  da:	0b 49 13             	or     0x13(%ecx),%ecx
  dd:	02 18                	add    (%eax),%bl
  df:	00 00                	add    %al,(%eax)
  e1:	06                   	push   %es
  e2:	34 00                	xor    $0x0,%al
  e4:	03 0e                	add    (%esi),%ecx
  e6:	3a 21                	cmp    (%ecx),%ah
  e8:	01 3b                	add    %edi,(%ebx)
  ea:	0b 39                	or     (%ecx),%edi
  ec:	0b 49 13             	or     0x13(%ecx),%ecx
  ef:	02 18                	add    (%eax),%bl
  f1:	00 00                	add    %al,(%eax)
  f3:	07                   	pop    %es
  f4:	13 01                	adc    (%ecx),%eax
  f6:	03 0e                	add    (%esi),%ecx
  f8:	0b 0b                	or     (%ebx),%ecx
  fa:	3a 21                	cmp    (%ecx),%ah
  fc:	02 3b                	add    (%ebx),%bh
  fe:	0b 39                	or     (%ecx),%edi
 100:	21 08                	and    %ecx,(%eax)
 102:	01 13                	add    %edx,(%ebx)
 104:	00 00                	add    %al,(%eax)
 106:	08 34 00             	or     %dh,(%eax,%eax,1)
 109:	03 0e                	add    (%esi),%ecx
 10b:	3a 21                	cmp    (%ecx),%ah
 10d:	01 3b                	add    %edi,(%ebx)
 10f:	0b 39                	or     (%ecx),%edi
 111:	21 10                	and    %edx,(%eax)
 113:	49                   	dec    %ecx
 114:	13 3f                	adc    (%edi),%edi
 116:	19 3c 19             	sbb    %edi,(%ecx,%ebx,1)
 119:	00 00                	add    %al,(%eax)
 11b:	09 0f                	or     %ecx,(%edi)
 11d:	00 0b                	add    %cl,(%ebx)
 11f:	21 04 49             	and    %eax,(%ecx,%ecx,2)
 122:	13 00                	adc    (%eax),%eax
 124:	00 0a                	add    %cl,(%edx)
 126:	0b 01                	or     (%ecx),%eax
 128:	11 01                	adc    %eax,(%ecx)
 12a:	12 06                	adc    (%esi),%al
 12c:	01 13                	add    %edx,(%ebx)
 12e:	00 00                	add    %al,(%eax)
 130:	0b 0d 00 03 08 3a    	or     0x3a080300,%ecx
 136:	21 02                	and    %eax,(%edx)
 138:	3b 0b                	cmp    (%ebx),%ecx
 13a:	39 0b                	cmp    %ecx,(%ebx)
 13c:	49                   	dec    %ecx
 13d:	13 38                	adc    (%eax),%edi
 13f:	0b 00                	or     (%eax),%eax
 141:	00 0c 17             	add    %cl,(%edi,%edx,1)
 144:	01 0b                	add    %ecx,(%ebx)
 146:	0b 3a                	or     (%edx),%edi
 148:	21 02                	and    %eax,(%edx)
 14a:	3b 0b                	cmp    (%ebx),%ecx
 14c:	39 21                	cmp    %esp,(%ecx)
 14e:	05 01 13 00 00       	add    $0x1301,%eax
 153:	0d 0d 00 03 0e       	or     $0xe03000d,%eax
 158:	3a 21                	cmp    (%ecx),%ah
 15a:	02 3b                	add    (%ebx),%bh
 15c:	0b 39                	or     (%ecx),%edi
 15e:	0b 49 13             	or     0x13(%ecx),%ecx
 161:	00 00                	add    %al,(%eax)
 163:	0e                   	push   %cs
 164:	13 01                	adc    (%ecx),%eax
 166:	0b 0b                	or     (%ebx),%ecx
 168:	3a 21                	cmp    (%ecx),%ah
 16a:	02 3b                	add    (%ebx),%bh
 16c:	0b 39                	or     (%ecx),%edi
 16e:	21 09                	and    %ecx,(%ecx)
 170:	01 13                	add    %edx,(%ebx)
 172:	00 00                	add    %al,(%eax)
 174:	0f 0d 00             	prefetch (%eax)
 177:	49                   	dec    %ecx
 178:	13 00                	adc    (%eax),%eax
 17a:	00 10                	add    %dl,(%eax)
 17c:	2e 01 3f             	add    %edi,%cs:(%edi)
 17f:	19 03                	sbb    %eax,(%ebx)
 181:	0e                   	push   %cs
 182:	3a 21                	cmp    (%ecx),%ah
 184:	01 3b                	add    %edi,(%ebx)
 186:	0b 39                	or     (%ecx),%edi
 188:	21 06                	and    %eax,(%esi)
 18a:	27                   	daa    
 18b:	19 11                	sbb    %edx,(%ecx)
 18d:	01 12                	add    %edx,(%edx)
 18f:	06                   	push   %es
 190:	40                   	inc    %eax
 191:	18 7c 19 01          	sbb    %bh,0x1(%ecx,%ebx,1)
 195:	13 00                	adc    (%eax),%eax
 197:	00 11                	add    %dl,(%ecx)
 199:	05 00 03 08 3a       	add    $0x3a080300,%eax
 19e:	21 01                	and    %eax,(%ecx)
 1a0:	3b 0b                	cmp    (%ebx),%ecx
 1a2:	39 0b                	cmp    %ecx,(%ebx)
 1a4:	49                   	dec    %ecx
 1a5:	13 02                	adc    (%edx),%eax
 1a7:	18 00                	sbb    %al,(%eax)
 1a9:	00 12                	add    %dl,(%edx)
 1ab:	0b 01                	or     (%ecx),%eax
 1ad:	11 01                	adc    %eax,(%ecx)
 1af:	12 06                	adc    (%esi),%al
 1b1:	00 00                	add    %al,(%eax)
 1b3:	13 11                	adc    (%ecx),%edx
 1b5:	01 25 0e 13 0b 03    	add    %esp,0x30b130e
 1bb:	1f                   	pop    %ds
 1bc:	1b 1f                	sbb    (%edi),%ebx
 1be:	11 01                	adc    %eax,(%ecx)
 1c0:	12 06                	adc    (%esi),%al
 1c2:	10 17                	adc    %dl,(%edi)
 1c4:	00 00                	add    %al,(%eax)
 1c6:	14 0d                	adc    $0xd,%al
 1c8:	00 49 13             	add    %cl,0x13(%ecx)
 1cb:	38 0b                	cmp    %cl,(%ebx)
 1cd:	00 00                	add    %al,(%eax)
 1cf:	15 24 00 0b 0b       	adc    $0xb0b0024,%eax
 1d4:	3e 0b 03             	or     %ds:(%ebx),%eax
 1d7:	08 00                	or     %al,(%eax)
 1d9:	00 16                	add    %dl,(%esi)
 1db:	2e 01 3f             	add    %edi,%cs:(%edi)
 1de:	19 03                	sbb    %eax,(%ebx)
 1e0:	0e                   	push   %cs
 1e1:	3a 0b                	cmp    (%ebx),%cl
 1e3:	3b 0b                	cmp    (%ebx),%ecx
 1e5:	39 0b                	cmp    %ecx,(%ebx)
 1e7:	27                   	daa    
 1e8:	19 49 13             	sbb    %ecx,0x13(%ecx)
 1eb:	11 01                	adc    %eax,(%ecx)
 1ed:	12 06                	adc    (%esi),%al
 1ef:	40                   	inc    %eax
 1f0:	18 7a 19             	sbb    %bh,0x19(%edx)
 1f3:	01 13                	add    %edx,(%ebx)
 1f5:	00 00                	add    %al,(%eax)
 1f7:	17                   	pop    %ss
 1f8:	2e 01 3f             	add    %edi,%cs:(%edi)
 1fb:	19 03                	sbb    %eax,(%ebx)
 1fd:	0e                   	push   %cs
 1fe:	3a 0b                	cmp    (%ebx),%cl
 200:	3b 0b                	cmp    (%ebx),%ecx
 202:	39 0b                	cmp    %ecx,(%ebx)
 204:	27                   	daa    
 205:	19 11                	sbb    %edx,(%ecx)
 207:	01 12                	add    %edx,(%edx)
 209:	06                   	push   %es
 20a:	40                   	inc    %eax
 20b:	18 7a 19             	sbb    %bh,0x19(%edx)
 20e:	00 00                	add    %al,(%eax)
 210:	00 01                	add    %al,(%ecx)
 212:	05 00 03 0e 3a       	add    $0x3a0e0300,%eax
 217:	21 01                	and    %eax,(%ecx)
 219:	3b 0b                	cmp    (%ebx),%ecx
 21b:	39 0b                	cmp    %ecx,(%ebx)
 21d:	49                   	dec    %ecx
 21e:	13 02                	adc    (%edx),%eax
 220:	18 00                	sbb    %al,(%eax)
 222:	00 02                	add    %al,(%edx)
 224:	24 00                	and    $0x0,%al
 226:	0b 0b                	or     (%ebx),%ecx
 228:	3e 0b 03             	or     %ds:(%ebx),%eax
 22b:	0e                   	push   %cs
 22c:	00 00                	add    %al,(%eax)
 22e:	03 34 00             	add    (%eax,%eax,1),%esi
 231:	03 08                	add    (%eax),%ecx
 233:	3a 21                	cmp    (%ecx),%ah
 235:	01 3b                	add    %edi,(%ebx)
 237:	0b 39                	or     (%ecx),%edi
 239:	0b 49 13             	or     0x13(%ecx),%ecx
 23c:	02 18                	add    (%eax),%bl
 23e:	00 00                	add    %al,(%eax)
 240:	04 05                	add    $0x5,%al
 242:	00 03                	add    %al,(%ebx)
 244:	08 3a                	or     %bh,(%edx)
 246:	21 01                	and    %eax,(%ecx)
 248:	3b 0b                	cmp    (%ebx),%ecx
 24a:	39 0b                	cmp    %ecx,(%ebx)
 24c:	49                   	dec    %ecx
 24d:	13 02                	adc    (%edx),%eax
 24f:	18 00                	sbb    %al,(%eax)
 251:	00 05 0b 01 11 01    	add    %al,0x111010b
 257:	12 06                	adc    (%esi),%al
 259:	00 00                	add    %al,(%eax)
 25b:	06                   	push   %es
 25c:	2e 01 3f             	add    %edi,%cs:(%edi)
 25f:	19 03                	sbb    %eax,(%ebx)
 261:	0e                   	push   %cs
 262:	3a 21                	cmp    (%ecx),%ah
 264:	01 3b                	add    %edi,(%ebx)
 266:	0b 39                	or     (%ecx),%edi
 268:	21 01                	and    %eax,(%ecx)
 26a:	27                   	daa    
 26b:	19 49 13             	sbb    %ecx,0x13(%ecx)
 26e:	11 01                	adc    %eax,(%ecx)
 270:	12 06                	adc    (%esi),%al
 272:	40                   	inc    %eax
 273:	18 7c 19 01          	sbb    %bh,0x1(%ecx,%ebx,1)
 277:	13 00                	adc    (%eax),%eax
 279:	00 07                	add    %al,(%edi)
 27b:	0f 00 0b             	str    (%ebx)
 27e:	21 04 49             	and    %eax,(%ecx,%ecx,2)
 281:	13 00                	adc    (%eax),%eax
 283:	00 08                	add    %cl,(%eax)
 285:	11 01                	adc    %eax,(%ecx)
 287:	25 0e 13 0b 03       	and    $0x30b130e,%eax
 28c:	1f                   	pop    %ds
 28d:	1b 1f                	sbb    (%edi),%ebx
 28f:	11 01                	adc    %eax,(%ecx)
 291:	12 06                	adc    (%esi),%al
 293:	10 17                	adc    %dl,(%edi)
 295:	00 00                	add    %al,(%eax)
 297:	09 24 00             	or     %esp,(%eax,%eax,1)
 29a:	0b 0b                	or     (%ebx),%ecx
 29c:	3e 0b 03             	or     %ds:(%ebx),%eax
 29f:	08 00                	or     %al,(%eax)
 2a1:	00 0a                	add    %cl,(%edx)
 2a3:	01 01                	add    %eax,(%ecx)
 2a5:	49                   	dec    %ecx
 2a6:	13 01                	adc    (%ecx),%eax
 2a8:	13 00                	adc    (%eax),%eax
 2aa:	00 0b                	add    %cl,(%ebx)
 2ac:	21 00                	and    %eax,(%eax)
 2ae:	49                   	dec    %ecx
 2af:	13 2f                	adc    (%edi),%ebp
 2b1:	0b 00                	or     (%eax),%eax
 2b3:	00 0c 34             	add    %cl,(%esp,%esi,1)
 2b6:	00 03                	add    %al,(%ebx)
 2b8:	0e                   	push   %cs
 2b9:	3a 0b                	cmp    (%ebx),%cl
 2bb:	3b 0b                	cmp    (%ebx),%ecx
 2bd:	39 0b                	cmp    %ecx,(%ebx)
 2bf:	49                   	dec    %ecx
 2c0:	13 3f                	adc    (%edi),%edi
 2c2:	19 02                	sbb    %eax,(%edx)
 2c4:	18 00                	sbb    %al,(%eax)
 2c6:	00 0d 2e 01 3f 19    	add    %cl,0x193f012e
 2cc:	03 0e                	add    (%esi),%ecx
 2ce:	3a 0b                	cmp    (%ebx),%cl
 2d0:	3b 0b                	cmp    (%ebx),%ecx
 2d2:	39 0b                	cmp    %ecx,(%ebx)
 2d4:	27                   	daa    
 2d5:	19 49 13             	sbb    %ecx,0x13(%ecx)
 2d8:	11 01                	adc    %eax,(%ecx)
 2da:	12 06                	adc    (%esi),%al
 2dc:	40                   	inc    %eax
 2dd:	18 7a 19             	sbb    %bh,0x19(%edx)
 2e0:	00 00                	add    %al,(%eax)
 2e2:	00 01                	add    %al,(%ecx)
 2e4:	24 00                	and    $0x0,%al
 2e6:	0b 0b                	or     (%ebx),%ecx
 2e8:	3e 0b 03             	or     %ds:(%ebx),%eax
 2eb:	0e                   	push   %cs
 2ec:	00 00                	add    %al,(%eax)
 2ee:	02 34 00             	add    (%eax,%eax,1),%dh
 2f1:	03 08                	add    (%eax),%ecx
 2f3:	3a 21                	cmp    (%ecx),%ah
 2f5:	01 3b                	add    %edi,(%ebx)
 2f7:	0b 39                	or     (%ecx),%edi
 2f9:	0b 49 13             	or     0x13(%ecx),%ecx
 2fc:	02 18                	add    (%eax),%bl
 2fe:	00 00                	add    %al,(%eax)
 300:	03 0f                	add    (%edi),%ecx
 302:	00 0b                	add    %cl,(%ebx)
 304:	21 04 49             	and    %eax,(%ecx,%ecx,2)
 307:	13 00                	adc    (%eax),%eax
 309:	00 04 11             	add    %al,(%ecx,%edx,1)
 30c:	01 25 0e 13 0b 03    	add    %esp,0x30b130e
 312:	1f                   	pop    %ds
 313:	1b 1f                	sbb    (%edi),%ebx
 315:	11 01                	adc    %eax,(%ecx)
 317:	12 06                	adc    (%esi),%al
 319:	10 17                	adc    %dl,(%edi)
 31b:	00 00                	add    %al,(%eax)
 31d:	05 24 00 0b 0b       	add    $0xb0b0024,%eax
 322:	3e 0b 03             	or     %ds:(%ebx),%eax
 325:	08 00                	or     %al,(%eax)
 327:	00 06                	add    %al,(%esi)
 329:	2e 01 3f             	add    %edi,%cs:(%edi)
 32c:	19 03                	sbb    %eax,(%ebx)
 32e:	0e                   	push   %cs
 32f:	3a 0b                	cmp    (%ebx),%cl
 331:	3b 0b                	cmp    (%ebx),%ecx
 333:	39 0b                	cmp    %ecx,(%ebx)
 335:	27                   	daa    
 336:	19 49 13             	sbb    %ecx,0x13(%ecx)
 339:	11 01                	adc    %eax,(%ecx)
 33b:	12 06                	adc    (%esi),%al
 33d:	40                   	inc    %eax
 33e:	18 7a 19             	sbb    %bh,0x19(%edx)
 341:	01 13                	add    %edx,(%ebx)
 343:	00 00                	add    %al,(%eax)
 345:	07                   	pop    %es
 346:	05 00 03 0e 3a       	add    $0x3a0e0300,%eax
 34b:	0b 3b                	or     (%ebx),%edi
 34d:	0b 39                	or     (%ecx),%edi
 34f:	0b 49 13             	or     0x13(%ecx),%ecx
 352:	02 18                	add    (%eax),%bl
 354:	00 00                	add    %al,(%eax)
 356:	08 05 00 03 08 3a    	or     %al,0x3a080300
 35c:	0b 3b                	or     (%ebx),%edi
 35e:	0b 39                	or     (%ecx),%edi
 360:	0b 49 13             	or     0x13(%ecx),%ecx
 363:	02 18                	add    (%eax),%bl
 365:	00 00                	add    %al,(%eax)
 367:	09 26                	or     %esp,(%esi)
 369:	00 49 13             	add    %cl,0x13(%ecx)
 36c:	00 00                	add    %al,(%eax)
 36e:	00 01                	add    %al,(%ecx)
 370:	24 00                	and    $0x0,%al
 372:	0b 0b                	or     (%ebx),%ecx
 374:	3e 0b 03             	or     %ds:(%ebx),%eax
 377:	0e                   	push   %cs
 378:	00 00                	add    %al,(%eax)
 37a:	02 11                	add    (%ecx),%dl
 37c:	01 25 0e 13 0b 03    	add    %esp,0x30b130e
 382:	1f                   	pop    %ds
 383:	1b 1f                	sbb    (%edi),%ebx
 385:	11 01                	adc    %eax,(%ecx)
 387:	12 06                	adc    (%esi),%al
 389:	10 17                	adc    %dl,(%edi)
 38b:	00 00                	add    %al,(%eax)
 38d:	03 16                	add    (%esi),%edx
 38f:	00 03                	add    %al,(%ebx)
 391:	0e                   	push   %cs
 392:	3a 0b                	cmp    (%ebx),%cl
 394:	3b 0b                	cmp    (%ebx),%ecx
 396:	39 0b                	cmp    %ecx,(%ebx)
 398:	49                   	dec    %ecx
 399:	13 00                	adc    (%eax),%eax
 39b:	00 04 24             	add    %al,(%esp)
 39e:	00 0b                	add    %cl,(%ebx)
 3a0:	0b 3e                	or     (%esi),%edi
 3a2:	0b 03                	or     (%ebx),%eax
 3a4:	08 00                	or     %al,(%eax)
 3a6:	00 05 2e 01 3f 19    	add    %al,0x193f012e
 3ac:	03 0e                	add    (%esi),%ecx
 3ae:	3a 0b                	cmp    (%ebx),%cl
 3b0:	3b 0b                	cmp    (%ebx),%ecx
 3b2:	39 0b                	cmp    %ecx,(%ebx)
 3b4:	27                   	daa    
 3b5:	19 49 13             	sbb    %ecx,0x13(%ecx)
 3b8:	11 01                	adc    %eax,(%ecx)
 3ba:	12 06                	adc    (%esi),%al
 3bc:	40                   	inc    %eax
 3bd:	18 7a 19             	sbb    %bh,0x19(%edx)
 3c0:	01 13                	add    %edx,(%ebx)
 3c2:	00 00                	add    %al,(%eax)
 3c4:	06                   	push   %es
 3c5:	05 00 03 08 3a       	add    $0x3a080300,%eax
 3ca:	0b 3b                	or     (%ebx),%edi
 3cc:	0b 39                	or     (%ecx),%edi
 3ce:	0b 49 13             	or     0x13(%ecx),%ecx
 3d1:	02 18                	add    (%eax),%bl
 3d3:	00 00                	add    %al,(%eax)
 3d5:	07                   	pop    %es
 3d6:	34 00                	xor    $0x0,%al
 3d8:	03 08                	add    (%eax),%ecx
 3da:	3a 0b                	cmp    (%ebx),%cl
 3dc:	3b 0b                	cmp    (%ebx),%ecx
 3de:	39 0b                	cmp    %ecx,(%ebx)
 3e0:	49                   	dec    %ecx
 3e1:	13 02                	adc    (%edx),%eax
 3e3:	18 00                	sbb    %al,(%eax)
 3e5:	00 08                	add    %cl,(%eax)
 3e7:	0f 00 0b             	str    (%ebx)
 3ea:	0b 49 13             	or     0x13(%ecx),%ecx
 3ed:	00 00                	add    %al,(%eax)
 3ef:	09 26                	or     %esp,(%esi)
 3f1:	00 49 13             	add    %cl,0x13(%ecx)
 3f4:	00 00                	add    %al,(%eax)
 3f6:	00 01                	add    %al,(%ecx)
 3f8:	24 00                	and    $0x0,%al
 3fa:	0b 0b                	or     (%ebx),%ecx
 3fc:	3e 0b 03             	or     %ds:(%ebx),%eax
 3ff:	0e                   	push   %cs
 400:	00 00                	add    %al,(%eax)
 402:	02 05 00 03 08 3a    	add    0x3a080300,%al
 408:	21 01                	and    %eax,(%ecx)
 40a:	3b 0b                	cmp    (%ebx),%ecx
 40c:	39 0b                	cmp    %ecx,(%ebx)
 40e:	49                   	dec    %ecx
 40f:	13 02                	adc    (%edx),%eax
 411:	18 00                	sbb    %al,(%eax)
 413:	00 03                	add    %al,(%ebx)
 415:	34 00                	xor    $0x0,%al
 417:	03 08                	add    (%eax),%ecx
 419:	3a 21                	cmp    (%ecx),%ah
 41b:	01 3b                	add    %edi,(%ebx)
 41d:	0b 39                	or     (%ecx),%edi
 41f:	0b 49 13             	or     0x13(%ecx),%ecx
 422:	02 18                	add    (%eax),%bl
 424:	00 00                	add    %al,(%eax)
 426:	04 34                	add    $0x34,%al
 428:	00 03                	add    %al,(%ebx)
 42a:	0e                   	push   %cs
 42b:	3a 21                	cmp    (%ecx),%ah
 42d:	01 3b                	add    %edi,(%ebx)
 42f:	0b 39                	or     (%ecx),%edi
 431:	0b 49 13             	or     0x13(%ecx),%ecx
 434:	02 18                	add    (%eax),%bl
 436:	00 00                	add    %al,(%eax)
 438:	05 05 00 03 0e       	add    $0xe030005,%eax
 43d:	3a 21                	cmp    (%ecx),%ah
 43f:	01 3b                	add    %edi,(%ebx)
 441:	0b 39                	or     (%ecx),%edi
 443:	0b 49 13             	or     0x13(%ecx),%ecx
 446:	02 18                	add    (%eax),%bl
 448:	00 00                	add    %al,(%eax)
 44a:	06                   	push   %es
 44b:	0b 01                	or     (%ecx),%eax
 44d:	11 01                	adc    %eax,(%ecx)
 44f:	12 06                	adc    (%esi),%al
 451:	00 00                	add    %al,(%eax)
 453:	07                   	pop    %es
 454:	2e 01 3f             	add    %edi,%cs:(%edi)
 457:	19 03                	sbb    %eax,(%ebx)
 459:	0e                   	push   %cs
 45a:	3a 21                	cmp    (%ecx),%ah
 45c:	01 3b                	add    %edi,(%ebx)
 45e:	0b 39                	or     (%ecx),%edi
 460:	21 01                	and    %eax,(%ecx)
 462:	27                   	daa    
 463:	19 49 13             	sbb    %ecx,0x13(%ecx)
 466:	11 01                	adc    %eax,(%ecx)
 468:	12 06                	adc    (%esi),%al
 46a:	40                   	inc    %eax
 46b:	18 7a 19             	sbb    %bh,0x19(%edx)
 46e:	01 13                	add    %edx,(%ebx)
 470:	00 00                	add    %al,(%eax)
 472:	08 0f                	or     %cl,(%edi)
 474:	00 0b                	add    %cl,(%ebx)
 476:	21 04 49             	and    %eax,(%ecx,%ecx,2)
 479:	13 00                	adc    (%eax),%eax
 47b:	00 09                	add    %cl,(%ecx)
 47d:	16                   	push   %ss
 47e:	00 03                	add    %al,(%ebx)
 480:	0e                   	push   %cs
 481:	3a 0b                	cmp    (%ebx),%cl
 483:	3b 0b                	cmp    (%ebx),%ecx
 485:	39 0b                	cmp    %ecx,(%ebx)
 487:	49                   	dec    %ecx
 488:	13 00                	adc    (%eax),%eax
 48a:	00 0a                	add    %cl,(%edx)
 48c:	11 01                	adc    %eax,(%ecx)
 48e:	25 0e 13 0b 03       	and    $0x30b130e,%eax
 493:	1f                   	pop    %ds
 494:	1b 1f                	sbb    (%edi),%ebx
 496:	11 01                	adc    %eax,(%ecx)
 498:	12 06                	adc    (%esi),%al
 49a:	10 17                	adc    %dl,(%edi)
 49c:	00 00                	add    %al,(%eax)
 49e:	0b 26                	or     (%esi),%esp
 4a0:	00 49 13             	add    %cl,0x13(%ecx)
 4a3:	00 00                	add    %al,(%eax)
 4a5:	0c 24                	or     $0x24,%al
 4a7:	00 0b                	add    %cl,(%ebx)
 4a9:	0b 3e                	or     (%esi),%edi
 4ab:	0b 03                	or     (%ebx),%eax
 4ad:	08 00                	or     %al,(%eax)
 4af:	00 0d 26 00 00 00    	add    %cl,0x26
 4b5:	0e                   	push   %cs
 4b6:	0f 00 0b             	str    (%ebx)
 4b9:	0b 00                	or     (%eax),%eax
 4bb:	00 0f                	add    %cl,(%edi)
 4bd:	0b 01                	or     (%ecx),%eax
 4bf:	11 01                	adc    %eax,(%ecx)
 4c1:	12 06                	adc    (%esi),%al
 4c3:	01 13                	add    %edx,(%ebx)
 4c5:	00 00                	add    %al,(%eax)
 4c7:	10 2e                	adc    %ch,(%esi)
 4c9:	01 3f                	add    %edi,(%edi)
 4cb:	19 03                	sbb    %eax,(%ebx)
 4cd:	0e                   	push   %cs
 4ce:	3a 0b                	cmp    (%ebx),%cl
 4d0:	3b 0b                	cmp    (%ebx),%ecx
 4d2:	39 0b                	cmp    %ecx,(%ebx)
 4d4:	27                   	daa    
 4d5:	19 49 13             	sbb    %ecx,0x13(%ecx)
 4d8:	11 01                	adc    %eax,(%ecx)
 4da:	12 06                	adc    (%esi),%al
 4dc:	40                   	inc    %eax
 4dd:	18 7a 19             	sbb    %bh,0x19(%edx)
 4e0:	00 00                	add    %al,(%eax)
 4e2:	00 01                	add    %al,(%ecx)
 4e4:	05 00 49 13 00       	add    $0x134900,%eax
 4e9:	00 02                	add    %al,(%edx)
 4eb:	24 00                	and    $0x0,%al
 4ed:	0b 0b                	or     (%ebx),%ecx
 4ef:	3e 0b 03             	or     %ds:(%ebx),%eax
 4f2:	0e                   	push   %cs
 4f3:	00 00                	add    %al,(%eax)
 4f5:	03 34 00             	add    (%eax,%eax,1),%esi
 4f8:	03 08                	add    (%eax),%ecx
 4fa:	3a 21                	cmp    (%ecx),%ah
 4fc:	01 3b                	add    %edi,(%ebx)
 4fe:	0b 39                	or     (%ecx),%edi
 500:	0b 49 13             	or     0x13(%ecx),%ecx
 503:	02 18                	add    (%eax),%bl
 505:	00 00                	add    %al,(%eax)
 507:	04 16                	add    $0x16,%al
 509:	00 03                	add    %al,(%ebx)
 50b:	0e                   	push   %cs
 50c:	3a 0b                	cmp    (%ebx),%cl
 50e:	3b 0b                	cmp    (%ebx),%ecx
 510:	39 0b                	cmp    %ecx,(%ebx)
 512:	49                   	dec    %ecx
 513:	13 00                	adc    (%eax),%eax
 515:	00 05 2e 01 3f 19    	add    %al,0x193f012e
 51b:	03 0e                	add    (%esi),%ecx
 51d:	3a 0b                	cmp    (%ebx),%cl
 51f:	3b 0b                	cmp    (%ebx),%ecx
 521:	39 0b                	cmp    %ecx,(%ebx)
 523:	27                   	daa    
 524:	19 49 13             	sbb    %ecx,0x13(%ecx)
 527:	3c 19                	cmp    $0x19,%al
 529:	01 13                	add    %edx,(%ebx)
 52b:	00 00                	add    %al,(%eax)
 52d:	06                   	push   %es
 52e:	0f 00 0b             	str    (%ebx)
 531:	21 04 49             	and    %eax,(%ecx,%ecx,2)
 534:	13 00                	adc    (%eax),%eax
 536:	00 07                	add    %al,(%edi)
 538:	05 00 03 0e 3a       	add    $0x3a0e0300,%eax
 53d:	21 01                	and    %eax,(%ecx)
 53f:	3b 0b                	cmp    (%ebx),%ecx
 541:	39 0b                	cmp    %ecx,(%ebx)
 543:	49                   	dec    %ecx
 544:	13 02                	adc    (%edx),%eax
 546:	18 00                	sbb    %al,(%eax)
 548:	00 08                	add    %cl,(%eax)
 54a:	34 00                	xor    $0x0,%al
 54c:	03 0e                	add    (%esi),%ecx
 54e:	3a 21                	cmp    (%ecx),%ah
 550:	01 3b                	add    %edi,(%ebx)
 552:	0b 39                	or     (%ecx),%edi
 554:	0b 49 13             	or     0x13(%ecx),%ecx
 557:	02 18                	add    (%eax),%bl
 559:	00 00                	add    %al,(%eax)
 55b:	09 0b                	or     %ecx,(%ebx)
 55d:	01 11                	add    %edx,(%ecx)
 55f:	01 12                	add    %edx,(%edx)
 561:	06                   	push   %es
 562:	01 13                	add    %edx,(%ebx)
 564:	00 00                	add    %al,(%eax)
 566:	0a 05 00 03 08 3a    	or     0x3a080300,%al
 56c:	21 01                	and    %eax,(%ecx)
 56e:	3b 0b                	cmp    (%ebx),%ecx
 570:	39 0b                	cmp    %ecx,(%ebx)
 572:	49                   	dec    %ecx
 573:	13 02                	adc    (%edx),%eax
 575:	18 00                	sbb    %al,(%eax)
 577:	00 0b                	add    %cl,(%ebx)
 579:	11 01                	adc    %eax,(%ecx)
 57b:	25 0e 13 0b 03       	and    $0x30b130e,%eax
 580:	1f                   	pop    %ds
 581:	1b 1f                	sbb    (%edi),%ebx
 583:	11 01                	adc    %eax,(%ecx)
 585:	12 06                	adc    (%esi),%al
 587:	10 17                	adc    %dl,(%edi)
 589:	00 00                	add    %al,(%eax)
 58b:	0c 0f                	or     $0xf,%al
 58d:	00 0b                	add    %cl,(%ebx)
 58f:	0b 03                	or     (%ebx),%eax
 591:	0e                   	push   %cs
 592:	49                   	dec    %ecx
 593:	13 00                	adc    (%eax),%eax
 595:	00 0d 26 00 49 13    	add    %cl,0x13490026
 59b:	00 00                	add    %al,(%eax)
 59d:	0e                   	push   %cs
 59e:	24 00                	and    $0x0,%al
 5a0:	0b 0b                	or     (%ebx),%ecx
 5a2:	3e 0b 03             	or     %ds:(%ebx),%eax
 5a5:	08 00                	or     %al,(%eax)
 5a7:	00 0f                	add    %cl,(%edi)
 5a9:	2e 01 3f             	add    %edi,%cs:(%edi)
 5ac:	19 03                	sbb    %eax,(%ebx)
 5ae:	0e                   	push   %cs
 5af:	3a 0b                	cmp    (%ebx),%cl
 5b1:	3b 0b                	cmp    (%ebx),%ecx
 5b3:	39 0b                	cmp    %ecx,(%ebx)
 5b5:	27                   	daa    
 5b6:	19 11                	sbb    %edx,(%ecx)
 5b8:	01 12                	add    %edx,(%edx)
 5ba:	06                   	push   %es
 5bb:	40                   	inc    %eax
 5bc:	18 7c 19 01          	sbb    %bh,0x1(%ecx,%ebx,1)
 5c0:	13 00                	adc    (%eax),%eax
 5c2:	00 10                	add    %dl,(%eax)
 5c4:	18 00                	sbb    %al,(%eax)
 5c6:	00 00                	add    %al,(%eax)
 5c8:	11 2e                	adc    %ebp,(%esi)
 5ca:	01 3f                	add    %edi,(%edi)
 5cc:	19 03                	sbb    %eax,(%ebx)
 5ce:	0e                   	push   %cs
 5cf:	3a 0b                	cmp    (%ebx),%cl
 5d1:	3b 0b                	cmp    (%ebx),%ecx
 5d3:	39 0b                	cmp    %ecx,(%ebx)
 5d5:	27                   	daa    
 5d6:	19 11                	sbb    %edx,(%ecx)
 5d8:	01 12                	add    %edx,(%edx)
 5da:	06                   	push   %es
 5db:	40                   	inc    %eax
 5dc:	18 7c 19 00          	sbb    %bh,0x0(%ecx,%ebx,1)
 5e0:	00 12                	add    %dl,(%edx)
 5e2:	0b 01                	or     (%ecx),%eax
 5e4:	11 01                	adc    %eax,(%ecx)
 5e6:	12 06                	adc    (%esi),%al
 5e8:	00 00                	add    %al,(%eax)
 5ea:	00 01                	add    %al,(%ecx)
 5ec:	05 00 49 13 00       	add    $0x134900,%eax
 5f1:	00 02                	add    %al,(%edx)
 5f3:	24 00                	and    $0x0,%al
 5f5:	0b 0b                	or     (%ebx),%ecx
 5f7:	3e 0b 03             	or     %ds:(%ebx),%eax
 5fa:	0e                   	push   %cs
 5fb:	00 00                	add    %al,(%eax)
 5fd:	03 16                	add    (%esi),%edx
 5ff:	00 03                	add    %al,(%ebx)
 601:	0e                   	push   %cs
 602:	3a 21                	cmp    (%ecx),%ah
 604:	02 3b                	add    (%ebx),%bh
 606:	0b 39                	or     (%ecx),%edi
 608:	0b 49 13             	or     0x13(%ecx),%ecx
 60b:	00 00                	add    %al,(%eax)
 60d:	04 2e                	add    $0x2e,%al
 60f:	01 3f                	add    %edi,(%edi)
 611:	19 03                	sbb    %eax,(%ebx)
 613:	0e                   	push   %cs
 614:	3a 0b                	cmp    (%ebx),%cl
 616:	3b 0b                	cmp    (%ebx),%ecx
 618:	39 21                	cmp    %esp,(%ecx)
 61a:	06                   	push   %es
 61b:	27                   	daa    
 61c:	19 3c 19             	sbb    %edi,(%ecx,%ebx,1)
 61f:	01 13                	add    %edx,(%ebx)
 621:	00 00                	add    %al,(%eax)
 623:	05 34 00 03 0e       	add    $0xe030034,%eax
 628:	3a 21                	cmp    (%ecx),%ah
 62a:	01 3b                	add    %edi,(%ebx)
 62c:	0b 39                	or     (%ecx),%edi
 62e:	0b 49 13             	or     0x13(%ecx),%ecx
 631:	02 18                	add    (%eax),%bl
 633:	00 00                	add    %al,(%eax)
 635:	06                   	push   %es
 636:	11 01                	adc    %eax,(%ecx)
 638:	25 0e 13 0b 03       	and    $0x30b130e,%eax
 63d:	1f                   	pop    %ds
 63e:	1b 1f                	sbb    (%edi),%ebx
 640:	11 01                	adc    %eax,(%ecx)
 642:	12 06                	adc    (%esi),%al
 644:	10 17                	adc    %dl,(%edi)
 646:	00 00                	add    %al,(%eax)
 648:	07                   	pop    %es
 649:	0f 00 0b             	str    (%ebx)
 64c:	0b 03                	or     (%ebx),%eax
 64e:	0e                   	push   %cs
 64f:	49                   	dec    %ecx
 650:	13 00                	adc    (%eax),%eax
 652:	00 08                	add    %cl,(%eax)
 654:	0f 00 0b             	str    (%ebx)
 657:	0b 49 13             	or     0x13(%ecx),%ecx
 65a:	00 00                	add    %al,(%eax)
 65c:	09 2e                	or     %ebp,(%esi)
 65e:	01 3f                	add    %edi,(%edi)
 660:	19 03                	sbb    %eax,(%ebx)
 662:	0e                   	push   %cs
 663:	3a 0b                	cmp    (%ebx),%cl
 665:	3b 0b                	cmp    (%ebx),%ecx
 667:	39 0b                	cmp    %ecx,(%ebx)
 669:	27                   	daa    
 66a:	19 11                	sbb    %edx,(%ecx)
 66c:	01 12                	add    %edx,(%edx)
 66e:	06                   	push   %es
 66f:	40                   	inc    %eax
 670:	18 7c 19 01          	sbb    %bh,0x1(%ecx,%ebx,1)
 674:	13 00                	adc    (%eax),%eax
 676:	00 0a                	add    %cl,(%edx)
 678:	05 00 03 08 3a       	add    $0x3a080300,%eax
 67d:	0b 3b                	or     (%ebx),%edi
 67f:	0b 39                	or     (%ecx),%edi
 681:	0b 49 13             	or     0x13(%ecx),%ecx
 684:	02 18                	add    (%eax),%bl
 686:	00 00                	add    %al,(%eax)
 688:	0b 18                	or     (%eax),%ebx
 68a:	00 00                	add    %al,(%eax)
 68c:	00 0c 01             	add    %cl,(%ecx,%eax,1)
 68f:	01 49 13             	add    %ecx,0x13(%ecx)
 692:	01 13                	add    %edx,(%ebx)
 694:	00 00                	add    %al,(%eax)
 696:	0d 21 00 49 13       	or     $0x13490021,%eax
 69b:	2f                   	das    
 69c:	05 00 00 00 01       	add    $0x1000000,%eax
 6a1:	34 00                	xor    $0x0,%al
 6a3:	03 08                	add    (%eax),%ecx
 6a5:	3a 21                	cmp    (%ecx),%ah
 6a7:	01 3b                	add    %edi,(%ebx)
 6a9:	0b 39                	or     (%ecx),%edi
 6ab:	0b 49 13             	or     0x13(%ecx),%ecx
 6ae:	02 18                	add    (%eax),%bl
 6b0:	00 00                	add    %al,(%eax)
 6b2:	02 34 00             	add    (%eax,%eax,1),%dh
 6b5:	03 0e                	add    (%esi),%ecx
 6b7:	3a 21                	cmp    (%ecx),%ah
 6b9:	01 3b                	add    %edi,(%ebx)
 6bb:	0b 39                	or     (%ecx),%edi
 6bd:	0b 49 13             	or     0x13(%ecx),%ecx
 6c0:	02 18                	add    (%eax),%bl
 6c2:	00 00                	add    %al,(%eax)
 6c4:	03 24 00             	add    (%eax,%eax,1),%esp
 6c7:	0b 0b                	or     (%ebx),%ecx
 6c9:	3e 0b 03             	or     %ds:(%ebx),%eax
 6cc:	0e                   	push   %cs
 6cd:	00 00                	add    %al,(%eax)
 6cf:	04 16                	add    $0x16,%al
 6d1:	00 03                	add    %al,(%ebx)
 6d3:	0e                   	push   %cs
 6d4:	3a 0b                	cmp    (%ebx),%cl
 6d6:	3b 0b                	cmp    (%ebx),%ecx
 6d8:	39 0b                	cmp    %ecx,(%ebx)
 6da:	49                   	dec    %ecx
 6db:	13 00                	adc    (%eax),%eax
 6dd:	00 05 05 00 03 08    	add    %al,0x8030005
 6e3:	3a 21                	cmp    (%ecx),%ah
 6e5:	01 3b                	add    %edi,(%ebx)
 6e7:	0b 39                	or     (%ecx),%edi
 6e9:	0b 49 13             	or     0x13(%ecx),%ecx
 6ec:	02 18                	add    (%eax),%bl
 6ee:	00 00                	add    %al,(%eax)
 6f0:	06                   	push   %es
 6f1:	05 00 49 13 00       	add    $0x134900,%eax
 6f6:	00 07                	add    %al,(%edi)
 6f8:	0b 01                	or     (%ecx),%eax
 6fa:	11 01                	adc    %eax,(%ecx)
 6fc:	12 06                	adc    (%esi),%al
 6fe:	00 00                	add    %al,(%eax)
 700:	08 05 00 03 0e 3a    	or     %al,0x3a0e0300
 706:	21 01                	and    %eax,(%ecx)
 708:	3b 0b                	cmp    (%ebx),%ecx
 70a:	39 0b                	cmp    %ecx,(%ebx)
 70c:	49                   	dec    %ecx
 70d:	13 02                	adc    (%edx),%eax
 70f:	18 00                	sbb    %al,(%eax)
 711:	00 09                	add    %cl,(%ecx)
 713:	0f 00 0b             	str    (%ebx)
 716:	21 04 49             	and    %eax,(%ecx,%ecx,2)
 719:	13 00                	adc    (%eax),%eax
 71b:	00 0a                	add    %cl,(%edx)
 71d:	2e 01 3f             	add    %edi,%cs:(%edi)
 720:	19 03                	sbb    %eax,(%ebx)
 722:	0e                   	push   %cs
 723:	3a 0b                	cmp    (%ebx),%cl
 725:	3b 0b                	cmp    (%ebx),%ecx
 727:	39 0b                	cmp    %ecx,(%ebx)
 729:	27                   	daa    
 72a:	19 49 13             	sbb    %ecx,0x13(%ecx)
 72d:	3c 19                	cmp    $0x19,%al
 72f:	01 13                	add    %edx,(%ebx)
 731:	00 00                	add    %al,(%eax)
 733:	0b 2e                	or     (%esi),%ebp
 735:	01 3f                	add    %edi,(%edi)
 737:	19 03                	sbb    %eax,(%ebx)
 739:	0e                   	push   %cs
 73a:	3a 21                	cmp    (%ecx),%ah
 73c:	01 3b                	add    %edi,(%ebx)
 73e:	0b 39                	or     (%ecx),%edi
 740:	21 07                	and    %eax,(%edi)
 742:	27                   	daa    
 743:	19 49 13             	sbb    %ecx,0x13(%ecx)
 746:	11 01                	adc    %eax,(%ecx)
 748:	12 06                	adc    (%esi),%al
 74a:	40                   	inc    %eax
 74b:	18 7c 19 01          	sbb    %bh,0x1(%ecx,%ebx,1)
 74f:	13 00                	adc    (%eax),%eax
 751:	00 0c 11             	add    %cl,(%ecx,%edx,1)
 754:	01 25 0e 13 0b 03    	add    %esp,0x30b130e
 75a:	1f                   	pop    %ds
 75b:	1b 1f                	sbb    (%edi),%ebx
 75d:	11 01                	adc    %eax,(%ecx)
 75f:	12 06                	adc    (%esi),%al
 761:	10 17                	adc    %dl,(%edi)
 763:	00 00                	add    %al,(%eax)
 765:	0d 24 00 0b 0b       	or     $0xb0b0024,%eax
 76a:	3e 0b 03             	or     %ds:(%ebx),%eax
 76d:	08 00                	or     %al,(%eax)
 76f:	00 0e                	add    %cl,(%esi)
 771:	0f 00 0b             	str    (%ebx)
 774:	0b 00                	or     (%eax),%eax
 776:	00 0f                	add    %cl,(%edi)
 778:	2e 01 3f             	add    %edi,%cs:(%edi)
 77b:	19 03                	sbb    %eax,(%ebx)
 77d:	0e                   	push   %cs
 77e:	3a 0b                	cmp    (%ebx),%cl
 780:	3b 0b                	cmp    (%ebx),%ecx
 782:	39 0b                	cmp    %ecx,(%ebx)
 784:	49                   	dec    %ecx
 785:	13 3c 19             	adc    (%ecx,%ebx,1),%edi
 788:	01 13                	add    %edx,(%ebx)
 78a:	00 00                	add    %al,(%eax)
 78c:	10 18                	adc    %bl,(%eax)
 78e:	00 00                	add    %al,(%eax)
 790:	00 11                	add    %dl,(%ecx)
 792:	2e 01 3f             	add    %edi,%cs:(%edi)
 795:	19 03                	sbb    %eax,(%ebx)
 797:	0e                   	push   %cs
 798:	3a 0b                	cmp    (%ebx),%cl
 79a:	3b 0b                	cmp    (%ebx),%ecx
 79c:	39 0b                	cmp    %ecx,(%ebx)
 79e:	27                   	daa    
 79f:	19 49 13             	sbb    %ecx,0x13(%ecx)
 7a2:	11 01                	adc    %eax,(%ecx)
 7a4:	12 06                	adc    (%esi),%al
 7a6:	40                   	inc    %eax
 7a7:	18 7a 19             	sbb    %bh,0x19(%edx)
 7aa:	01 13                	add    %edx,(%ebx)
 7ac:	00 00                	add    %al,(%eax)
 7ae:	12 2e                	adc    (%esi),%ch
 7b0:	01 3f                	add    %edi,(%edi)
 7b2:	19 03                	sbb    %eax,(%ebx)
 7b4:	0e                   	push   %cs
 7b5:	3a 0b                	cmp    (%ebx),%cl
 7b7:	3b 0b                	cmp    (%ebx),%ecx
 7b9:	39 0b                	cmp    %ecx,(%ebx)
 7bb:	27                   	daa    
 7bc:	19 11                	sbb    %edx,(%ecx)
 7be:	01 12                	add    %edx,(%edx)
 7c0:	06                   	push   %es
 7c1:	40                   	inc    %eax
 7c2:	18 7c 19 01          	sbb    %bh,0x1(%ecx,%ebx,1)
 7c6:	13 00                	adc    (%eax),%eax
 7c8:	00 13                	add    %dl,(%ebx)
 7ca:	2e 01 3f             	add    %edi,%cs:(%edi)
 7cd:	19 03                	sbb    %eax,(%ebx)
 7cf:	0e                   	push   %cs
 7d0:	3a 0b                	cmp    (%ebx),%cl
 7d2:	3b 0b                	cmp    (%ebx),%ecx
 7d4:	39 0b                	cmp    %ecx,(%ebx)
 7d6:	49                   	dec    %ecx
 7d7:	13 11                	adc    (%ecx),%edx
 7d9:	01 12                	add    %edx,(%edx)
 7db:	06                   	push   %es
 7dc:	40                   	inc    %eax
 7dd:	18 7c 19 01          	sbb    %bh,0x1(%ecx,%ebx,1)
 7e1:	13 00                	adc    (%eax),%eax
 7e3:	00 14 2e             	add    %dl,(%esi,%ebp,1)
 7e6:	00 3f                	add    %bh,(%edi)
 7e8:	19 03                	sbb    %eax,(%ebx)
 7ea:	0e                   	push   %cs
 7eb:	3a 0b                	cmp    (%ebx),%cl
 7ed:	3b 0b                	cmp    (%ebx),%ecx
 7ef:	39 0b                	cmp    %ecx,(%ebx)
 7f1:	11 01                	adc    %eax,(%ecx)
 7f3:	12 06                	adc    (%esi),%al
 7f5:	40                   	inc    %eax
 7f6:	18 7a 19             	sbb    %bh,0x19(%edx)
 7f9:	00 00                	add    %al,(%eax)
 7fb:	15 2e 01 3f 19       	adc    $0x193f012e,%eax
 800:	03 0e                	add    (%esi),%ecx
 802:	3a 0b                	cmp    (%ebx),%cl
 804:	3b 0b                	cmp    (%ebx),%ecx
 806:	39 0b                	cmp    %ecx,(%ebx)
 808:	27                   	daa    
 809:	19 11                	sbb    %edx,(%ecx)
 80b:	01 12                	add    %edx,(%edx)
 80d:	06                   	push   %es
 80e:	40                   	inc    %eax
 80f:	18 7a 19             	sbb    %bh,0x19(%edx)
 812:	01 13                	add    %edx,(%ebx)
 814:	00 00                	add    %al,(%eax)
 816:	16                   	push   %ss
 817:	2e 01 3f             	add    %edi,%cs:(%edi)
 81a:	19 03                	sbb    %eax,(%ebx)
 81c:	0e                   	push   %cs
 81d:	3a 0b                	cmp    (%ebx),%cl
 81f:	3b 0b                	cmp    (%ebx),%ecx
 821:	39 0b                	cmp    %ecx,(%ebx)
 823:	49                   	dec    %ecx
 824:	13 11                	adc    (%ecx),%edx
 826:	01 12                	add    %edx,(%edx)
 828:	06                   	push   %es
 829:	40                   	inc    %eax
 82a:	18 7a 19             	sbb    %bh,0x19(%edx)
 82d:	00 00                	add    %al,(%eax)
 82f:	00 01                	add    %al,(%ecx)
 831:	34 00                	xor    $0x0,%al
 833:	03 0e                	add    (%esi),%ecx
 835:	3a 21                	cmp    (%ecx),%ah
 837:	01 3b                	add    %edi,(%ebx)
 839:	0b 39                	or     (%ecx),%edi
 83b:	0b 49 13             	or     0x13(%ecx),%ecx
 83e:	02 18                	add    (%eax),%bl
 840:	00 00                	add    %al,(%eax)
 842:	02 24 00             	add    (%eax,%eax,1),%ah
 845:	0b 0b                	or     (%ebx),%ecx
 847:	3e 0b 03             	or     %ds:(%ebx),%eax
 84a:	0e                   	push   %cs
 84b:	00 00                	add    %al,(%eax)
 84d:	03 34 00             	add    (%eax,%eax,1),%esi
 850:	03 08                	add    (%eax),%ecx
 852:	3a 21                	cmp    (%ecx),%ah
 854:	01 3b                	add    %edi,(%ebx)
 856:	0b 39                	or     (%ecx),%edi
 858:	0b 49 13             	or     0x13(%ecx),%ecx
 85b:	02 18                	add    (%eax),%bl
 85d:	00 00                	add    %al,(%eax)
 85f:	04 05                	add    $0x5,%al
 861:	00 03                	add    %al,(%ebx)
 863:	0e                   	push   %cs
 864:	3a 21                	cmp    (%ecx),%ah
 866:	01 3b                	add    %edi,(%ebx)
 868:	0b 39                	or     (%ecx),%edi
 86a:	0b 49 13             	or     0x13(%ecx),%ecx
 86d:	02 18                	add    (%eax),%bl
 86f:	00 00                	add    %al,(%eax)
 871:	05 16 00 03 0e       	add    $0xe030016,%eax
 876:	3a 0b                	cmp    (%ebx),%cl
 878:	3b 0b                	cmp    (%ebx),%ecx
 87a:	39 0b                	cmp    %ecx,(%ebx)
 87c:	49                   	dec    %ecx
 87d:	13 00                	adc    (%eax),%eax
 87f:	00 06                	add    %al,(%esi)
 881:	0b 01                	or     (%ecx),%eax
 883:	11 01                	adc    %eax,(%ecx)
 885:	12 06                	adc    (%esi),%al
 887:	00 00                	add    %al,(%eax)
 889:	07                   	pop    %es
 88a:	2e 01 3f             	add    %edi,%cs:(%edi)
 88d:	19 03                	sbb    %eax,(%ebx)
 88f:	0e                   	push   %cs
 890:	3a 21                	cmp    (%ecx),%ah
 892:	01 3b                	add    %edi,(%ebx)
 894:	0b 39                	or     (%ecx),%edi
 896:	21 01                	and    %eax,(%ecx)
 898:	27                   	daa    
 899:	19 11                	sbb    %edx,(%ecx)
 89b:	01 12                	add    %edx,(%edx)
 89d:	06                   	push   %es
 89e:	40                   	inc    %eax
 89f:	18 7a 19             	sbb    %bh,0x19(%edx)
 8a2:	01 13                	add    %edx,(%ebx)
 8a4:	00 00                	add    %al,(%eax)
 8a6:	08 34 00             	or     %dh,(%eax,%eax,1)
 8a9:	03 0e                	add    (%esi),%ecx
 8ab:	3a 21                	cmp    (%ecx),%ah
 8ad:	01 3b                	add    %edi,(%ebx)
 8af:	0b 39                	or     (%ecx),%edi
 8b1:	0b 49 13             	or     0x13(%ecx),%ecx
 8b4:	3f                   	aas    
 8b5:	19 02                	sbb    %eax,(%edx)
 8b7:	18 00                	sbb    %al,(%eax)
 8b9:	00 09                	add    %cl,(%ecx)
 8bb:	05 00 03 08 3a       	add    $0x3a080300,%eax
 8c0:	21 01                	and    %eax,(%ecx)
 8c2:	3b 0b                	cmp    (%ebx),%ecx
 8c4:	39 0b                	cmp    %ecx,(%ebx)
 8c6:	49                   	dec    %ecx
 8c7:	13 02                	adc    (%edx),%eax
 8c9:	18 00                	sbb    %al,(%eax)
 8cb:	00 0a                	add    %cl,(%edx)
 8cd:	11 01                	adc    %eax,(%ecx)
 8cf:	25 0e 13 0b 03       	and    $0x30b130e,%eax
 8d4:	1f                   	pop    %ds
 8d5:	1b 1f                	sbb    (%edi),%ebx
 8d7:	11 01                	adc    %eax,(%ecx)
 8d9:	12 06                	adc    (%esi),%al
 8db:	10 17                	adc    %dl,(%edi)
 8dd:	00 00                	add    %al,(%eax)
 8df:	0b 24 00             	or     (%eax,%eax,1),%esp
 8e2:	0b 0b                	or     (%ebx),%ecx
 8e4:	3e 0b 03             	or     %ds:(%ebx),%eax
 8e7:	08 00                	or     %al,(%eax)
 8e9:	00 0c 01             	add    %cl,(%ecx,%eax,1)
 8ec:	01 49 13             	add    %ecx,0x13(%ecx)
 8ef:	01 13                	add    %edx,(%ebx)
 8f1:	00 00                	add    %al,(%eax)
 8f3:	0d 21 00 49 13       	or     $0x13490021,%eax
 8f8:	2f                   	das    
 8f9:	06                   	push   %es
 8fa:	00 00                	add    %al,(%eax)
 8fc:	0e                   	push   %cs
 8fd:	2e 01 3f             	add    %edi,%cs:(%edi)
 900:	19 03                	sbb    %eax,(%ebx)
 902:	0e                   	push   %cs
 903:	3a 0b                	cmp    (%ebx),%cl
 905:	3b 0b                	cmp    (%ebx),%ecx
 907:	39 0b                	cmp    %ecx,(%ebx)
 909:	27                   	daa    
 90a:	19 49 13             	sbb    %ecx,0x13(%ecx)
 90d:	11 01                	adc    %eax,(%ecx)
 90f:	12 06                	adc    (%esi),%al
 911:	40                   	inc    %eax
 912:	18 7c 19 01          	sbb    %bh,0x1(%ecx,%ebx,1)
 916:	13 00                	adc    (%eax),%eax
 918:	00 0f                	add    %cl,(%edi)
 91a:	0f 00 0b             	str    (%ebx)
 91d:	0b 00                	or     (%eax),%eax
 91f:	00 10                	add    %dl,(%eax)
 921:	2e 01 3f             	add    %edi,%cs:(%edi)
 924:	19 03                	sbb    %eax,(%ebx)
 926:	0e                   	push   %cs
 927:	3a 0b                	cmp    (%ebx),%cl
 929:	3b 0b                	cmp    (%ebx),%ecx
 92b:	39 0b                	cmp    %ecx,(%ebx)
 92d:	49                   	dec    %ecx
 92e:	13 11                	adc    (%ecx),%edx
 930:	01 12                	add    %edx,(%edx)
 932:	06                   	push   %es
 933:	40                   	inc    %eax
 934:	18 7c 19 01          	sbb    %bh,0x1(%ecx,%ebx,1)
 938:	13 00                	adc    (%eax),%eax
 93a:	00 11                	add    %dl,(%ecx)
 93c:	2e 01 3f             	add    %edi,%cs:(%edi)
 93f:	19 03                	sbb    %eax,(%ebx)
 941:	0e                   	push   %cs
 942:	3a 0b                	cmp    (%ebx),%cl
 944:	3b 0b                	cmp    (%ebx),%ecx
 946:	39 0b                	cmp    %ecx,(%ebx)
 948:	27                   	daa    
 949:	19 11                	sbb    %edx,(%ecx)
 94b:	01 12                	add    %edx,(%edx)
 94d:	06                   	push   %es
 94e:	40                   	inc    %eax
 94f:	18 7a 19             	sbb    %bh,0x19(%edx)
 952:	00 00                	add    %al,(%eax)
 954:	00 01                	add    %al,(%ecx)
 956:	0d 00 03 0e 3a       	or     $0x3a0e0300,%eax
 95b:	21 06                	and    %eax,(%esi)
 95d:	3b 0b                	cmp    (%ebx),%ecx
 95f:	39 0b                	cmp    %ecx,(%ebx)
 961:	49                   	dec    %ecx
 962:	13 38                	adc    (%eax),%edi
 964:	0b 00                	or     (%eax),%eax
 966:	00 02                	add    %al,(%edx)
 968:	05 00 49 13 00       	add    $0x134900,%eax
 96d:	00 03                	add    %al,(%ebx)
 96f:	16                   	push   %ss
 970:	00 03                	add    %al,(%ebx)
 972:	0e                   	push   %cs
 973:	3a 0b                	cmp    (%ebx),%cl
 975:	3b 0b                	cmp    (%ebx),%ecx
 977:	39 0b                	cmp    %ecx,(%ebx)
 979:	49                   	dec    %ecx
 97a:	13 00                	adc    (%eax),%eax
 97c:	00 04 24             	add    %al,(%esp)
 97f:	00 0b                	add    %cl,(%ebx)
 981:	0b 3e                	or     (%esi),%edi
 983:	0b 03                	or     (%ebx),%eax
 985:	0e                   	push   %cs
 986:	00 00                	add    %al,(%eax)
 988:	05 2e 01 3f 19       	add    $0x193f012e,%eax
 98d:	03 0e                	add    (%esi),%ecx
 98f:	3a 0b                	cmp    (%ebx),%cl
 991:	3b 0b                	cmp    (%ebx),%ecx
 993:	39 21                	cmp    %esp,(%ecx)
 995:	06                   	push   %es
 996:	27                   	daa    
 997:	19 3c 19             	sbb    %edi,(%ecx,%ebx,1)
 99a:	01 13                	add    %edx,(%ebx)
 99c:	00 00                	add    %al,(%eax)
 99e:	06                   	push   %es
 99f:	34 00                	xor    $0x0,%al
 9a1:	03 08                	add    (%eax),%ecx
 9a3:	3a 21                	cmp    (%ecx),%ah
 9a5:	01 3b                	add    %edi,(%ebx)
 9a7:	0b 39                	or     (%ecx),%edi
 9a9:	0b 49 13             	or     0x13(%ecx),%ecx
 9ac:	02 18                	add    (%eax),%bl
 9ae:	00 00                	add    %al,(%eax)
 9b0:	07                   	pop    %es
 9b1:	34 00                	xor    $0x0,%al
 9b3:	03 0e                	add    (%esi),%ecx
 9b5:	3a 21                	cmp    (%ecx),%ah
 9b7:	01 3b                	add    %edi,(%ebx)
 9b9:	0b 39                	or     (%ecx),%edi
 9bb:	0b 49 13             	or     0x13(%ecx),%ecx
 9be:	02 18                	add    (%eax),%bl
 9c0:	00 00                	add    %al,(%eax)
 9c2:	08 13                	or     %dl,(%ebx)
 9c4:	01 03                	add    %eax,(%ebx)
 9c6:	0e                   	push   %cs
 9c7:	0b 0b                	or     (%ebx),%ecx
 9c9:	3a 21                	cmp    (%ecx),%ah
 9cb:	06                   	push   %es
 9cc:	3b 0b                	cmp    (%ebx),%ecx
 9ce:	39 21                	cmp    %esp,(%ecx)
 9d0:	08 01                	or     %al,(%ecx)
 9d2:	13 00                	adc    (%eax),%eax
 9d4:	00 09                	add    %cl,(%ecx)
 9d6:	0b 01                	or     (%ecx),%eax
 9d8:	11 01                	adc    %eax,(%ecx)
 9da:	12 06                	adc    (%esi),%al
 9dc:	00 00                	add    %al,(%eax)
 9de:	0a 34 00             	or     (%eax,%eax,1),%dh
 9e1:	03 0e                	add    (%esi),%ecx
 9e3:	3a 21                	cmp    (%ecx),%ah
 9e5:	01 3b                	add    %edi,(%ebx)
 9e7:	0b 39                	or     (%ecx),%edi
 9e9:	21 0d 3f 19 3c 19    	and    %ecx,0x193c193f
 9ef:	00 00                	add    %al,(%eax)
 9f1:	0b 2e                	or     (%esi),%ebp
 9f3:	01 3f                	add    %edi,(%edi)
 9f5:	19 03                	sbb    %eax,(%ebx)
 9f7:	0e                   	push   %cs
 9f8:	3a 21                	cmp    (%ecx),%ah
 9fa:	07                   	pop    %es
 9fb:	3b 0b                	cmp    (%ebx),%ecx
 9fd:	39 21                	cmp    %esp,(%ecx)
 9ff:	07                   	pop    %es
 a00:	27                   	daa    
 a01:	19 49 13             	sbb    %ecx,0x13(%ecx)
 a04:	3c 19                	cmp    $0x19,%al
 a06:	01 13                	add    %edx,(%ebx)
 a08:	00 00                	add    %al,(%eax)
 a0a:	0c 18                	or     $0x18,%al
 a0c:	00 00                	add    %al,(%eax)
 a0e:	00 0d 0f 00 0b 21    	add    %cl,0x210b000f
 a14:	04 49                	add    $0x49,%al
 a16:	13 00                	adc    (%eax),%eax
 a18:	00 0e                	add    %cl,(%esi)
 a1a:	0d 00 03 08 3a       	or     $0x3a080300,%eax
 a1f:	21 06                	and    %eax,(%esi)
 a21:	3b 0b                	cmp    (%ebx),%ecx
 a23:	39 0b                	cmp    %ecx,(%ebx)
 a25:	49                   	dec    %ecx
 a26:	13 38                	adc    (%eax),%edi
 a28:	0b 00                	or     (%eax),%eax
 a2a:	00 0f                	add    %cl,(%edi)
 a2c:	17                   	pop    %ss
 a2d:	01 0b                	add    %ecx,(%ebx)
 a2f:	0b 3a                	or     (%edx),%edi
 a31:	21 06                	and    %eax,(%esi)
 a33:	3b 0b                	cmp    (%ebx),%ecx
 a35:	39 21                	cmp    %esp,(%ecx)
 a37:	05 01 13 00 00       	add    $0x1301,%eax
 a3c:	10 0d 00 03 0e 3a    	adc    %cl,0x3a0e0300
 a42:	21 06                	and    %eax,(%esi)
 a44:	3b 0b                	cmp    (%ebx),%ecx
 a46:	39 0b                	cmp    %ecx,(%ebx)
 a48:	49                   	dec    %ecx
 a49:	13 00                	adc    (%eax),%eax
 a4b:	00 11                	add    %dl,(%ecx)
 a4d:	13 01                	adc    (%ecx),%eax
 a4f:	0b 0b                	or     (%ebx),%ecx
 a51:	3a 21                	cmp    (%ecx),%ah
 a53:	06                   	push   %es
 a54:	3b 0b                	cmp    (%ebx),%ecx
 a56:	39 21                	cmp    %esp,(%ecx)
 a58:	09 01                	or     %eax,(%ecx)
 a5a:	13 00                	adc    (%eax),%eax
 a5c:	00 12                	add    %dl,(%edx)
 a5e:	0d 00 49 13 00       	or     $0x134900,%eax
 a63:	00 13                	add    %dl,(%ebx)
 a65:	2e 01 3f             	add    %edi,%cs:(%edi)
 a68:	19 03                	sbb    %eax,(%ebx)
 a6a:	0e                   	push   %cs
 a6b:	3a 0b                	cmp    (%ebx),%cl
 a6d:	3b 0b                	cmp    (%ebx),%ecx
 a6f:	39 21                	cmp    %esp,(%ecx)
 a71:	06                   	push   %es
 a72:	3c 19                	cmp    $0x19,%al
 a74:	01 13                	add    %edx,(%ebx)
 a76:	00 00                	add    %al,(%eax)
 a78:	14 2e                	adc    $0x2e,%al
 a7a:	01 3f                	add    %edi,(%edi)
 a7c:	19 03                	sbb    %eax,(%ebx)
 a7e:	0e                   	push   %cs
 a7f:	3a 21                	cmp    (%ecx),%ah
 a81:	01 3b                	add    %edi,(%ebx)
 a83:	0b 39                	or     (%ecx),%edi
 a85:	0b 27                	or     (%edi),%esp
 a87:	19 11                	sbb    %edx,(%ecx)
 a89:	01 12                	add    %edx,(%edx)
 a8b:	06                   	push   %es
 a8c:	40                   	inc    %eax
 a8d:	18 7c 19 01          	sbb    %bh,0x1(%ecx,%ebx,1)
 a91:	13 00                	adc    (%eax),%eax
 a93:	00 15 05 00 03 0e    	add    %dl,0xe030005
 a99:	3a 21                	cmp    (%ecx),%ah
 a9b:	01 3b                	add    %edi,(%ebx)
 a9d:	0b 39                	or     (%ecx),%edi
 a9f:	0b 49 13             	or     0x13(%ecx),%ecx
 aa2:	02 18                	add    (%eax),%bl
 aa4:	00 00                	add    %al,(%eax)
 aa6:	16                   	push   %ss
 aa7:	0b 01                	or     (%ecx),%eax
 aa9:	11 01                	adc    %eax,(%ecx)
 aab:	12 06                	adc    (%esi),%al
 aad:	01 13                	add    %edx,(%ebx)
 aaf:	00 00                	add    %al,(%eax)
 ab1:	17                   	pop    %ss
 ab2:	11 01                	adc    %eax,(%ecx)
 ab4:	25 0e 13 0b 03       	and    $0x30b130e,%eax
 ab9:	1f                   	pop    %ds
 aba:	1b 1f                	sbb    (%edi),%ebx
 abc:	11 01                	adc    %eax,(%ecx)
 abe:	12 06                	adc    (%esi),%al
 ac0:	10 17                	adc    %dl,(%edi)
 ac2:	00 00                	add    %al,(%eax)
 ac4:	18 24 00             	sbb    %ah,(%eax,%eax,1)
 ac7:	0b 0b                	or     (%ebx),%ecx
 ac9:	3e 0b 03             	or     %ds:(%ebx),%eax
 acc:	08 00                	or     %al,(%eax)
 ace:	00 19                	add    %bl,(%ecx)
 ad0:	0d 00 49 13 38       	or     $0x38134900,%eax
 ad5:	0b 00                	or     (%eax),%eax
 ad7:	00 1a                	add    %bl,(%edx)
 ad9:	0f 00 0b             	str    (%ebx)
 adc:	0b 00                	or     (%eax),%eax
 ade:	00 1b                	add    %bl,(%ebx)
 ae0:	01 01                	add    %eax,(%ecx)
 ae2:	49                   	dec    %ecx
 ae3:	13 01                	adc    (%ecx),%eax
 ae5:	13 00                	adc    (%eax),%eax
 ae7:	00 1c 21             	add    %bl,(%ecx,%eiz,1)
 aea:	00 49 13             	add    %cl,0x13(%ecx)
 aed:	2f                   	das    
 aee:	0b 00                	or     (%eax),%eax
 af0:	00 1d 2e 01 3f 19    	add    %bl,0x193f012e
 af6:	03 0e                	add    (%esi),%ecx
 af8:	3a 0b                	cmp    (%ebx),%cl
 afa:	3b 0b                	cmp    (%ebx),%ecx
 afc:	39 0b                	cmp    %ecx,(%ebx)
 afe:	11 01                	adc    %eax,(%ecx)
 b00:	12 06                	adc    (%esi),%al
 b02:	40                   	inc    %eax
 b03:	18 7c 19 01          	sbb    %bh,0x1(%ecx,%ebx,1)
 b07:	13 00                	adc    (%eax),%eax
 b09:	00 00                	add    %al,(%eax)
 b0b:	01 24 00             	add    %esp,(%eax,%eax,1)
 b0e:	0b 0b                	or     (%ebx),%ecx
 b10:	3e 0b 03             	or     %ds:(%ebx),%eax
 b13:	0e                   	push   %cs
 b14:	00 00                	add    %al,(%eax)
 b16:	02 16                	add    (%esi),%dl
 b18:	00 03                	add    %al,(%ebx)
 b1a:	0e                   	push   %cs
 b1b:	3a 0b                	cmp    (%ebx),%cl
 b1d:	3b 0b                	cmp    (%ebx),%ecx
 b1f:	39 0b                	cmp    %ecx,(%ebx)
 b21:	49                   	dec    %ecx
 b22:	13 00                	adc    (%eax),%eax
 b24:	00 03                	add    %al,(%ebx)
 b26:	34 00                	xor    $0x0,%al
 b28:	03 0e                	add    (%esi),%ecx
 b2a:	3a 21                	cmp    (%ecx),%ah
 b2c:	01 3b                	add    %edi,(%ebx)
 b2e:	0b 39                	or     (%ecx),%edi
 b30:	0b 49 13             	or     0x13(%ecx),%ecx
 b33:	3f                   	aas    
 b34:	19 02                	sbb    %eax,(%edx)
 b36:	18 00                	sbb    %al,(%eax)
 b38:	00 04 05 00 03 08 3a 	add    %al,0x3a080300(,%eax,1)
 b3f:	21 01                	and    %eax,(%ecx)
 b41:	3b 0b                	cmp    (%ebx),%ecx
 b43:	39 0b                	cmp    %ecx,(%ebx)
 b45:	49                   	dec    %ecx
 b46:	13 02                	adc    (%edx),%eax
 b48:	18 00                	sbb    %al,(%eax)
 b4a:	00 05 0f 00 0b 21    	add    %al,0x210b000f
 b50:	04 49                	add    $0x49,%al
 b52:	13 00                	adc    (%eax),%eax
 b54:	00 06                	add    %al,(%esi)
 b56:	05 00 49 13 00       	add    $0x134900,%eax
 b5b:	00 07                	add    %al,(%edi)
 b5d:	37                   	aaa    
 b5e:	00 49 13             	add    %cl,0x13(%ecx)
 b61:	00 00                	add    %al,(%eax)
 b63:	08 0b                	or     %cl,(%ebx)
 b65:	01 11                	add    %edx,(%ecx)
 b67:	01 12                	add    %edx,(%edx)
 b69:	06                   	push   %es
 b6a:	00 00                	add    %al,(%eax)
 b6c:	09 34 00             	or     %esi,(%eax,%eax,1)
 b6f:	03 08                	add    (%eax),%ecx
 b71:	3a 21                	cmp    (%ecx),%ah
 b73:	01 3b                	add    %edi,(%ebx)
 b75:	0b 39                	or     (%ecx),%edi
 b77:	0b 49 13             	or     0x13(%ecx),%ecx
 b7a:	02 18                	add    (%eax),%bl
 b7c:	00 00                	add    %al,(%eax)
 b7e:	0a 2e                	or     (%esi),%ch
 b80:	01 3f                	add    %edi,(%edi)
 b82:	19 03                	sbb    %eax,(%ebx)
 b84:	0e                   	push   %cs
 b85:	3a 21                	cmp    (%ecx),%ah
 b87:	01 3b                	add    %edi,(%ebx)
 b89:	0b 39                	or     (%ecx),%edi
 b8b:	21 01                	and    %eax,(%ecx)
 b8d:	27                   	daa    
 b8e:	19 11                	sbb    %edx,(%ecx)
 b90:	01 12                	add    %edx,(%edx)
 b92:	06                   	push   %es
 b93:	40                   	inc    %eax
 b94:	18 7c 19 01          	sbb    %bh,0x1(%ecx,%ebx,1)
 b98:	13 00                	adc    (%eax),%eax
 b9a:	00 0b                	add    %cl,(%ebx)
 b9c:	2e 01 3f             	add    %edi,%cs:(%edi)
 b9f:	19 03                	sbb    %eax,(%ebx)
 ba1:	0e                   	push   %cs
 ba2:	3a 21                	cmp    (%ecx),%ah
 ba4:	01 3b                	add    %edi,(%ebx)
 ba6:	0b 39                	or     (%ecx),%edi
 ba8:	0b 27                	or     (%edi),%esp
 baa:	19 11                	sbb    %edx,(%ecx)
 bac:	01 12                	add    %edx,(%edx)
 bae:	06                   	push   %es
 baf:	40                   	inc    %eax
 bb0:	18 7a 19             	sbb    %bh,0x19(%edx)
 bb3:	01 13                	add    %edx,(%ebx)
 bb5:	00 00                	add    %al,(%eax)
 bb7:	0c 05                	or     $0x5,%al
 bb9:	00 03                	add    %al,(%ebx)
 bbb:	0e                   	push   %cs
 bbc:	3a 21                	cmp    (%ecx),%ah
 bbe:	01 3b                	add    %edi,(%ebx)
 bc0:	0b 39                	or     (%ecx),%edi
 bc2:	0b 49 13             	or     0x13(%ecx),%ecx
 bc5:	02 18                	add    (%eax),%bl
 bc7:	00 00                	add    %al,(%eax)
 bc9:	0d 11 01 25 0e       	or     $0xe250111,%eax
 bce:	13 0b                	adc    (%ebx),%ecx
 bd0:	03 1f                	add    (%edi),%ebx
 bd2:	1b 1f                	sbb    (%edi),%ebx
 bd4:	11 01                	adc    %eax,(%ecx)
 bd6:	12 06                	adc    (%esi),%al
 bd8:	10 17                	adc    %dl,(%edi)
 bda:	00 00                	add    %al,(%eax)
 bdc:	0e                   	push   %cs
 bdd:	24 00                	and    $0x0,%al
 bdf:	0b 0b                	or     (%ebx),%ecx
 be1:	3e 0b 03             	or     %ds:(%ebx),%eax
 be4:	08 00                	or     %al,(%eax)
 be6:	00 0f                	add    %cl,(%edi)
 be8:	2e 01 3f             	add    %edi,%cs:(%edi)
 beb:	19 03                	sbb    %eax,(%ebx)
 bed:	0e                   	push   %cs
 bee:	3a 0b                	cmp    (%ebx),%cl
 bf0:	3b 0b                	cmp    (%ebx),%ecx
 bf2:	39 0b                	cmp    %ecx,(%ebx)
 bf4:	27                   	daa    
 bf5:	19 49 13             	sbb    %ecx,0x13(%ecx)
 bf8:	3c 19                	cmp    $0x19,%al
 bfa:	01 13                	add    %edx,(%ebx)
 bfc:	00 00                	add    %al,(%eax)
 bfe:	10 0f                	adc    %cl,(%edi)
 c00:	00 0b                	add    %cl,(%ebx)
 c02:	0b 00                	or     (%eax),%eax
 c04:	00 11                	add    %dl,(%ecx)
 c06:	26 00 00             	add    %al,%es:(%eax)
 c09:	00 12                	add    %dl,(%edx)
 c0b:	2e 01 3f             	add    %edi,%cs:(%edi)
 c0e:	19 03                	sbb    %eax,(%ebx)
 c10:	0e                   	push   %cs
 c11:	3a 0b                	cmp    (%ebx),%cl
 c13:	3b 0b                	cmp    (%ebx),%ecx
 c15:	39 0b                	cmp    %ecx,(%ebx)
 c17:	11 01                	adc    %eax,(%ecx)
 c19:	12 06                	adc    (%esi),%al
 c1b:	40                   	inc    %eax
 c1c:	18 7a 19             	sbb    %bh,0x19(%edx)
 c1f:	01 13                	add    %edx,(%ebx)
 c21:	00 00                	add    %al,(%eax)
 c23:	13 2e                	adc    (%esi),%ebp
 c25:	01 3f                	add    %edi,(%edi)
 c27:	19 03                	sbb    %eax,(%ebx)
 c29:	0e                   	push   %cs
 c2a:	3a 0b                	cmp    (%ebx),%cl
 c2c:	3b 0b                	cmp    (%ebx),%ecx
 c2e:	39 0b                	cmp    %ecx,(%ebx)
 c30:	11 01                	adc    %eax,(%ecx)
 c32:	12 06                	adc    (%esi),%al
 c34:	40                   	inc    %eax
 c35:	18 7c 19 01          	sbb    %bh,0x1(%ecx,%ebx,1)
 c39:	13 00                	adc    (%eax),%eax
 c3b:	00 14 34             	add    %dl,(%esp,%esi,1)
 c3e:	00 03                	add    %al,(%ebx)
 c40:	0e                   	push   %cs
 c41:	3a 0b                	cmp    (%ebx),%cl
 c43:	3b 0b                	cmp    (%ebx),%ecx
 c45:	39 0b                	cmp    %ecx,(%ebx)
 c47:	49                   	dec    %ecx
 c48:	13 02                	adc    (%edx),%eax
 c4a:	18 00                	sbb    %al,(%eax)
 c4c:	00 15 2e 01 3f 19    	add    %dl,0x193f012e
 c52:	03 0e                	add    (%esi),%ecx
 c54:	3a 0b                	cmp    (%ebx),%cl
 c56:	3b 0b                	cmp    (%ebx),%ecx
 c58:	39 0b                	cmp    %ecx,(%ebx)
 c5a:	27                   	daa    
 c5b:	19 11                	sbb    %edx,(%ecx)
 c5d:	01 12                	add    %edx,(%edx)
 c5f:	06                   	push   %es
 c60:	40                   	inc    %eax
 c61:	18 7c 19 00          	sbb    %bh,0x0(%ecx,%ebx,1)
 c65:	00 00                	add    %al,(%eax)
 c67:	01 24 00             	add    %esp,(%eax,%eax,1)
 c6a:	0b 0b                	or     (%ebx),%ecx
 c6c:	3e 0b 03             	or     %ds:(%ebx),%eax
 c6f:	0e                   	push   %cs
 c70:	00 00                	add    %al,(%eax)
 c72:	02 05 00 03 0e 3a    	add    0x3a0e0300,%al
 c78:	21 01                	and    %eax,(%ecx)
 c7a:	3b 21                	cmp    (%ecx),%esp
 c7c:	09 39                	or     %edi,(%ecx)
 c7e:	0b 49 13             	or     0x13(%ecx),%ecx
 c81:	02 18                	add    (%eax),%bl
 c83:	00 00                	add    %al,(%eax)
 c85:	03 16                	add    (%esi),%edx
 c87:	00 03                	add    %al,(%ebx)
 c89:	0e                   	push   %cs
 c8a:	3a 21                	cmp    (%ecx),%ah
 c8c:	02 3b                	add    (%ebx),%bh
 c8e:	0b 39                	or     (%ecx),%edi
 c90:	21 19                	and    %ebx,(%ecx)
 c92:	49                   	dec    %ecx
 c93:	13 00                	adc    (%eax),%eax
 c95:	00 04 34             	add    %al,(%esp,%esi,1)
 c98:	00 03                	add    %al,(%ebx)
 c9a:	0e                   	push   %cs
 c9b:	3a 21                	cmp    (%ecx),%ah
 c9d:	01 3b                	add    %edi,(%ebx)
 c9f:	0b 39                	or     (%ecx),%edi
 ca1:	21 0a                	and    %ecx,(%edx)
 ca3:	49                   	dec    %ecx
 ca4:	13 3f                	adc    (%edi),%edi
 ca6:	19 02                	sbb    %eax,(%edx)
 ca8:	18 00                	sbb    %al,(%eax)
 caa:	00 05 11 01 25 0e    	add    %al,0xe250111
 cb0:	13 0b                	adc    (%ebx),%ecx
 cb2:	03 1f                	add    (%edi),%ebx
 cb4:	1b 1f                	sbb    (%edi),%ebx
 cb6:	11 01                	adc    %eax,(%ecx)
 cb8:	12 06                	adc    (%esi),%al
 cba:	10 17                	adc    %dl,(%edi)
 cbc:	00 00                	add    %al,(%eax)
 cbe:	06                   	push   %es
 cbf:	24 00                	and    $0x0,%al
 cc1:	0b 0b                	or     (%ebx),%ecx
 cc3:	3e 0b 03             	or     %ds:(%ebx),%eax
 cc6:	08 00                	or     %al,(%eax)
 cc8:	00 07                	add    %al,(%edi)
 cca:	01 01                	add    %eax,(%ecx)
 ccc:	49                   	dec    %ecx
 ccd:	13 01                	adc    (%ecx),%eax
 ccf:	13 00                	adc    (%eax),%eax
 cd1:	00 08                	add    %cl,(%eax)
 cd3:	21 00                	and    %eax,(%eax)
 cd5:	49                   	dec    %ecx
 cd6:	13 2f                	adc    (%edi),%ebp
 cd8:	0b 00                	or     (%eax),%eax
 cda:	00 09                	add    %cl,(%ecx)
 cdc:	2e 00 3f             	add    %bh,%cs:(%edi)
 cdf:	19 03                	sbb    %eax,(%ebx)
 ce1:	0e                   	push   %cs
 ce2:	3a 0b                	cmp    (%ebx),%cl
 ce4:	3b 0b                	cmp    (%ebx),%ecx
 ce6:	39 0b                	cmp    %ecx,(%ebx)
 ce8:	11 01                	adc    %eax,(%ecx)
 cea:	12 06                	adc    (%esi),%al
 cec:	40                   	inc    %eax
 ced:	18 7c 19 00          	sbb    %bh,0x0(%ecx,%ebx,1)
 cf1:	00 0a                	add    %cl,(%edx)
 cf3:	2e 01 3f             	add    %edi,%cs:(%edi)
 cf6:	19 03                	sbb    %eax,(%ebx)
 cf8:	0e                   	push   %cs
 cf9:	3a 0b                	cmp    (%ebx),%cl
 cfb:	3b 0b                	cmp    (%ebx),%ecx
 cfd:	39 0b                	cmp    %ecx,(%ebx)
 cff:	27                   	daa    
 d00:	19 11                	sbb    %edx,(%ecx)
 d02:	01 12                	add    %edx,(%edx)
 d04:	06                   	push   %es
 d05:	40                   	inc    %eax
 d06:	18 7a 19             	sbb    %bh,0x19(%edx)
 d09:	00 00                	add    %al,(%eax)
 d0b:	00 01                	add    %al,(%ecx)
 d0d:	0d 00 03 0e 3a       	or     $0x3a0e0300,%eax
 d12:	21 02                	and    %eax,(%edx)
 d14:	3b 0b                	cmp    (%ebx),%ecx
 d16:	39 21                	cmp    %esp,(%ecx)
 d18:	12 49 13             	adc    0x13(%ecx),%cl
 d1b:	38 0b                	cmp    %cl,(%ebx)
 d1d:	00 00                	add    %al,(%eax)
 d1f:	02 24 00             	add    (%eax,%eax,1),%ah
 d22:	0b 0b                	or     (%ebx),%ecx
 d24:	3e 0b 03             	or     %ds:(%ebx),%eax
 d27:	0e                   	push   %cs
 d28:	00 00                	add    %al,(%eax)
 d2a:	03 0d 00 03 08 3a    	add    0x3a080300,%ecx
 d30:	21 02                	and    %eax,(%edx)
 d32:	3b 0b                	cmp    (%ebx),%ecx
 d34:	39 0b                	cmp    %ecx,(%ebx)
 d36:	49                   	dec    %ecx
 d37:	13 38                	adc    (%eax),%edi
 d39:	0b 00                	or     (%eax),%eax
 d3b:	00 04 0f             	add    %al,(%edi,%ecx,1)
 d3e:	00 0b                	add    %cl,(%ebx)
 d40:	21 04 49             	and    %eax,(%ecx,%ecx,2)
 d43:	13 00                	adc    (%eax),%eax
 d45:	00 05 05 00 03 0e    	add    %al,0xe030005
 d4b:	3a 21                	cmp    (%ecx),%ah
 d4d:	01 3b                	add    %edi,(%ebx)
 d4f:	0b 39                	or     (%ecx),%edi
 d51:	0b 49 13             	or     0x13(%ecx),%ecx
 d54:	02 18                	add    (%eax),%bl
 d56:	00 00                	add    %al,(%eax)
 d58:	06                   	push   %es
 d59:	11 01                	adc    %eax,(%ecx)
 d5b:	25 0e 13 0b 03       	and    $0x30b130e,%eax
 d60:	1f                   	pop    %ds
 d61:	1b 1f                	sbb    (%edi),%ebx
 d63:	11 01                	adc    %eax,(%ecx)
 d65:	12 06                	adc    (%esi),%al
 d67:	10 17                	adc    %dl,(%edi)
 d69:	00 00                	add    %al,(%eax)
 d6b:	07                   	pop    %es
 d6c:	13 01                	adc    (%ecx),%eax
 d6e:	0b 0b                	or     (%ebx),%ecx
 d70:	3a 0b                	cmp    (%ebx),%cl
 d72:	3b 0b                	cmp    (%ebx),%ecx
 d74:	39 0b                	cmp    %ecx,(%ebx)
 d76:	01 13                	add    %edx,(%ebx)
 d78:	00 00                	add    %al,(%eax)
 d7a:	08 16                	or     %dl,(%esi)
 d7c:	00 03                	add    %al,(%ebx)
 d7e:	0e                   	push   %cs
 d7f:	3a 0b                	cmp    (%ebx),%cl
 d81:	3b 0b                	cmp    (%ebx),%ecx
 d83:	39 0b                	cmp    %ecx,(%ebx)
 d85:	49                   	dec    %ecx
 d86:	13 00                	adc    (%eax),%eax
 d88:	00 09                	add    %cl,(%ecx)
 d8a:	2e 01 3f             	add    %edi,%cs:(%edi)
 d8d:	19 03                	sbb    %eax,(%ebx)
 d8f:	0e                   	push   %cs
 d90:	3a 0b                	cmp    (%ebx),%cl
 d92:	3b 0b                	cmp    (%ebx),%ecx
 d94:	39 0b                	cmp    %ecx,(%ebx)
 d96:	27                   	daa    
 d97:	19 3c 19             	sbb    %edi,(%ecx,%ebx,1)
 d9a:	01 13                	add    %edx,(%ebx)
 d9c:	00 00                	add    %al,(%eax)
 d9e:	0a 05 00 49 13 00    	or     0x134900,%al
 da4:	00 0b                	add    %cl,(%ebx)
 da6:	2e 01 3f             	add    %edi,%cs:(%edi)
 da9:	19 03                	sbb    %eax,(%ebx)
 dab:	0e                   	push   %cs
 dac:	3a 0b                	cmp    (%ebx),%cl
 dae:	3b 0b                	cmp    (%ebx),%ecx
 db0:	39 0b                	cmp    %ecx,(%ebx)
 db2:	3c 19                	cmp    $0x19,%al
 db4:	01 13                	add    %edx,(%ebx)
 db6:	00 00                	add    %al,(%eax)
 db8:	0c 18                	or     $0x18,%al
 dba:	00 00                	add    %al,(%eax)
 dbc:	00 0d 2e 01 3f 19    	add    %cl,0x193f012e
 dc2:	03 0e                	add    (%esi),%ecx
 dc4:	3a 0b                	cmp    (%ebx),%cl
 dc6:	3b 0b                	cmp    (%ebx),%ecx
 dc8:	39 0b                	cmp    %ecx,(%ebx)
 dca:	27                   	daa    
 dcb:	19 11                	sbb    %edx,(%ecx)
 dcd:	01 12                	add    %edx,(%edx)
 dcf:	06                   	push   %es
 dd0:	40                   	inc    %eax
 dd1:	18 7c 19 01          	sbb    %bh,0x1(%ecx,%ebx,1)
 dd5:	13 00                	adc    (%eax),%eax
 dd7:	00 0e                	add    %cl,(%esi)
 dd9:	2e 01 3f             	add    %edi,%cs:(%edi)
 ddc:	19 03                	sbb    %eax,(%ebx)
 dde:	0e                   	push   %cs
 ddf:	3a 0b                	cmp    (%ebx),%cl
 de1:	3b 0b                	cmp    (%ebx),%ecx
 de3:	39 0b                	cmp    %ecx,(%ebx)
 de5:	27                   	daa    
 de6:	19 11                	sbb    %edx,(%ecx)
 de8:	01 12                	add    %edx,(%edx)
 dea:	06                   	push   %es
 deb:	40                   	inc    %eax
 dec:	18 7c 19 00          	sbb    %bh,0x0(%ecx,%ebx,1)
 df0:	00 00                	add    %al,(%eax)
 df2:	01 24 00             	add    %esp,(%eax,%eax,1)
 df5:	0b 0b                	or     (%ebx),%ecx
 df7:	3e 0b 03             	or     %ds:(%ebx),%eax
 dfa:	0e                   	push   %cs
 dfb:	00 00                	add    %al,(%eax)
 dfd:	02 16                	add    (%esi),%dl
 dff:	00 03                	add    %al,(%ebx)
 e01:	0e                   	push   %cs
 e02:	3a 21                	cmp    (%ecx),%ah
 e04:	02 3b                	add    (%ebx),%bh
 e06:	0b 39                	or     (%ecx),%edi
 e08:	0b 49 13             	or     0x13(%ecx),%ecx
 e0b:	00 00                	add    %al,(%eax)
 e0d:	03 34 00             	add    (%eax,%eax,1),%esi
 e10:	03 0e                	add    (%esi),%ecx
 e12:	3a 21                	cmp    (%ecx),%ah
 e14:	01 3b                	add    %edi,(%ebx)
 e16:	0b 39                	or     (%ecx),%edi
 e18:	21 0a                	and    %ecx,(%edx)
 e1a:	49                   	dec    %ecx
 e1b:	13 3f                	adc    (%edi),%edi
 e1d:	19 02                	sbb    %eax,(%edx)
 e1f:	18 00                	sbb    %al,(%eax)
 e21:	00 04 18             	add    %al,(%eax,%ebx,1)
 e24:	00 00                	add    %al,(%eax)
 e26:	00 05 05 00 03 0e    	add    %al,0xe030005
 e2c:	3a 21                	cmp    (%ecx),%ah
 e2e:	01 3b                	add    %edi,(%ebx)
 e30:	21 0b                	and    %ecx,(%ebx)
 e32:	39 0b                	cmp    %ecx,(%ebx)
 e34:	49                   	dec    %ecx
 e35:	13 02                	adc    (%edx),%eax
 e37:	18 00                	sbb    %al,(%eax)
 e39:	00 06                	add    %al,(%esi)
 e3b:	05 00 03 08 3a       	add    $0x3a080300,%eax
 e40:	21 01                	and    %eax,(%ecx)
 e42:	3b 21                	cmp    (%ecx),%esp
 e44:	0b 39                	or     (%ecx),%edi
 e46:	0b 49 13             	or     0x13(%ecx),%ecx
 e49:	02 18                	add    (%eax),%bl
 e4b:	00 00                	add    %al,(%eax)
 e4d:	07                   	pop    %es
 e4e:	11 01                	adc    %eax,(%ecx)
 e50:	25 0e 13 0b 03       	and    $0x30b130e,%eax
 e55:	1f                   	pop    %ds
 e56:	1b 1f                	sbb    (%edi),%ebx
 e58:	11 01                	adc    %eax,(%ecx)
 e5a:	12 06                	adc    (%esi),%al
 e5c:	10 17                	adc    %dl,(%edi)
 e5e:	00 00                	add    %al,(%eax)
 e60:	08 24 00             	or     %ah,(%eax,%eax,1)
 e63:	0b 0b                	or     (%ebx),%ecx
 e65:	3e 0b 03             	or     %ds:(%ebx),%eax
 e68:	08 00                	or     %al,(%eax)
 e6a:	00 09                	add    %cl,(%ecx)
 e6c:	01 01                	add    %eax,(%ecx)
 e6e:	49                   	dec    %ecx
 e6f:	13 01                	adc    (%ecx),%eax
 e71:	13 00                	adc    (%eax),%eax
 e73:	00 0a                	add    %cl,(%edx)
 e75:	21 00                	and    %eax,(%eax)
 e77:	49                   	dec    %ecx
 e78:	13 2f                	adc    (%edi),%ebp
 e7a:	0b 00                	or     (%eax),%eax
 e7c:	00 0b                	add    %cl,(%ebx)
 e7e:	2e 01 3f             	add    %edi,%cs:(%edi)
 e81:	19 03                	sbb    %eax,(%ebx)
 e83:	0e                   	push   %cs
 e84:	3a 0b                	cmp    (%ebx),%cl
 e86:	3b 0b                	cmp    (%ebx),%ecx
 e88:	39 0b                	cmp    %ecx,(%ebx)
 e8a:	3c 19                	cmp    $0x19,%al
 e8c:	01 13                	add    %edx,(%ebx)
 e8e:	00 00                	add    %al,(%eax)
 e90:	0c 2e                	or     $0x2e,%al
 e92:	00 3f                	add    %bh,(%edi)
 e94:	19 03                	sbb    %eax,(%ebx)
 e96:	0e                   	push   %cs
 e97:	3a 0b                	cmp    (%ebx),%cl
 e99:	3b 0b                	cmp    (%ebx),%ecx
 e9b:	39 0b                	cmp    %ecx,(%ebx)
 e9d:	11 01                	adc    %eax,(%ecx)
 e9f:	12 06                	adc    (%esi),%al
 ea1:	40                   	inc    %eax
 ea2:	18 7c 19 00          	sbb    %bh,0x0(%ecx,%ebx,1)
 ea6:	00 0d 2e 01 3f 19    	add    %cl,0x193f012e
 eac:	03 0e                	add    (%esi),%ecx
 eae:	3a 0b                	cmp    (%ebx),%cl
 eb0:	3b 0b                	cmp    (%ebx),%ecx
 eb2:	39 0b                	cmp    %ecx,(%ebx)
 eb4:	27                   	daa    
 eb5:	19 11                	sbb    %edx,(%ecx)
 eb7:	01 12                	add    %edx,(%edx)
 eb9:	06                   	push   %es
 eba:	40                   	inc    %eax
 ebb:	18 7a 19             	sbb    %bh,0x19(%edx)
 ebe:	01 13                	add    %edx,(%ebx)
 ec0:	00 00                	add    %al,(%eax)
 ec2:	0e                   	push   %cs
 ec3:	34 00                	xor    $0x0,%al
 ec5:	03 0e                	add    (%esi),%ecx
 ec7:	3a 0b                	cmp    (%ebx),%cl
 ec9:	3b 0b                	cmp    (%ebx),%ecx
 ecb:	39 0b                	cmp    %ecx,(%ebx)
 ecd:	49                   	dec    %ecx
 ece:	13 02                	adc    (%edx),%eax
 ed0:	18 00                	sbb    %al,(%eax)
 ed2:	00 0f                	add    %cl,(%edi)
 ed4:	15 01 01 13 00       	adc    $0x130101,%eax
 ed9:	00 10                	add    %dl,(%eax)
 edb:	0f 00 0b             	str    (%ebx)
 ede:	0b 49 13             	or     0x13(%ecx),%ecx
 ee1:	00 00                	add    %al,(%eax)
	...

Disassembly of section .debug_aranges:

00000000 <.debug_aranges>:
   0:	1c 00                	sbb    $0x0,%al
   2:	00 00                	add    %al,(%eax)
   4:	02 00                	add    (%eax),%al
   6:	00 00                	add    %al,(%eax)
   8:	00 00                	add    %al,(%eax)
   a:	04 00                	add    $0x0,%al
   c:	00 00                	add    %al,(%eax)
   e:	00 00                	add    %al,(%eax)
  10:	2e 71 10             	jno,pn 23 <start_-0xfffe9>
  13:	c0 10 00             	rclb   $0x0,(%eax)
	...
  1e:	00 00                	add    %al,(%eax)
  20:	1c 00                	sbb    $0x0,%al
  22:	00 00                	add    %al,(%eax)
  24:	02 00                	add    (%eax),%al
  26:	f3 00 00             	repz add %al,(%eax)
  29:	00 04 00             	add    %al,(%eax,%eax,1)
  2c:	00 00                	add    %al,(%eax)
  2e:	00 00                	add    %al,(%eax)
  30:	57                   	push   %edi
  31:	00 10                	add    %dl,(%eax)
  33:	00 f1                	add    %dh,%cl
  35:	02 00                	add    (%eax),%al
	...
  3f:	00 1c 00             	add    %bl,(%eax,%eax,1)
  42:	00 00                	add    %al,(%eax)
  44:	02 00                	add    (%eax),%al
  46:	2d 06 00 00 04       	sub    $0x4000006,%eax
  4b:	00 00                	add    %al,(%eax)
  4d:	00 00                	add    %al,(%eax)
  4f:	00 3e                	add    %bh,(%esi)
  51:	71 10                	jno    63 <start_-0xfffa9>
  53:	c0 68 01 00          	shrb   $0x0,0x1(%eax)
	...
  5f:	00 1c 00             	add    %bl,(%eax,%eax,1)
  62:	00 00                	add    %al,(%eax)
  64:	02 00                	add    (%eax),%al
  66:	d7                   	xlat   %ds:(%ebx)
  67:	07                   	pop    %es
  68:	00 00                	add    %al,(%eax)
  6a:	04 00                	add    $0x0,%al
  6c:	00 00                	add    %al,(%eax)
  6e:	00 00                	add    %al,(%eax)
  70:	a6                   	cmpsb  %es:(%edi),%ds:(%esi)
  71:	72 10                	jb     83 <start_-0xfff89>
  73:	c0 50 00 00          	rclb   $0x0,0x0(%eax)
	...
  7f:	00 1c 00             	add    %bl,(%eax,%eax,1)
  82:	00 00                	add    %al,(%eax)
  84:	02 00                	add    (%eax),%al
  86:	81 08 00 00 04 00    	orl    $0x40000,(%eax)
  8c:	00 00                	add    %al,(%eax)
  8e:	00 00                	add    %al,(%eax)
  90:	f6 72 10             	divb   0x10(%edx)
  93:	c0 2b 00             	shrb   $0x0,(%ebx)
	...
  9e:	00 00                	add    %al,(%eax)
  a0:	1c 00                	sbb    $0x0,%al
  a2:	00 00                	add    %al,(%eax)
  a4:	02 00                	add    (%eax),%al
  a6:	14 09                	adc    $0x9,%al
  a8:	00 00                	add    %al,(%eax)
  aa:	04 00                	add    $0x0,%al
  ac:	00 00                	add    %al,(%eax)
  ae:	00 00                	add    %al,(%eax)
  b0:	21 73 10             	and    %esi,0x10(%ebx)
  b3:	c0 78 01 00          	sarb   $0x0,0x1(%eax)
	...
  bf:	00 1c 00             	add    %bl,(%eax,%eax,1)
  c2:	00 00                	add    %al,(%eax)
  c4:	02 00                	add    (%eax),%al
  c6:	a4                   	movsb  %ds:(%esi),%es:(%edi)
  c7:	0b 00                	or     (%eax),%eax
  c9:	00 04 00             	add    %al,(%eax,%eax,1)
  cc:	00 00                	add    %al,(%eax)
  ce:	00 00                	add    %al,(%eax)
  d0:	99                   	cltd   
  d1:	74 10                	je     e3 <start_-0xfff29>
  d3:	c0 f1 02             	shl    $0x2,%cl
	...
  de:	00 00                	add    %al,(%eax)
  e0:	1c 00                	sbb    $0x0,%al
  e2:	00 00                	add    %al,(%eax)
  e4:	02 00                	add    (%eax),%al
  e6:	0d 0e 00 00 04       	or     $0x400000e,%eax
  eb:	00 00                	add    %al,(%eax)
  ed:	00 00                	add    %al,(%eax)
  ef:	00 8a 77 10 c0 45    	add    %cl,0x45c01077(%edx)
	...
  fd:	00 00                	add    %al,(%eax)
  ff:	00 1c 00             	add    %bl,(%eax,%eax,1)
 102:	00 00                	add    %al,(%eax)
 104:	02 00                	add    (%eax),%al
 106:	f1                   	icebp  
 107:	0e                   	push   %cs
 108:	00 00                	add    %al,(%eax)
 10a:	04 00                	add    $0x0,%al
 10c:	00 00                	add    %al,(%eax)
 10e:	00 00                	add    %al,(%eax)
 110:	00 60 10             	add    %ah,0x10(%eax)
 113:	c0 e4 03             	shl    $0x3,%ah
	...
 11e:	00 00                	add    %al,(%eax)
 120:	1c 00                	sbb    $0x0,%al
 122:	00 00                	add    %al,(%eax)
 124:	02 00                	add    (%eax),%al
 126:	c3                   	ret    
 127:	12 00                	adc    (%eax),%al
 129:	00 04 00             	add    %al,(%eax,%eax,1)
 12c:	00 00                	add    %al,(%eax)
 12e:	00 00                	add    %al,(%eax)
 130:	e4 63                	in     $0x63,%al
 132:	10 c0                	adc    %al,%al
 134:	61                   	popa   
 135:	04 00                	add    $0x0,%al
	...
 13f:	00 1c 00             	add    %bl,(%eax,%eax,1)
 142:	00 00                	add    %al,(%eax)
 144:	02 00                	add    (%eax),%al
 146:	16                   	push   %ss
 147:	16                   	push   %ss
 148:	00 00                	add    %al,(%eax)
 14a:	04 00                	add    $0x0,%al
 14c:	00 00                	add    %al,(%eax)
 14e:	00 00                	add    %al,(%eax)
 150:	45                   	inc    %ebp
 151:	68 10 c0 da 03       	push   $0x3dac010
	...
 15e:	00 00                	add    %al,(%eax)
 160:	1c 00                	sbb    $0x0,%al
 162:	00 00                	add    %al,(%eax)
 164:	02 00                	add    (%eax),%al
 166:	66 1c 00             	data16 sbb $0x0,%al
 169:	00 04 00             	add    %al,(%eax,%eax,1)
 16c:	00 00                	add    %al,(%eax)
 16e:	00 00                	add    %al,(%eax)
 170:	1f                   	pop    %ds
 171:	6c                   	insb   (%dx),%es:(%edi)
 172:	10 c0                	adc    %al,%al
 174:	30 02                	xor    %al,(%edx)
	...
 17e:	00 00                	add    %al,(%eax)
 180:	1c 00                	sbb    $0x0,%al
 182:	00 00                	add    %al,(%eax)
 184:	02 00                	add    (%eax),%al
 186:	ae                   	scas   %es:(%edi),%al
 187:	1e                   	push   %ds
 188:	00 00                	add    %al,(%eax)
 18a:	04 00                	add    $0x0,%al
 18c:	00 00                	add    %al,(%eax)
 18e:	00 00                	add    %al,(%eax)
 190:	dc 6e 10             	fsubrl 0x10(%esi)
 193:	c0 29 01             	shrb   $0x1,(%ecx)
	...
 19e:	00 00                	add    %al,(%eax)
 1a0:	1c 00                	sbb    $0x0,%al
 1a2:	00 00                	add    %al,(%eax)
 1a4:	02 00                	add    (%eax),%al
 1a6:	c2 1f 00             	ret    $0x1f
 1a9:	00 04 00             	add    %al,(%eax,%eax,1)
 1ac:	00 00                	add    %al,(%eax)
 1ae:	00 00                	add    %al,(%eax)
 1b0:	05 70 10 c0 3f       	add    $0x3fc01070,%eax
	...
 1bd:	00 00                	add    %al,(%eax)
 1bf:	00 1c 00             	add    %bl,(%eax,%eax,1)
 1c2:	00 00                	add    %al,(%eax)
 1c4:	02 00                	add    (%eax),%al
 1c6:	bc 20 00 00 04       	mov    $0x4000020,%esp
 1cb:	00 00                	add    %al,(%eax)
 1cd:	00 00                	add    %al,(%eax)
 1cf:	00 44 70 10          	add    %al,0x10(%eax,%esi,2)
 1d3:	c0 ea 00             	shr    $0x0,%dl
	...

Disassembly of section .debug_line:

00000000 <.debug_line>:
       0:	5d                   	pop    %ebp
       1:	00 00                	add    %al,(%eax)
       3:	00 05 00 04 00 40    	add    %al,0x40000400
       9:	00 00                	add    %al,(%eax)
       b:	00 01                	add    %al,(%ecx)
       d:	01 01                	add    %eax,(%ecx)
       f:	fb                   	sti    
      10:	0e                   	push   %cs
      11:	0d 00 01 01 01       	or     $0x1010100,%eax
      16:	01 00                	add    %eax,(%eax)
      18:	00 00                	add    %al,(%eax)
      1a:	01 00                	add    %eax,(%eax)
      1c:	00 01                	add    %al,(%ecx)
      1e:	01 01                	add    %eax,(%ecx)
      20:	1f                   	pop    %ds
      21:	04 0a                	add    $0xa,%al
      23:	00 00                	add    %al,(%eax)
      25:	00 79 00             	add    %bh,0x0(%ecx)
      28:	00 00                	add    %al,(%eax)
      2a:	34 00                	xor    $0x0,%al
      2c:	00 00                	add    %al,(%eax)
      2e:	70 00                	jo     30 <start_-0xfffdc>
      30:	00 00                	add    %al,(%eax)
      32:	02 01                	add    (%ecx),%al
      34:	1f                   	pop    %ds
      35:	02 0f                	add    (%edi),%cl
      37:	04 00                	add    $0x0,%al
      39:	00 00                	add    %al,(%eax)
      3b:	00 00                	add    %al,(%eax)
      3d:	04 00                	add    $0x0,%al
      3f:	00 00                	add    %al,(%eax)
      41:	01 7d 00             	add    %edi,0x0(%ebp)
      44:	00 00                	add    %al,(%eax)
      46:	02 8a 00 00 00 03    	add    0x3000000(%edx),%cl
      4c:	05 25 00 05 02       	add    $0x2050025,%eax
      51:	2e 71 10             	jno,pn 64 <start_-0xfffa8>
      54:	c0 15 05 0f 3d 05 01 	rclb   $0x1,0x53d0f05
      5b:	84 02                	test   %al,(%edx)
      5d:	05 00 01 01 e6       	add    $0xe6010100,%eax
      62:	01 00                	add    %eax,(%eax)
      64:	00 05 00 04 00 49    	add    %al,0x49000400
      6a:	00 00                	add    %al,(%eax)
      6c:	00 01                	add    %al,(%ecx)
      6e:	01 01                	add    %eax,(%ecx)
      70:	fb                   	sti    
      71:	0e                   	push   %cs
      72:	0d 00 01 01 01       	or     $0x1010100,%eax
      77:	01 00                	add    %eax,(%eax)
      79:	00 00                	add    %al,(%eax)
      7b:	01 00                	add    %eax,(%eax)
      7d:	00 01                	add    %al,(%ecx)
      7f:	01 01                	add    %eax,(%ecx)
      81:	1f                   	pop    %ds
      82:	05 0a 00 00 00       	add    $0xa,%eax
      87:	48                   	dec    %eax
      88:	02 00                	add    (%eax),%al
      8a:	00 9f 00 00 00 34    	add    %bl,0x34000000(%edi)
      90:	00 00                	add    %al,(%eax)
      92:	00 b6 00 00 00 02    	add    %dh,0x2000000(%esi)
      98:	01 1f                	add    %ebx,(%edi)
      9a:	02 0f                	add    (%edi),%cl
      9c:	05 90 00 00 00       	add    $0x90,%eax
      a1:	00 99 00 00 00 01    	add    %bl,0x1000000(%ecx)
      a7:	c9                   	leave  
      a8:	00 00                	add    %al,(%eax)
      aa:	00 02                	add    %al,(%edx)
      ac:	7d 00                	jge    ae <start_-0xfff5e>
      ae:	00 00                	add    %al,(%eax)
      b0:	03 d5                	add    %ebp,%edx
      b2:	00 00                	add    %al,(%eax)
      b4:	00 04 05 1d 00 05 02 	add    %al,0x205001d(,%eax,1)
      bb:	57                   	push   %edi
      bc:	00 10                	add    %dl,(%eax)
      be:	00 03                	add    %al,(%ebx)
      c0:	1b 01                	sbb    (%ecx),%eax
      c2:	05 05 3d 05 13       	add    $0x13053d05,%eax
      c7:	08 85 05 05 82 05    	or     %al,0x5820505(%ebp)
      cd:	09 00                	or     %eax,(%eax)
      cf:	02 04 03             	add    (%ebx,%eax,1),%al
      d2:	2f                   	das    
      d3:	05 24 00 02 04       	add    $0x4020024,%eax
      d8:	03 02                	add    (%edx),%eax
      da:	24 11                	and    $0x11,%al
      dc:	05 1c 00 02 04       	add    $0x402001c,%eax
      e1:	01 58 05             	add    %ebx,0x5(%eax)
      e4:	13 a3 05 05 82 05    	adc    0x5820505(%ebx),%esp
      ea:	09 00                	or     %eax,(%eax)
      ec:	02 04 03             	add    (%ebx,%eax,1),%al
      ef:	2f                   	das    
      f0:	05 2f 00 02 04       	add    $0x402002f,%eax
      f5:	03 02                	add    (%edx),%eax
      f7:	28 11                	sub    %dl,(%ecx)
      f9:	05 1e 00 02 04       	add    $0x402001e,%eax
      fe:	01 58 05             	add    %ebx,0x5(%eax)
     101:	1c 00                	sbb    $0x0,%al
     103:	02 04 01             	add    (%ecx,%eax,1),%al
     106:	c8 05 21 6d          	enter  $0x2105,$0x6d
     10a:	05 0e 58 05 21       	add    $0x2105580e,%eax
     10f:	75 05                	jne    116 <start_-0xffef6>
     111:	0e                   	push   %cs
     112:	82 05 21 91 05 0e 08 	addb   $0x8,0xe059121
     119:	3c 05                	cmp    $0x5,%al
     11b:	13 77 05             	adc    0x5(%edi),%esi
     11e:	05 82 05 09 00       	add    $0x90582,%eax
     123:	02 04 03             	add    (%ebx,%eax,1),%al
     126:	2f                   	das    
     127:	05 41 00 02 04       	add    $0x4020041,%eax
     12c:	03 02                	add    (%edx),%eax
     12e:	35 11 05 1c 00       	xor    $0x1c0511,%eax
     133:	02 04 01             	add    (%ecx,%eax,1),%al
     136:	58                   	pop    %eax
     137:	05 08 03 09 74       	add    $0x74090308,%eax
     13c:	05 0f 00 02 04       	add    $0x402000f,%eax
     141:	01 a1 05 1b 32 05    	add    %esp,0x5321b05(%ecx)
     147:	0f 58 05 13 85 05 05 	addps  0x5058513,%xmm0
     14e:	82 05 09 00 02 04 03 	addb   $0x3,0x4020009
     155:	2f                   	das    
     156:	05 31 00 02 04       	add    $0x4020031,%eax
     15b:	03 02                	add    (%edx),%eax
     15d:	36 11 05 1c 00 02 04 	adc    %eax,%ss:0x402001c
     164:	01 58 05             	add    %ebx,0x5(%eax)
     167:	05 03 0a 9e 05       	add    $0x59e0a03,%eax
     16c:	01 08                	add    %ecx,(%eax)
     16e:	87 05 50 5a 05 12    	xchg   %eax,0x12055a50
     174:	3d 05 05 83 05       	cmp    $0x5830505,%eax
     179:	25 00 02 04 02       	and    $0x2040200,%eax
     17e:	2f                   	das    
     17f:	05 17 00 02 04       	add    $0x4020017,%eax
     184:	02 9e 05 1e 00 02    	add    0x2001e05(%esi),%bl
     18a:	04 02                	add    $0x2,%al
     18c:	9e                   	sahf   
     18d:	05 1c 00 02 04       	add    $0x402001c,%eax
     192:	02 3c 05 17 00 02 04 	add    0x4020017(,%eax,1),%bh
     199:	02 2d 05 0e 00 02    	add    0x2000e05,%ch
     19f:	04 01                	add    $0x1,%al
     1a1:	58                   	pop    %eax
     1a2:	05 0c a1 05 01       	add    $0x105a10c,%eax
     1a7:	4b                   	dec    %ebx
     1a8:	05 4a 4c 05 0e       	add    $0xe054c4a,%eax
     1ad:	4b                   	dec    %ebx
     1ae:	83 05 05 83 05 24 00 	addl   $0x0,0x24058305
     1b5:	02 04 02             	add    (%edx,%eax,1),%al
     1b8:	2f                   	das    
     1b9:	05 2e 00 02 04       	add    $0x402002e,%eax
     1be:	02 74 05 17          	add    0x17(%ebp,%eax,1),%dh
     1c2:	00 02                	add    %al,(%edx)
     1c4:	04 02                	add    $0x2,%al
     1c6:	66 05 2e 00          	add    $0x2e,%ax
     1ca:	02 04 02             	add    (%edx,%eax,1),%al
     1cd:	9e                   	sahf   
     1ce:	05 22 00 02 04       	add    $0x4020022,%eax
     1d3:	02 2e                	add    (%esi),%ch
     1d5:	05 37 00 02 04       	add    $0x4020037,%eax
     1da:	02 2d 05 14 00 02    	add    0x2001405,%ch
     1e0:	04 01                	add    $0x1,%al
     1e2:	58                   	pop    %eax
     1e3:	05 34 78 05 4b       	add    $0x4b057834,%eax
     1e8:	4a                   	dec    %edx
     1e9:	05 32 66 05 10       	add    $0x10056632,%eax
     1ee:	75 05                	jne    1f5 <start_-0xffe17>
     1f0:	43                   	inc    %ebx
     1f1:	74 05                	je     1f8 <start_-0xffe14>
     1f3:	10 74 05 0d          	adc    %dh,0xd(%ebp,%eax,1)
     1f7:	08 66 05             	or     %ah,0x5(%esi)
     1fa:	09 4c 05 08          	or     %ecx,0x8(%ebp,%eax,1)
     1fe:	ac                   	lods   %ds:(%esi),%al
     1ff:	05 3a 4b 05 51       	add    $0x51054b3a,%eax
     204:	4a                   	dec    %edx
     205:	05 38 66 05 14       	add    $0x14056638,%eax
     20a:	75 05                	jne    211 <start_-0xffdfb>
     20c:	47                   	inc    %edi
     20d:	74 05                	je     214 <start_-0xffdf8>
     20f:	14 74                	adc    $0x74,%al
     211:	05 11 08 66 05       	add    $0x5660811,%eax
     216:	01 4c 05 31          	add    %ecx,0x31(%ebp,%eax,1)
     21a:	68 05 0e 3e 05       	push   $0x53e0e05
     21f:	13 83 05 05 82 05    	adc    0x5820505(%ebx),%eax
     225:	0f 00 02             	sldt   (%edx)
     228:	04 03                	add    $0x3,%al
     22a:	2f                   	das    
     22b:	05 14 00 02 04       	add    $0x4020014,%eax
     230:	03 9e 05 29 00 02    	add    0x2002905(%esi),%ebx
     236:	04 03                	add    $0x3,%al
     238:	3b 05 1c 00 02 04    	cmp    0x402001c,%eax
     23e:	01 58 05             	add    %ebx,0x5(%eax)
     241:	05 a2 05 01 bb       	add    $0xbb0105a2,%eax
     246:	02 05 00 01 01 08    	add    0x8010100,%al
     24c:	01 00                	add    %eax,(%eax)
     24e:	00 05 00 04 00 2e    	add    %al,0x2e000400
     254:	00 00                	add    %al,(%eax)
     256:	00 01                	add    %al,(%ecx)
     258:	01 01                	add    %eax,(%ecx)
     25a:	fb                   	sti    
     25b:	0e                   	push   %cs
     25c:	0d 00 01 01 01       	or     $0x1010100,%eax
     261:	01 00                	add    %eax,(%eax)
     263:	00 00                	add    %al,(%eax)
     265:	01 00                	add    %eax,(%eax)
     267:	00 01                	add    %al,(%ecx)
     269:	01 01                	add    %eax,(%ecx)
     26b:	1f                   	pop    %ds
     26c:	02 0a                	add    (%edx),%cl
     26e:	00 00                	add    %al,(%eax)
     270:	00 f4                	add    %dh,%ah
     272:	00 00                	add    %al,(%eax)
     274:	00 02                	add    %al,(%edx)
     276:	01 1f                	add    %ebx,(%edi)
     278:	02 0f                	add    (%edi),%cl
     27a:	02 dc                	add    %ah,%bl
     27c:	00 00                	add    %al,(%eax)
     27e:	00 00                	add    %al,(%eax)
     280:	ed                   	in     (%dx),%eax
     281:	00 00                	add    %al,(%eax)
     283:	00 01                	add    %al,(%ecx)
     285:	05 01 00 05 02       	add    $0x2050001,%eax
     28a:	3e 71 10             	jno,pt 29d <start_-0xffd6f>
     28d:	c0 1a 05             	rcrb   $0x5,(%edx)
     290:	12 3d 05 08 83 05    	adc    0x5830805,%bh
     296:	10 75 05             	adc    %dh,0x5(%ebp)
     299:	0c 75                	or     $0x75,%al
     29b:	05 28 a1 05 10       	add    $0x1005a128,%eax
     2a0:	08 12                	or     %dl,(%edx)
     2a2:	05 21 9e 05 16       	add    $0x16059e21,%eax
     2a7:	74 05                	je     2ae <start_-0xffd5e>
     2a9:	1b 2f                	sbb    (%edi),%ebp
     2ab:	05 13 4a 05 10       	add    $0x10054a13,%eax
     2b0:	e5 55                	in     $0x55,%eax
     2b2:	05 1b 7a 05 09       	add    $0x9057a1b,%eax
     2b7:	82 05 19 00 02 04 03 	addb   $0x3,0x4020019
     2be:	2f                   	das    
     2bf:	05 12 00 02 04       	add    $0x4020012,%eax
     2c4:	03 9e 05 1e 00 02    	add    0x2001e05(%esi),%ebx
     2ca:	04 03                	add    $0x3,%al
     2cc:	75 05                	jne    2d3 <start_-0xffd39>
     2ce:	19 00                	sbb    %eax,(%eax)
     2d0:	02 04 03             	add    (%ebx,%eax,1),%al
     2d3:	82 05 10 00 02 04 03 	addb   $0x3,0x4020010
     2da:	90                   	nop
     2db:	05 19 00 02 04       	add    $0x4020019,%eax
     2e0:	03 9e 05 14 00 02    	add    0x2001405(%esi),%ebx
     2e6:	04 03                	add    $0x3,%al
     2e8:	3c 05                	cmp    $0x5,%al
     2ea:	15 00 02 04 03       	adc    $0x3040200,%eax
     2ef:	2f                   	das    
     2f0:	05 10 00 02 04       	add    $0x4020010,%eax
     2f5:	03 82 05 1e 00 02    	add    0x2001e05(%edx),%eax
     2fb:	04 03                	add    $0x3,%al
     2fd:	90                   	nop
     2fe:	05 33 00 02 04       	add    $0x4020033,%eax
     303:	03 71 05             	add    0x5(%ecx),%esi
     306:	2b 00                	sub    (%eax),%eax
     308:	02 04 01             	add    (%ecx,%eax,1),%al
     30b:	58                   	pop    %eax
     30c:	05 24 00 02 04       	add    $0x4020024,%eax
     311:	01 66 05             	add    %esp,0x5(%esi)
     314:	08 6d 05             	or     %ch,0x5(%ebp)
     317:	0e                   	push   %cs
     318:	9e                   	sahf   
     319:	05 08 3d 05 0f       	add    $0xf053d08,%eax
     31e:	75 05                	jne    325 <start_-0xffce7>
     320:	0c a0                	or     $0xa0,%al
     322:	05 01 4b 4e 05       	add    $0x54e4b01,%eax
     327:	08 3d 05 13 00 02    	or     %bh,0x2001305
     32d:	04 01                	add    $0x1,%al
     32f:	74 05                	je     336 <start_-0xffcd6>
     331:	10 75 05             	adc    %dh,0x5(%ebp)
     334:	2a 75 05             	sub    0x5(%ebp),%dh
     337:	16                   	push   %ss
     338:	66 05 09 4b          	add    $0x4b09,%ax
     33c:	05 22 08 a9 05       	add    $0x5a90822,%eax
     341:	09 33                	or     %esi,(%ebx)
     343:	05 0c 08 85 05       	add    $0x585080c,%eax
     348:	01 4b 4e             	add    %ecx,0x4e(%ebx)
     34b:	05 0c 13 05 01       	add    $0x105130c,%eax
     350:	08 59 02             	or     %bl,0x2(%ecx)
     353:	01 00                	add    %eax,(%eax)
     355:	01 01                	add    %eax,(%ecx)
     357:	69 00 00 00 05 00    	imul   $0x50000,(%eax),%eax
     35d:	04 00                	add    $0x0,%al
     35f:	2e 00 00             	add    %al,%cs:(%eax)
     362:	00 01                	add    %al,(%ecx)
     364:	01 01                	add    %eax,(%ecx)
     366:	fb                   	sti    
     367:	0e                   	push   %cs
     368:	0d 00 01 01 01       	or     $0x1010100,%eax
     36d:	01 00                	add    %eax,(%eax)
     36f:	00 00                	add    %al,(%eax)
     371:	01 00                	add    %eax,(%eax)
     373:	00 01                	add    %al,(%ecx)
     375:	01 01                	add    %eax,(%ecx)
     377:	1f                   	pop    %ds
     378:	02 0a                	add    (%edx),%cl
     37a:	00 00                	add    %al,(%eax)
     37c:	00 1f                	add    %bl,(%edi)
     37e:	01 00                	add    %eax,(%eax)
     380:	00 02                	add    %al,(%edx)
     382:	01 1f                	add    %ebx,(%edi)
     384:	02 0f                	add    (%edi),%cl
     386:	02 05 01 00 00 00    	add    0x1,%al
     38c:	16                   	push   %ss
     38d:	01 00                	add    %eax,(%eax)
     38f:	00 01                	add    %al,(%ecx)
     391:	05 25 00 05 02       	add    $0x2050025,%eax
     396:	a6                   	cmpsb  %es:(%edi),%ds:(%esi)
     397:	72 10                	jb     3a9 <start_-0xffc63>
     399:	c0 15 05 12 3e 05 0b 	rclb   $0xb,0x53e1205
     3a0:	83 05 0d 30 05 11 9e 	addl   $0xffffff9e,0x1105300d
     3a7:	05 0a 75 05 14       	add    $0x1405750a,%eax
     3ac:	55                   	push   %ebp
     3ad:	05 0f 9e 05 0c       	add    $0xc059e0f,%eax
     3b2:	74 05                	je     3b9 <start_-0xffc53>
     3b4:	09 79 05             	or     %edi,0x5(%ecx)
     3b7:	0d 9e 05 0c 3d       	or     $0x3d0c059e,%eax
     3bc:	05 01 4b 02 04       	add    $0x4024b01,%eax
     3c1:	00 01                	add    %al,(%ecx)
     3c3:	01 61 00             	add    %esp,0x0(%ecx)
     3c6:	00 00                	add    %al,(%eax)
     3c8:	05 00 04 00 37       	add    $0x37000400,%eax
     3cd:	00 00                	add    %al,(%eax)
     3cf:	00 01                	add    %al,(%ecx)
     3d1:	01 01                	add    %eax,(%ecx)
     3d3:	fb                   	sti    
     3d4:	0e                   	push   %cs
     3d5:	0d 00 01 01 01       	or     $0x1010100,%eax
     3da:	01 00                	add    %eax,(%eax)
     3dc:	00 00                	add    %al,(%eax)
     3de:	01 00                	add    %eax,(%eax)
     3e0:	00 01                	add    %al,(%ecx)
     3e2:	01 01                	add    %eax,(%ecx)
     3e4:	1f                   	pop    %ds
     3e5:	03 0a                	add    (%edx),%ecx
     3e7:	00 00                	add    %al,(%eax)
     3e9:	00 1f                	add    %bl,(%edi)
     3eb:	01 00                	add    %eax,(%eax)
     3ed:	00 34 00             	add    %dh,(%eax,%eax,1)
     3f0:	00 00                	add    %al,(%eax)
     3f2:	02 01                	add    (%ecx),%al
     3f4:	1f                   	pop    %ds
     3f5:	02 0f                	add    (%edi),%cl
     3f7:	03 30                	add    (%eax),%esi
     3f9:	01 00                	add    %eax,(%eax)
     3fb:	00 00                	add    %al,(%eax)
     3fd:	41                   	inc    %ecx
     3fe:	01 00                	add    %eax,(%eax)
     400:	00 01                	add    %al,(%ecx)
     402:	4a                   	dec    %edx
     403:	01 00                	add    %eax,(%eax)
     405:	00 02                	add    %al,(%edx)
     407:	05 01 00 05 02       	add    $0x2050001,%eax
     40c:	f6 72 10             	divb   0x10(%edx)
     40f:	c0 16 05             	rclb   $0x5,(%esi)
     412:	0c 3d                	or     $0x3d,%al
     414:	05 0b 83 05 0c       	add    $0xc05830b,%eax
     419:	2f                   	das    
     41a:	05 0f 57 05 0c       	add    $0xc05570f,%eax
     41f:	c8 4c 05 01          	enter  $0x54c,$0x1
     423:	4b                   	dec    %ebx
     424:	02 04 00             	add    (%eax,%eax,1),%al
     427:	01 01                	add    %eax,(%ecx)
     429:	66 01 00             	add    %ax,(%eax)
     42c:	00 05 00 04 00 3c    	add    %al,0x3c000400
     432:	00 00                	add    %al,(%eax)
     434:	00 01                	add    %al,(%ecx)
     436:	01 01                	add    %eax,(%ecx)
     438:	fb                   	sti    
     439:	0e                   	push   %cs
     43a:	0d 00 01 01 01       	or     $0x1010100,%eax
     43f:	01 00                	add    %eax,(%eax)
     441:	00 00                	add    %al,(%eax)
     443:	01 00                	add    %eax,(%eax)
     445:	00 01                	add    %al,(%ecx)
     447:	01 01                	add    %eax,(%ecx)
     449:	1f                   	pop    %ds
     44a:	03 0a                	add    (%edx),%ecx
     44c:	00 00                	add    %al,(%eax)
     44e:	00 1f                	add    %bl,(%edi)
     450:	01 00                	add    %eax,(%eax)
     452:	00 34 00             	add    %dh,(%eax,%eax,1)
     455:	00 00                	add    %al,(%eax)
     457:	02 01                	add    (%ecx),%al
     459:	1f                   	pop    %ds
     45a:	02 0f                	add    (%edi),%cl
     45c:	04 53                	add    $0x53,%al
     45e:	01 00                	add    %eax,(%eax)
     460:	00 00                	add    %al,(%eax)
     462:	64 01 00             	add    %eax,%fs:(%eax)
     465:	00 01                	add    %al,(%ecx)
     467:	7d 00                	jge    469 <start_-0xffba3>
     469:	00 00                	add    %al,(%eax)
     46b:	02 4a 01             	add    0x1(%edx),%cl
     46e:	00 00                	add    %al,(%eax)
     470:	02 05 01 00 05 02    	add    0x2050001,%al
     476:	21 73 10             	and    %esi,0x10(%ebx)
     479:	c0 17 05             	rclb   $0x5,(%edi)
     47c:	0e                   	push   %cs
     47d:	3d 05 14 83 05       	cmp    $0x5831405,%eax
     482:	11 83 05 05 82 05    	adc    %eax,0x5820505(%ebx)
     488:	25 00 02 04 03       	and    $0x3040200,%eax
     48d:	2f                   	das    
     48e:	05 14 00 02 04       	add    $0x4020014,%eax
     493:	03 9e 05 1b 00 02    	add    0x2001b05(%esi),%ebx
     499:	04 03                	add    $0x3,%al
     49b:	9e                   	sahf   
     49c:	05 19 00 02 04       	add    $0x4020019,%eax
     4a1:	03 3c 05 22 00 02 04 	add    0x4020022(,%eax,1),%edi
     4a8:	03 2d 05 1a 00 02    	add    0x2001a05,%ebp
     4ae:	04 01                	add    $0x1,%al
     4b0:	58                   	pop    %eax
     4b1:	05 0c a1 05 01       	add    $0x105a10c,%eax
     4b6:	4b                   	dec    %ebx
     4b7:	4e                   	dec    %esi
     4b8:	05 0e 3d 05 14       	add    $0x14053d0e,%eax
     4bd:	83 05 08 75 05 15 91 	addl   $0xffffff91,0x15057508
     4c4:	05 09 82 05 29       	add    $0x29058209,%eax
     4c9:	00 02                	add    %al,(%edx)
     4cb:	04 03                	add    $0x3,%al
     4cd:	2f                   	das    
     4ce:	05 18 00 02 04       	add    $0x4020018,%eax
     4d3:	03 90 05 1f 00 02    	add    0x2001f05(%eax),%edx
     4d9:	04 03                	add    $0x3,%al
     4db:	9e                   	sahf   
     4dc:	05 1d 00 02 04       	add    $0x402001d,%eax
     4e1:	03 3c 05 26 00 02 04 	add    0x4020026(,%eax,1),%edi
     4e8:	03 2d 05 1e 00 02    	add    0x2001e05,%ebp
     4ee:	04 01                	add    $0x1,%al
     4f0:	58                   	pop    %eax
     4f1:	05 15 be 05 09       	add    $0x905be15,%eax
     4f6:	82 05 31 00 02 04 03 	addb   $0x3,0x4020031
     4fd:	2f                   	das    
     4fe:	05 1c 00 02 04       	add    $0x402001c,%eax
     503:	03 ba 05 23 00 02    	add    0x2002305(%edx),%edi
     509:	04 03                	add    $0x3,%al
     50b:	c8 05 21 00          	enter  $0x2105,$0x0
     50f:	02 04 03             	add    (%ebx,%eax,1),%al
     512:	3c 05                	cmp    $0x5,%al
     514:	27                   	daa    
     515:	00 02                	add    %al,(%edx)
     517:	04 03                	add    $0x3,%al
     519:	2d 05 20 00 02       	sub    $0x2002005,%eax
     51e:	04 01                	add    $0x1,%al
     520:	58                   	pop    %eax
     521:	05 0c 78 05 01       	add    $0x105780c,%eax
     526:	4b                   	dec    %ebx
     527:	4e                   	dec    %esi
     528:	05 0e 3d 05 11       	add    $0x11053d0e,%eax
     52d:	83 05 05 82 05 11 00 	addl   $0x0,0x11058205
     534:	02 04 03             	add    (%ebx,%eax,1),%al
     537:	2f                   	das    
     538:	05 18 00 02 04       	add    $0x4020018,%eax
     53d:	03 9e 05 16 00 02    	add    0x2001605(%esi),%ebx
     543:	04 03                	add    $0x3,%al
     545:	4a                   	dec    %edx
     546:	05 22 00 02 04       	add    $0x4020022,%eax
     54b:	03 2d 05 1a 00 02    	add    0x2001a05,%ebp
     551:	04 01                	add    $0x1,%al
     553:	58                   	pop    %eax
     554:	05 0c a1 05 01       	add    $0x105a10c,%eax
     559:	4b                   	dec    %ebx
     55a:	4e                   	dec    %esi
     55b:	05 0e 3d 83 05       	add    $0x5833d0e,%eax
     560:	11 83 05 05 82 05    	adc    %eax,0x5820505(%ebx)
     566:	19 2f                	sbb    %ebp,(%edi)
     568:	05 14 9e 05 25       	add    $0x25059e14,%eax
     56d:	66 05 20 9e          	add    $0x9e20,%ax
     571:	05 0d 66 05 0c       	add    $0xc05660d,%eax
     576:	59                   	pop    %ecx
     577:	05 14 67 05 22       	add    $0x22056714,%eax
     57c:	00 02                	add    %al,(%edx)
     57e:	04 02                	add    $0x2,%al
     580:	55                   	push   %ebp
     581:	05 1a 00 02 04       	add    $0x402001a,%eax
     586:	01 58 05             	add    %ebx,0x5(%eax)
     589:	0c a4                	or     $0xa4,%al
     58b:	05 01 59 02 04       	add    $0x4025901,%eax
     590:	00 01                	add    %al,(%ecx)
     592:	01 42 01             	add    %eax,0x1(%edx)
     595:	00 00                	add    %al,(%eax)
     597:	05 00 04 00 4f       	add    $0x4f000400,%eax
     59c:	00 00                	add    %al,(%eax)
     59e:	00 01                	add    %al,(%ecx)
     5a0:	01 01                	add    %eax,(%ecx)
     5a2:	fb                   	sti    
     5a3:	0e                   	push   %cs
     5a4:	0d 00 01 01 01       	or     $0x1010100,%eax
     5a9:	01 00                	add    %eax,(%eax)
     5ab:	00 00                	add    %al,(%eax)
     5ad:	01 00                	add    %eax,(%eax)
     5af:	00 01                	add    %al,(%ecx)
     5b1:	01 01                	add    %eax,(%ecx)
     5b3:	1f                   	pop    %ds
     5b4:	04 0a                	add    $0xa,%al
     5b6:	00 00                	add    %al,(%eax)
     5b8:	00 84 01 00 00 34 00 	add    %al,0x340000(%ecx,%eax,1)
     5bf:	00 00                	add    %al,(%eax)
     5c1:	94                   	xchg   %eax,%esp
     5c2:	01 00                	add    %eax,(%eax)
     5c4:	00 02                	add    %al,(%edx)
     5c6:	01 1f                	add    %ebx,(%edi)
     5c8:	02 0f                	add    (%edi),%cl
     5ca:	07                   	pop    %es
     5cb:	6a 01                	push   $0x1
     5cd:	00 00                	add    %al,(%eax)
     5cf:	00 7a 01             	add    %bh,0x1(%edx)
     5d2:	00 00                	add    %al,(%eax)
     5d4:	01 a2 01 00 00 02    	add    %esp,0x2000001(%edx)
     5da:	4a                   	dec    %edx
     5db:	01 00                	add    %eax,(%eax)
     5dd:	00 02                	add    %al,(%edx)
     5df:	7d 00                	jge    5e1 <start_-0xffa2b>
     5e1:	00 00                	add    %al,(%eax)
     5e3:	02 ab 01 00 00 03    	add    0x3000001(%ebx),%ch
     5e9:	b4 01                	mov    $0x1,%ah
     5eb:	00 00                	add    %al,(%eax)
     5ed:	03 05 01 00 05 02    	add    0x2050001,%eax
     5f3:	99                   	cltd   
     5f4:	74 10                	je     606 <start_-0xffa06>
     5f6:	c0 1a 05             	rcrb   $0x5,(%edx)
     5f9:	12 3f                	adc    (%edi),%bh
     5fb:	83 05 0b 83 05 0c 59 	addl   $0x59,0xc05830b
     602:	05 13 75 05 19       	add    $0x19057513,%eax
     607:	9e                   	sahf   
     608:	05 11 75 ca 05       	add    $0x5ca7511,%eax
     60d:	10 83 05 17 59 05    	adc    %al,0x5591705(%ebx)
     613:	0d f2 05 29 02       	or     $0x22905f2,%eax
     618:	39 14 05 1b c8 05 21 	cmp    %edx,0x2105c81b(,%eax,1)
     61f:	9e                   	sahf   
     620:	05 19 2f 05 15       	add    $0x15052f19,%eax
     625:	83 05 1b 5b 05 15 08 	addl   $0x8,0x15055b1b
     62c:	13 05 1b 08 91 05    	adc    0x591081b,%eax
     632:	19 e4                	sbb    %esp,%esp
     634:	05 15 4b 05 19       	add    $0x19054b15,%eax
     639:	5d                   	pop    %ebp
     63a:	05 15 08 13 08       	add    $0x8130815,%eax
     63f:	c9                   	leave  
     640:	05 22 5b 05 15       	add    $0x15055b22,%eax
     645:	08 13                	or     %dl,(%ebx)
     647:	08 c9                	or     %cl,%cl
     649:	05 19 5b 05 15       	add    $0x15055b19,%eax
     64e:	08 13                	or     %dl,(%ebx)
     650:	08 c9                	or     %cl,%cl
     652:	05 19 5d 05 15       	add    $0x15055d19,%eax
     657:	08 13                	or     %dl,(%ebx)
     659:	05 18 08 c9 05       	add    $0x5c90818,%eax
     65e:	1d ad 05 1f 84       	sbb    $0x841f05ad,%eax
     663:	05 3c 2f 05 2c       	add    $0x2c052f3c,%eax
     668:	9e                   	sahf   
     669:	05 23 2e 05 2c       	add    $0x2c052e23,%eax
     66e:	9e                   	sahf   
     66f:	05 27 4a 05 1e       	add    $0x1e054a27,%eax
     674:	2f                   	das    
     675:	05 2c 56 05 24       	add    $0x2405562c,%eax
     67a:	9e                   	sahf   
     67b:	05 20 74 05 15       	add    $0x15057420,%eax
     680:	79 05                	jns    687 <start_-0xff985>
     682:	1f                   	pop    %ds
     683:	31 05 1b 08 13 05    	xor    %eax,0x513081b
     689:	21 9e 05 1b 3d 05    	and    %ebx,0x53d1b05(%esi)
     68f:	23 c8                	and    %eax,%ecx
     691:	05 3d 3d 05 15       	add    $0x15053d3d,%eax
     696:	74 05                	je     69d <start_-0xff96f>
     698:	18 08                	sbb    %cl,(%eax)
     69a:	ad                   	lods   %ds:(%esi),%eax
     69b:	05 15 ad 05 1b       	add    $0x1b05ad15,%eax
     6a0:	31 05 21 9e 05 19    	xor    %eax,0x19059e21
     6a6:	75 05                	jne    6ad <start_-0xff95f>
     6a8:	15 83 32 03 6f       	adc    $0x6f033283,%eax
     6ad:	3c 05                	cmp    $0x5,%al
     6af:	0c 03                	or     $0x3,%al
     6b1:	14 20                	adc    $0x20,%al
     6b3:	05 0d 59 05 0f       	add    $0xf05590d,%eax
     6b8:	03 ba 7f 82 05 0c    	add    0xc05827f(%edx),%edi
     6be:	ac                   	lods   %ds:(%esi),%al
     6bf:	05 0b 03 c8 00       	add    $0xc8030b,%eax
     6c4:	ac                   	lods   %ds:(%esi),%al
     6c5:	05 11 9e 05 01       	add    $0x1059e11,%eax
     6ca:	3d 5c 05 05 3e       	cmp    $0x3e05055c,%eax
     6cf:	83 05 01 08 76 02 05 	addl   $0x5,0x2760801
     6d6:	00 01                	add    %al,(%ecx)
     6d8:	01 69 00             	add    %ebp,0x0(%ecx)
     6db:	00 00                	add    %al,(%eax)
     6dd:	05 00 04 00 49       	add    $0x49000400,%eax
     6e2:	00 00                	add    %al,(%eax)
     6e4:	00 01                	add    %al,(%ecx)
     6e6:	01 01                	add    %eax,(%ecx)
     6e8:	fb                   	sti    
     6e9:	0e                   	push   %cs
     6ea:	0d 00 01 01 01       	or     $0x1010100,%eax
     6ef:	01 00                	add    %eax,(%eax)
     6f1:	00 00                	add    %al,(%eax)
     6f3:	01 00                	add    %eax,(%eax)
     6f5:	00 01                	add    %al,(%ecx)
     6f7:	01 01                	add    %eax,(%ecx)
     6f9:	1f                   	pop    %ds
     6fa:	05 0a 00 00 00       	add    $0xa,%eax
     6ff:	84 01                	test   %al,(%ecx)
     701:	00 00                	add    %al,(%eax)
     703:	34 00                	xor    $0x0,%al
     705:	00 00                	add    %al,(%eax)
     707:	d6                   	(bad)  
     708:	01 00                	add    %eax,(%eax)
     70a:	00 94 01 00 00 02 01 	add    %dl,0x1020000(%ecx,%eax,1)
     711:	1f                   	pop    %ds
     712:	02 0f                	add    (%edi),%cl
     714:	05 bd 01 00 00       	add    $0x1bd,%eax
     719:	00 cd                	add    %cl,%ch
     71b:	01 00                	add    %eax,(%eax)
     71d:	00 01                	add    %al,(%ecx)
     71f:	a2 01 00 00 02       	mov    %al,0x2000001
     724:	ea 01 00 00 03 f0 01 	ljmp   $0x1f0,$0x3000001
     72b:	00 00                	add    %al,(%eax)
     72d:	04 05                	add    $0x5,%al
     72f:	1d 00 05 02 8a       	sbb    $0x8a020500,%eax
     734:	77 10                	ja     746 <start_-0xff8c6>
     736:	c0 18 05             	rcrb   $0x5,(%eax)
     739:	05 69 ad 08 af       	add    $0xaf08ad69,%eax
     73e:	05 01 f3 02 08       	add    $0x802f301,%eax
     743:	00 01                	add    %al,(%ecx)
     745:	01 06                	add    %eax,(%esi)
     747:	02 00                	add    (%eax),%al
     749:	00 05 00 04 00 53    	add    %al,0x53000400
     74f:	00 00                	add    %al,(%eax)
     751:	00 01                	add    %al,(%ecx)
     753:	01 01                	add    %eax,(%ecx)
     755:	fb                   	sti    
     756:	0e                   	push   %cs
     757:	0d 00 01 01 01       	or     $0x1010100,%eax
     75c:	01 00                	add    %eax,(%eax)
     75e:	00 00                	add    %al,(%eax)
     760:	01 00                	add    %eax,(%eax)
     762:	00 01                	add    %al,(%ecx)
     764:	01 01                	add    %eax,(%ecx)
     766:	1f                   	pop    %ds
     767:	05 0a 00 00 00       	add    $0xa,%eax
     76c:	08 02                	or     %al,(%edx)
     76e:	00 00                	add    %al,(%eax)
     770:	34 00                	xor    $0x0,%al
     772:	00 00                	add    %al,(%eax)
     774:	b6 00                	mov    $0x0,%dh
     776:	00 00                	add    %al,(%eax)
     778:	94                   	xchg   %eax,%esp
     779:	01 00                	add    %eax,(%eax)
     77b:	00 02                	add    %al,(%edx)
     77d:	01 1f                	add    %ebx,(%edi)
     77f:	02 0f                	add    (%edi),%cl
     781:	07                   	pop    %es
     782:	f8                   	clc    
     783:	01 00                	add    %eax,(%eax)
     785:	00 00                	add    %al,(%eax)
     787:	02 02                	add    (%edx),%al
     789:	00 00                	add    %al,(%eax)
     78b:	01 7d 00             	add    %edi,0x0(%ebp)
     78e:	00 00                	add    %al,(%eax)
     790:	02 d5                	add    %ch,%dl
     792:	00 00                	add    %al,(%eax)
     794:	00 03                	add    %al,(%ebx)
     796:	4a                   	dec    %edx
     797:	01 00                	add    %eax,(%eax)
     799:	00 02                	add    %al,(%edx)
     79b:	12 02                	adc    (%edx),%al
     79d:	00 00                	add    %al,(%eax)
     79f:	03 b4 01 00 00 04 05 	add    0x5040000(%ecx,%eax,1),%esi
     7a6:	11 00                	adc    %eax,(%eax)
     7a8:	05 02 00 60 10       	add    $0x10600002,%eax
     7ad:	c0 19 05             	rcrb   $0x5,(%ecx)
     7b0:	0c 03                	or     $0x3,%al
     7b2:	09 3c 05 01 91 05 18 	or     %edi,0x18059101(,%eax,1)
     7b9:	4c                   	dec    %esp
     7ba:	05 01 03 0a 01       	add    $0x10a0301,%eax
     7bf:	05 11 30 05 01       	add    $0x1053011,%eax
     7c4:	14 05                	adc    $0x5,%al
     7c6:	16                   	push   %ss
     7c7:	30 05 12 3d 05 11    	xor    %al,0x11053d12
     7cd:	91                   	xchg   %eax,%ecx
     7ce:	05 05 82 05 0c       	add    $0xc058205,%eax
     7d3:	00 02                	add    %al,(%edx)
     7d5:	04 03                	add    $0x3,%al
     7d7:	30 05 10 00 02 04    	xor    %al,0x4020010
     7dd:	03 08                	add    (%eax),%ecx
     7df:	12 05 23 00 02 04    	adc    0x4020023,%al
     7e5:	03 64 05 1a          	add    0x1a(%ebp,%eax,1),%esp
     7e9:	00 02                	add    %al,(%edx)
     7eb:	04 01                	add    $0x1,%al
     7ed:	58                   	pop    %eax
     7ee:	05 11 a4 05 08       	add    $0x805a411,%eax
     7f3:	ac                   	lods   %ds:(%esi),%al
     7f4:	05 11 90 05 0f       	add    $0xf059011,%eax
     7f9:	3c 05                	cmp    $0x5,%al
     7fb:	0c 30                	or     $0x30,%al
     7fd:	05 01 4b 05 46       	add    $0x46054b01,%eax
     802:	4c                   	dec    %esp
     803:	05 08 4c 05 0d       	add    $0xd054c08,%eax
     808:	00 02                	add    %al,(%edx)
     80a:	04 01                	add    $0x1,%al
     80c:	74 05                	je     813 <start_-0xff7f9>
     80e:	10 75 05             	adc    %dh,0x5(%ebp)
     811:	1b a1 05 0f 4a 05    	sbb    0x54a0f05(%ecx),%esp
     817:	1b 75 05             	sbb    0x5(%ebp),%esi
     81a:	0f 74 05 0c 91 05 15 	pcmpeqb 0x1505910c,%mm0
     821:	85 05 0c 08 2e 05    	test   %eax,0x52e080c
     827:	1b 4b 05             	sbb    0x5(%ebx),%ecx
     82a:	10 74 05 0b          	adc    %dh,0xb(%ebp,%eax,1)
     82e:	58                   	pop    %eax
     82f:	4b                   	dec    %ebx
     830:	05 0c 59 05 16       	add    $0x1605590c,%eax
     835:	9f                   	lahf   
     836:	05 17 59 05 16       	add    $0x16055917,%eax
     83b:	83 05 11 08 2e 05 19 	addl   $0x19,0x52e0811
     842:	4b                   	dec    %ebx
     843:	05 10 ba 05 0c       	add    $0xc05ba10,%eax
     848:	4d                   	dec    %ebp
     849:	05 16 00 02 04       	add    $0x4020016,%eax
     84e:	01 74 05 10          	add    %esi,0x10(%ebp,%eax,1)
     852:	00 02                	add    %al,(%edx)
     854:	04 01                	add    $0x1,%al
     856:	08 2e                	or     %ch,(%esi)
     858:	05 1d 4b 05 0f       	add    $0xf054b1d,%eax
     85d:	08 58 05             	or     %bl,0x5(%eax)
     860:	1d 08 12 05 1b       	sbb    $0x1b051208,%eax
     865:	2e 05 14 2f 05 12    	cs add $0x12052f14,%eax
     86b:	02 22                	add    (%edx),%ah
     86d:	14 05                	adc    $0x5,%al
     86f:	10 03                	adc    %al,(%ebx)
     871:	74 58                	je     8cb <start_-0xff741>
     873:	00 02                	add    %al,(%edx)
     875:	04 01                	add    $0x1,%al
     877:	06                   	push   %es
     878:	74 05                	je     87f <start_-0xff78d>
     87a:	08 06                	or     %al,(%esi)
     87c:	03 10                	add    (%eax),%edx
     87e:	d6                   	(bad)  
     87f:	05 10 9f 05 1a       	add    $0x1a059f10,%eax
     884:	a2 05 08 93 05       	mov    %al,0x5930805
     889:	10 75 05             	adc    %dh,0x5(%ebp)
     88c:	16                   	push   %ss
     88d:	a1 05 08 08 58       	mov    0x58080805,%eax
     892:	05 16 08 12 05       	add    $0x5120816,%eax
     897:	14 2e                	adc    $0x2e,%al
     899:	05 13 30 05 05       	add    $0x5053013,%eax
     89e:	ba 05 15 08 2f       	mov    $0x2f081505,%edx
     8a3:	05 07 08 58 05       	add    $0x5580807,%eax
     8a8:	15 08 12 05 13       	adc    $0x13051208,%eax
     8ad:	2e 05 0c 30 05 01    	cs add $0x105300c,%eax
     8b3:	08 bb 05 3f 5a 05    	or     %bh,0x55a3f05(%ebx)
     8b9:	10 3d 05 14 91 05    	adc    %bh,0x5911405
     8bf:	08 08                	or     %cl,(%eax)
     8c1:	ad                   	lods   %ds:(%esi),%eax
     8c2:	05 09 75 05 0c       	add    $0xc057509,%eax
     8c7:	e6 05                	out    %al,$0x5
     8c9:	01 4b 05             	add    %ecx,0x5(%ebx)
     8cc:	20 4c 05 1b          	and    %cl,0x1b(%ebp,%eax,1)
     8d0:	3d 05 0f 4a 05       	cmp    $0x54a0f05,%eax
     8d5:	1b 75 05             	sbb    0x5(%ebp),%esi
     8d8:	0f 74 05 0c 91 05 19 	pcmpeqb 0x1905910c,%mm0
     8df:	84 05 0b 08 12 05    	test   %al,0x512080b
     8e5:	08 68 05             	or     %ch,0x5(%eax)
     8e8:	1b 75 05             	sbb    0x5(%ebp),%esi
     8eb:	0f ba                	(bad)  
     8ed:	05 1a 4b 05 12       	add    $0x12054b1a,%eax
     8f2:	08 12                	or     %dl,(%edx)
     8f4:	05 0d 67 05 0c       	add    $0xc05670d,%eax
     8f9:	74 05                	je     900 <start_-0xff70c>
     8fb:	1f                   	pop    %ds
     8fc:	00 02                	add    %al,(%edx)
     8fe:	04 01                	add    $0x1,%al
     900:	4a                   	dec    %edx
     901:	05 0b f8 05 17       	add    $0x1705f80b,%eax
     906:	08 12                	or     %dl,(%edx)
     908:	05 01 68 05 19       	add    $0x19056801,%eax
     90d:	5a                   	pop    %edx
     90e:	05 1b 3d 05 0f       	add    $0xf053d1b,%eax
     913:	4a                   	dec    %edx
     914:	05 1b 75 05 0f       	add    $0xf05751b,%eax
     919:	74 05                	je     920 <start_-0xff6ec>
     91b:	14 91                	adc    $0x91,%al
     91d:	05 0f 4a 05 0c       	add    $0xc054a0f,%eax
     922:	91                   	xchg   %eax,%ecx
     923:	05 19 84 05 0b       	add    $0xb058419,%eax
     928:	08 12                	or     %dl,(%edx)
     92a:	05 08 67 05 30       	add    $0x30056708,%eax
     92f:	75 05                	jne    936 <start_-0xff6d6>
     931:	1c ac                	sbb    $0xac,%al
     933:	05 30 ba 05 0e       	add    $0xe05ba30,%eax
     938:	2e 05 0c 67 05 17    	cs add $0x1705670c,%eax
     93e:	75 05                	jne    945 <start_-0xff6c7>
     940:	1b ad 05 14 ac 05    	sbb    0x5ac1405(%ebp),%ebp
     946:	0c 32                	or     $0x32,%al
     948:	05 01 59 02 04       	add    $0x4025901,%eax
     94d:	00 01                	add    %al,(%ecx)
     94f:	01 b7 02 00 00 05    	add    %esi,0x5000002(%edi)
     955:	00 04 00             	add    %al,(%eax,%eax,1)
     958:	3c 00                	cmp    $0x0,%al
     95a:	00 00                	add    %al,(%eax)
     95c:	01 01                	add    %eax,(%ecx)
     95e:	01 fb                	add    %edi,%ebx
     960:	0e                   	push   %cs
     961:	0d 00 01 01 01       	or     $0x1010100,%eax
     966:	01 00                	add    %eax,(%eax)
     968:	00 00                	add    %al,(%eax)
     96a:	01 00                	add    %eax,(%eax)
     96c:	00 01                	add    %al,(%ecx)
     96e:	01 01                	add    %eax,(%ecx)
     970:	1f                   	pop    %ds
     971:	03 0a                	add    (%edx),%ecx
     973:	00 00                	add    %al,(%eax)
     975:	00 08                	add    %cl,(%eax)
     977:	02 00                	add    (%eax),%al
     979:	00 34 00             	add    %dh,(%eax,%eax,1)
     97c:	00 00                	add    %al,(%eax)
     97e:	02 01                	add    (%ecx),%al
     980:	1f                   	pop    %ds
     981:	02 0f                	add    (%edi),%cl
     983:	04 18                	add    $0x18,%al
     985:	02 00                	add    (%eax),%al
     987:	00 00                	add    %al,(%eax)
     989:	22 02                	and    (%edx),%al
     98b:	00 00                	add    %al,(%eax)
     98d:	01 7d 00             	add    %edi,0x0(%ebp)
     990:	00 00                	add    %al,(%eax)
     992:	02 4a 01             	add    0x1(%edx),%cl
     995:	00 00                	add    %al,(%eax)
     997:	02 05 01 00 05 02    	add    0x2050001,%al
     99d:	e4 63                	in     $0x63,%al
     99f:	10 c0                	adc    %al,%al
     9a1:	03 17                	add    (%edi),%edx
     9a3:	01 05 05 3d 05 21    	add    %eax,0x21053d05
     9a9:	08 f3                	or     %dh,%bl
     9ab:	05 29 ba 05 16       	add    $0x1605ba29,%eax
     9b0:	82 05 01 ad 5c 05 05 	addb   $0x5,0x55cad01
     9b7:	3d 05 21 08 f3       	cmp    $0xf3082105,%eax
     9bc:	05 29 ba 05 16       	add    $0x1605ba29,%eax
     9c1:	66 05 01 ad          	add    $0xad01,%ax
     9c5:	5c                   	pop    %esp
     9c6:	05 05 4b 00 02       	add    $0x2004b05,%eax
     9cb:	04 01                	add    $0x1,%al
     9cd:	06                   	push   %es
     9ce:	02 47 12             	add    0x12(%edi),%al
     9d1:	00 02                	add    %al,(%edx)
     9d3:	04 02                	add    $0x2,%al
     9d5:	ac                   	lods   %ds:(%esi),%al
     9d6:	00 02                	add    %al,(%edx)
     9d8:	04 04                	add    $0x4,%al
     9da:	4a                   	dec    %edx
     9db:	05 16 00 02 04       	add    $0x4020016,%eax
     9e0:	04 06                	add    $0x6,%al
     9e2:	4e                   	dec    %esi
     9e3:	05 20 00 02 04       	add    $0x4020020,%eax
     9e8:	04 ba                	add    $0xba,%al
     9ea:	05 33 00 02 04       	add    $0x4020033,%eax
     9ef:	04 e4                	add    $0xe4,%al
     9f1:	05 47 00 02 04       	add    $0x4020047,%eax
     9f6:	04 3c                	add    $0x3c,%al
     9f8:	05 38 00 02 04       	add    $0x4020038,%eax
     9fd:	04 08                	add    $0x8,%al
     9ff:	12 05 16 00 02 04    	adc    0x4020016,%al
     a05:	04 66                	add    $0x66,%al
     a07:	05 0a 00 02 04       	add    $0x402000a,%eax
     a0c:	04 08                	add    $0x8,%al
     a0e:	14 05                	adc    $0x5,%al
     a10:	13 00                	adc    (%eax),%eax
     a12:	02 04 04             	add    (%esp,%eax,1),%al
     a15:	5b                   	pop    %ebx
     a16:	05 05 00 02 04       	add    $0x4020005,%eax
     a1b:	04 82                	add    $0x82,%al
     a1d:	05 1a 00 02 04       	add    $0x402001a,%eax
     a22:	04 2f                	add    $0x2f,%al
     a24:	05 43 00 02 04       	add    $0x4020043,%eax
     a29:	04 b9                	add    $0xb9,%al
     a2b:	05 4c 00 02 04       	add    $0x402004c,%eax
     a30:	04 58                	add    $0x58,%al
     a32:	05 2a 00 02 04       	add    $0x402002a,%eax
     a37:	01 58 05             	add    %ebx,0x5(%eax)
     a3a:	3d 00 02 04 03       	cmp    $0x3040200,%eax
     a3f:	74 05                	je     a46 <start_-0xff5c6>
     a41:	2a 00                	sub    (%eax),%al
     a43:	02 04 03             	add    (%ebx,%eax,1),%al
     a46:	74 05                	je     a4d <start_-0xff5bf>
     a48:	16                   	push   %ss
     a49:	6a 05                	push   $0x5
     a4b:	33 bb 05 0e 00 02    	xor    0x2000e05(%ebx),%edi
     a51:	04 01                	add    $0x1,%al
     a53:	74 05                	je     a5a <start_-0xff5b2>
     a55:	33 00                	xor    (%eax),%eax
     a57:	02 04 01             	add    (%ecx,%eax,1),%al
     a5a:	e4 00                	in     $0x0,%al
     a5c:	02 04 02             	add    (%edx,%eax,1),%al
     a5f:	06                   	push   %es
     a60:	58                   	pop    %eax
     a61:	05 3e 00 02 04       	add    $0x402003e,%eax
     a66:	04 06                	add    $0x6,%al
     a68:	58                   	pop    %eax
     a69:	05 38 00 02 04       	add    $0x4020038,%eax
     a6e:	04 90                	add    $0x90,%al
     a70:	05 16 00 02 04       	add    $0x4020016,%eax
     a75:	04 65                	add    $0x65,%al
     a77:	05 01 00 02 04       	add    $0x4020001,%eax
     a7c:	04 08                	add    $0x8,%al
     a7e:	14 6a                	adc    $0x6a,%al
     a80:	05 05 4b 00 02       	add    $0x2004b05,%eax
     a85:	04 01                	add    $0x1,%al
     a87:	06                   	push   %es
     a88:	02 47 12             	add    0x12(%edi),%al
     a8b:	00 02                	add    %al,(%edx)
     a8d:	04 02                	add    $0x2,%al
     a8f:	ac                   	lods   %ds:(%esi),%al
     a90:	00 02                	add    %al,(%edx)
     a92:	04 04                	add    $0x4,%al
     a94:	4a                   	dec    %edx
     a95:	05 16 00 02 04       	add    $0x4020016,%eax
     a9a:	04 06                	add    $0x6,%al
     a9c:	4c                   	dec    %esp
     a9d:	05 1f 00 02 04       	add    $0x402001f,%eax
     aa2:	04 ba                	add    $0xba,%al
     aa4:	05 32 00 02 04       	add    $0x4020032,%eax
     aa9:	04 e4                	add    $0xe4,%al
     aab:	05 46 00 02 04       	add    $0x4020046,%eax
     ab0:	04 3c                	add    $0x3c,%al
     ab2:	05 37 00 02 04       	add    $0x4020037,%eax
     ab7:	04 08                	add    $0x8,%al
     ab9:	12 05 16 00 02 04    	adc    0x4020016,%al
     abf:	04 66                	add    $0x66,%al
     ac1:	05 0a 00 02 04       	add    $0x402000a,%eax
     ac6:	04 e6                	add    $0xe6,%al
     ac8:	05 13 00 02 04       	add    $0x4020013,%eax
     acd:	04 5b                	add    $0x5b,%al
     acf:	05 05 00 02 04       	add    $0x4020005,%eax
     ad4:	04 82                	add    $0x82,%al
     ad6:	05 1a 00 02 04       	add    $0x402001a,%eax
     adb:	04 2f                	add    $0x2f,%al
     add:	05 43 00 02 04       	add    $0x4020043,%eax
     ae2:	04 b9                	add    $0xb9,%al
     ae4:	05 4c 00 02 04       	add    $0x402004c,%eax
     ae9:	04 58                	add    $0x58,%al
     aeb:	05 2a 00 02 04       	add    $0x402002a,%eax
     af0:	01 58 05             	add    %ebx,0x5(%eax)
     af3:	3d 00 02 04 03       	cmp    $0x3040200,%eax
     af8:	74 05                	je     aff <start_-0xff50d>
     afa:	2a 00                	sub    (%eax),%al
     afc:	02 04 03             	add    (%ebx,%eax,1),%al
     aff:	74 05                	je     b06 <start_-0xff506>
     b01:	16                   	push   %ss
     b02:	6a 05                	push   $0x5
     b04:	32 bb 05 0d 00 02    	xor    0x2000d05(%ebx),%bh
     b0a:	04 01                	add    $0x1,%al
     b0c:	74 05                	je     b13 <start_-0xff4f9>
     b0e:	32 00                	xor    (%eax),%al
     b10:	02 04 01             	add    (%ecx,%eax,1),%al
     b13:	e4 00                	in     $0x0,%al
     b15:	02 04 02             	add    (%edx,%eax,1),%al
     b18:	06                   	push   %es
     b19:	58                   	pop    %eax
     b1a:	05 3d 00 02 04       	add    $0x402003d,%eax
     b1f:	04 06                	add    $0x6,%al
     b21:	58                   	pop    %eax
     b22:	05 37 00 02 04       	add    $0x4020037,%eax
     b27:	04 90                	add    $0x90,%al
     b29:	05 16 00 02 04       	add    $0x4020016,%eax
     b2e:	04 65                	add    $0x65,%al
     b30:	05 01 00 02 04       	add    $0x4020001,%eax
     b35:	04 e6                	add    $0xe6,%al
     b37:	03 09                	add    (%ecx),%ecx
     b39:	66 05 27 3d          	add    $0x3d27,%ax
     b3d:	05 0c 74 05 13       	add    $0x1305740c,%eax
     b42:	5a                   	pop    %edx
     b43:	05 11 a1 05 05       	add    $0x505a111,%eax
     b48:	82 05 16 00 02 04 03 	addb   $0x3,0x4020016
     b4f:	2f                   	das    
     b50:	05 2e 00 02 04       	add    $0x402002e,%eax
     b55:	03 b9 05 1a 00 02    	add    0x2001a05(%ecx),%edi
     b5b:	04 01                	add    $0x1,%al
     b5d:	58                   	pop    %eax
     b5e:	05 01 a1 6a 05       	add    $0x56aa101,%eax
     b63:	0f 4c 05 0c 83 91 05 	cmovl  0x591830c,%eax
     b6a:	0d 91 05 0b 59       	or     $0x590b0591,%eax
     b6f:	05 29 59 05 0f       	add    $0xf055929,%eax
     b74:	82 05 0c af 05 2b 75 	addb   $0x75,0x2b05af0c
     b7b:	05 19 58 05 0d       	add    $0xd055819,%eax
     b80:	74 05                	je     b87 <start_-0xff485>
     b82:	1d 2f 05 26 58       	sbb    $0x5826052f,%eax
     b87:	05 1d e4 05 14       	add    $0x1405e41d,%eax
     b8c:	2e 05 15 4b 05 35    	cs add $0x35054b15,%eax
     b92:	d7                   	xlat   %ds:(%ebx)
     b93:	05 25 58 05 15       	add    $0x15055825,%eax
     b98:	75 05                	jne    b9f <start_-0xff46d>
     b9a:	38 00                	cmp    %al,(%eax)
     b9c:	02 04 02             	add    (%edx,%eax,1),%al
     b9f:	2a 05 49 00 02 04    	sub    0x4020049,%al
     ba5:	02 58 05             	add    0x5(%eax),%bl
     ba8:	32 00                	xor    (%eax),%al
     baa:	02 04 01             	add    (%ecx,%eax,1),%al
     bad:	c8 05 1b 98          	enter  $0x1b05,$0x98
     bb1:	05 1f cd 05 10       	add    $0x1005cd1f,%eax
     bb6:	58                   	pop    %eax
     bb7:	05 2c 00 02 04       	add    $0x402002c,%eax
     bbc:	01 66 05             	add    %esp,0x5(%esi)
     bbf:	1b 75 05             	sbb    0x5(%ebp),%esi
     bc2:	1f                   	pop    %ds
     bc3:	83 05 1c 9f 05 1d 03 	addl   $0x3,0x1d059f1c
     bca:	6b 82 05 2e 00 02 04 	imul   $0x4,0x2002e05(%edx),%eax
     bd1:	01 74 05 1d          	add    %esi,0x1d(%ebp,%eax,1)
     bd5:	00 02                	add    %al,(%edx)
     bd7:	04 01                	add    $0x1,%al
     bd9:	58                   	pop    %eax
     bda:	05 0c 03 19 9e       	add    $0x9e19030c,%eax
     bdf:	05 01 4b 5c 05       	add    $0x55c4b01,%eax
     be4:	13 3e                	adc    (%esi),%edi
     be6:	05 0e 4a 05 08       	add    $0x8054a0e,%eax
     beb:	75 05                	jne    bf2 <start_-0xff41a>
     bed:	12 00                	adc    (%eax),%al
     bef:	02 04 01             	add    (%ecx,%eax,1),%al
     bf2:	74 05                	je     bf9 <start_-0xff413>
     bf4:	0c 00                	or     $0x0,%al
     bf6:	02 04 01             	add    (%ecx,%eax,1),%al
     bf9:	58                   	pop    %eax
     bfa:	05 09 68 05 10       	add    $0x10056809,%eax
     bff:	bb 05 0c 76 05       	mov    $0x5760c05,%ebx
     c04:	01 59 02             	add    %ebx,0x2(%ecx)
     c07:	04 00                	add    $0x0,%al
     c09:	01 01                	add    %eax,(%ecx)
     c0b:	e7 01                	out    %eax,$0x1
     c0d:	00 00                	add    %al,(%eax)
     c0f:	05 00 04 00 73       	add    $0x73000400,%eax
     c14:	00 00                	add    %al,(%eax)
     c16:	00 01                	add    %al,(%ecx)
     c18:	01 01                	add    %eax,(%ecx)
     c1a:	fb                   	sti    
     c1b:	0e                   	push   %cs
     c1c:	0d 00 01 01 01       	or     $0x1010100,%eax
     c21:	01 00                	add    %eax,(%eax)
     c23:	00 00                	add    %al,(%eax)
     c25:	01 00                	add    %eax,(%eax)
     c27:	00 01                	add    %al,(%ecx)
     c29:	01 01                	add    %eax,(%ecx)
     c2b:	1f                   	pop    %ds
     c2c:	08 0a                	or     %cl,(%edx)
     c2e:	00 00                	add    %al,(%eax)
     c30:	00 38                	add    %bh,(%eax)
     c32:	02 00                	add    (%eax),%al
     c34:	00 34 00             	add    %dh,(%eax,%eax,1)
     c37:	00 00                	add    %al,(%eax)
     c39:	d6                   	(bad)  
     c3a:	01 00                	add    %eax,(%eax)
     c3c:	00 b6 00 00 00 9f    	add    %dh,-0x61000000(%esi)
     c42:	00 00                	add    %al,(%eax)
     c44:	00 94 01 00 00 3f 02 	add    %dl,0x23f0000(%ecx,%eax,1)
     c4b:	00 00                	add    %al,(%eax)
     c4d:	02 01                	add    (%ecx),%al
     c4f:	1f                   	pop    %ds
     c50:	02 0f                	add    (%edi),%cl
     c52:	0b 28                	or     (%eax),%ebp
     c54:	02 00                	add    (%eax),%al
     c56:	00 00                	add    %al,(%eax)
     c58:	2f                   	das    
     c59:	02 00                	add    (%eax),%al
     c5b:	00 01                	add    %al,(%ecx)
     c5d:	7d 00                	jge    c5f <start_-0xff3ad>
     c5f:	00 00                	add    %al,(%eax)
     c61:	02 ea                	add    %dl,%ch
     c63:	01 00                	add    %eax,(%eax)
     c65:	00 03                	add    %al,(%ebx)
     c67:	d5 00                	aad    $0x0
     c69:	00 00                	add    %al,(%eax)
     c6b:	04 4a                	add    $0x4a,%al
     c6d:	01 00                	add    %eax,(%eax)
     c6f:	00 02                	add    %al,(%edx)
     c71:	c9                   	leave  
     c72:	00 00                	add    %al,(%eax)
     c74:	00 05 51 02 00 00    	add    %al,0x251
     c7a:	04 12                	add    $0x12,%al
     c7c:	02 00                	add    (%eax),%al
     c7e:	00 04 f0             	add    %al,(%eax,%esi,8)
     c81:	01 00                	add    %eax,(%eax)
     c83:	00 06                	add    %al,(%esi)
     c85:	57                   	push   %edi
     c86:	02 00                	add    (%eax),%al
     c88:	00 07                	add    %al,(%edi)
     c8a:	05 01 00 05 02       	add    $0x2050001,%eax
     c8f:	45                   	inc    %ebp
     c90:	68 10 c0 03 15       	push   $0x1503c010
     c95:	01 05 05 4b 05 43    	add    %eax,0x43054b05
     c9b:	5a                   	pop    %edx
     c9c:	05 1d 74 05 1f       	add    $0x1f05741d,%eax
     ca1:	03 0b                	add    (%ebx),%ecx
     ca3:	4a                   	dec    %edx
     ca4:	05 16 74 05 05       	add    $0x5057416,%eax
     ca9:	58                   	pop    %eax
     caa:	e5 5c                	in     $0x5c,%eax
     cac:	f3 e6 05             	repz out %al,$0x5
     caf:	0e                   	push   %cs
     cb0:	f4                   	hlt    
     cb1:	05 12 73 05 05       	add    $0x5057312,%eax
     cb6:	f4                   	hlt    
     cb7:	05 17 08 ea 05       	add    $0x5ea0817,%eax
     cbc:	05 82 05 2a 59       	add    $0x592a0582,%eax
     cc1:	05 20 08 4a 05       	add    $0x54a0820,%eax
     cc6:	13 02                	adc    (%edx),%eax
     cc8:	29 16                	sub    %edx,(%esi)
     cca:	05 09 08 47 05       	add    $0x5470809,%eax
     ccf:	13 3e                	adc    (%esi),%edi
     cd1:	05 16 08 4a 05       	add    $0x54a0816,%eax
     cd6:	09 3a                	or     %edi,(%edx)
     cd8:	05 13 59 05 09       	add    $0x9055913,%eax
     cdd:	08 49 05             	or     %cl,0x5(%ecx)
     ce0:	11 08                	adc    %ecx,(%eax)
     ce2:	32 05 0c 4a 05 1f    	xor    0x1f054a0c,%al
     ce8:	92                   	xchg   %eax,%edx
     ce9:	05 22 08 4a 05       	add    $0x54a0822,%eax
     cee:	17                   	pop    %ss
     cef:	3c 05                	cmp    $0x5,%al
     cf1:	2e 91                	cs xchg %eax,%ecx
     cf3:	05 31 08 4a 05       	add    $0x54a0831,%eax
     cf8:	3a 3c 05 0d 58 08 3d 	cmp    0x3d08580d(,%eax,1),%bh
     cff:	05 17 ad 05 1a       	add    $0x1a05ad17,%eax
     d04:	08 4a 05             	or     %cl,0x5(%edx)
     d07:	0d 3b 05 2d 00       	or     $0x2d053b,%eax
     d0c:	02 04 02             	add    (%edx,%eax,1),%al
     d0f:	03 76 08             	add    0x8(%esi),%esi
     d12:	4a                   	dec    %edx
     d13:	05 20 00 02 04       	add    $0x4020020,%eax
     d18:	01 58 05             	add    %ebx,0x5(%eax)
     d1b:	31 03                	xor    %eax,(%ebx)
     d1d:	11 d6                	adc    %edx,%esi
     d1f:	05 0c 9e 05 1d       	add    $0x1d059e0c,%eax
     d24:	75 05                	jne    d2b <start_-0xff2e1>
     d26:	05 9e 08 2f 05       	add    $0x52f089e,%eax
     d2b:	0c 08                	or     $0x8,%al
     d2d:	3f                   	aas    
     d2e:	05 05 85 05 11       	add    $0x11058505,%eax
     d33:	08 3f                	or     %bh,(%edi)
     d35:	05 05 82 05 4a       	add    $0x4a058205,%eax
     d3a:	00 02                	add    %al,(%edx)
     d3c:	04 03                	add    $0x3,%al
     d3e:	30 05 45 00 02 04    	xor    %al,0x4020045
     d44:	03 74 05 09          	add    0x9(%ebp,%eax,1),%esi
     d48:	00 02                	add    %al,(%edx)
     d4a:	04 03                	add    $0x3,%al
     d4c:	58                   	pop    %eax
     d4d:	05 2c 00 02 04       	add    $0x402002c,%eax
     d52:	03 2e                	add    (%esi),%ebp
     d54:	05 27 00 02 04       	add    $0x4020027,%eax
     d59:	03 74 05 09          	add    0x9(%ebp,%eax,1),%esi
     d5d:	00 02                	add    %al,(%edx)
     d5f:	04 03                	add    $0x3,%al
     d61:	58                   	pop    %eax
     d62:	05 2a 00 02 04       	add    $0x402002a,%eax
     d67:	03 d4                	add    %esp,%edx
     d69:	05 1a 00 02 04       	add    $0x402001a,%eax
     d6e:	01 58 05             	add    %ebx,0x5(%eax)
     d71:	05 a4 f4 05 11       	add    $0x1105f4a4,%eax
     d76:	08 4d 05             	or     %cl,0x5(%ebp)
     d79:	05 82 05 2b 00       	add    $0x2b0582,%eax
     d7e:	02 04 03             	add    (%ebx,%eax,1),%al
     d81:	2f                   	das    
     d82:	05 26 00 02 04       	add    $0x4020026,%eax
     d87:	03 74 05 09          	add    0x9(%ebp,%eax,1),%esi
     d8b:	00 02                	add    %al,(%edx)
     d8d:	04 03                	add    $0x3,%al
     d8f:	58                   	pop    %eax
     d90:	05 33 00 02 04       	add    $0x4020033,%eax
     d95:	03 f1                	add    %ecx,%esi
     d97:	05 1a 00 02 04       	add    $0x402001a,%eax
     d9c:	01 58 05             	add    %ebx,0x5(%eax)
     d9f:	05 a1 08 92 05       	add    $0x59208a1,%eax
     da4:	01 f3                	add    %esi,%ebx
     da6:	05 15 69 05 05       	add    $0x5056915,%eax
     dab:	3d 05 21 f3 05       	cmp    $0x5f32105,%eax
     db0:	0c 58                	or     $0x58,%al
     db2:	05 05 75 05 11       	add    $0x11057505,%eax
     db7:	08 3f                	or     %bh,(%edi)
     db9:	05 05 82 05 1b       	add    $0x1b058205,%eax
     dbe:	00 02                	add    %al,(%edx)
     dc0:	04 03                	add    $0x3,%al
     dc2:	2f                   	das    
     dc3:	05 09 00 02 04       	add    $0x4020009,%eax
     dc8:	03 74 05 30          	add    0x30(%ebp,%eax,1),%esi
     dcc:	00 02                	add    %al,(%edx)
     dce:	04 03                	add    $0x3,%al
     dd0:	b9 05 1a 00 02       	mov    $0x2001a05,%ecx
     dd5:	04 01                	add    $0x1,%al
     dd7:	58                   	pop    %eax
     dd8:	05 05 a1 05 01       	add    $0x105a105,%eax
     ddd:	f3 05 25 5a 05 05    	repz add $0x5055a25,%eax
     de3:	69 05 19 f5 05 0f f2 	imul   $0x750505f2,0xf05f519,%eax
     dea:	05 05 75 
     ded:	05 01 08 ad 02       	add    $0x2ad0801,%eax
     df2:	08 00                	or     %al,(%eax)
     df4:	01 01                	add    %eax,(%ecx)
     df6:	58                   	pop    %eax
     df7:	01 00                	add    %eax,(%eax)
     df9:	00 05 00 04 00 4e    	add    %al,0x4e000400
     dff:	00 00                	add    %al,(%eax)
     e01:	00 01                	add    %al,(%ecx)
     e03:	01 01                	add    %eax,(%ecx)
     e05:	fb                   	sti    
     e06:	0e                   	push   %cs
     e07:	0d 00 01 01 01       	or     $0x1010100,%eax
     e0c:	01 00                	add    %eax,(%eax)
     e0e:	00 00                	add    %al,(%eax)
     e10:	01 00                	add    %eax,(%eax)
     e12:	00 01                	add    %al,(%ecx)
     e14:	01 01                	add    %eax,(%ecx)
     e16:	1f                   	pop    %ds
     e17:	05 0a 00 00 00       	add    $0xa,%eax
     e1c:	6e                   	outsb  %ds:(%esi),(%dx)
     e1d:	02 00                	add    (%eax),%al
     e1f:	00 34 00             	add    %dh,(%eax,%eax,1)
     e22:	00 00                	add    %al,(%eax)
     e24:	d6                   	(bad)  
     e25:	01 00                	add    %eax,(%eax)
     e27:	00 94 01 00 00 02 01 	add    %dl,0x1020000(%ecx,%eax,1)
     e2e:	1f                   	pop    %ds
     e2f:	02 0f                	add    (%edi),%cl
     e31:	06                   	push   %es
     e32:	5d                   	pop    %ebp
     e33:	02 00                	add    (%eax),%al
     e35:	00 00                	add    %al,(%eax)
     e37:	68 02 00 00 01       	push   $0x1000002
     e3c:	4a                   	dec    %edx
     e3d:	01 00                	add    %eax,(%eax)
     e3f:	00 02                	add    %al,(%edx)
     e41:	ea 01 00 00 03 7d 00 	ljmp   $0x7d,$0x3000001
     e48:	00 00                	add    %al,(%eax)
     e4a:	02 b4 01 00 00 04 05 	add    0x5040000(%ecx,%eax,1),%dh
     e51:	1e                   	push   %ds
     e52:	00 05 02 1f 6c 10    	add    %al,0x106c1f02
     e58:	c0 03 0f             	rolb   $0xf,(%ebx)
     e5b:	01 05 14 3d 05 05    	add    %eax,0x5053d14
     e61:	91                   	xchg   %eax,%ecx
     e62:	05 01 59 05 24       	add    $0x24055901,%eax
     e67:	5a                   	pop    %edx
     e68:	05 14 13 05 01       	add    $0x1051314,%eax
     e6d:	91                   	xchg   %eax,%ecx
     e6e:	32 05 1b 08 3d 05    	xor    0x53d081b,%al
     e74:	20 74 05 26          	and    %dh,0x26(%ebp,%eax,1)
     e78:	90                   	nop
     e79:	05 15 3c 05 01       	add    $0x1053c15,%eax
     e7e:	67 5c                	addr16 pop %esp
     e80:	05 05 bb 05 13       	add    $0x1305bb05,%eax
     e85:	08 a0 05 0d c9 05    	or     %ah,0x5c90d05(%eax)
     e8b:	12 30                	adc    (%eax),%dh
     e8d:	05 13 f5 05 0d       	add    $0xd05f513,%eax
     e92:	9f                   	lahf   
     e93:	05 4e 30 05 26       	add    $0x2605304e,%eax
     e98:	08 12                	or     %dl,(%edx)
     e9a:	05 4e 02 27 12       	add    $0x1227024e,%eax
     e9f:	05 3b 2e 05 12       	add    $0x12052e3b,%eax
     ea4:	3d 05 0d c9 05       	cmp    $0x5c90d05,%eax
     ea9:	0f 23 05             	mov    %ebp,%db0
     eac:	08 58 05             	or     %bl,0x5(%eax)
     eaf:	0f 59 05 0e 9f 05 0f 	mulps  0xf059f0e,%xmm0
     eb6:	f4                   	hlt    
     eb7:	05 08 74 05 09       	add    $0x9057408,%eax
     ebc:	67 05 01 5a 6a 05    	addr16 add $0x56a5a01,%eax
     ec2:	0b 3d 05 16 2f 05    	or     0x52f1605,%edi
     ec8:	09 74 05 0c          	or     %esi,0xc(%ebp,%eax,1)
     ecc:	e5 56                	in     $0x56,%eax
     ece:	05 11 74 05 01       	add    $0x1057411,%eax
     ed3:	4e                   	dec    %esi
     ed4:	6a 05                	push   $0x5
     ed6:	0c 3d                	or     $0x3d,%al
     ed8:	05 05 83 05 2b       	add    $0x2b058305,%eax
     edd:	ba 05 05 66 05       	mov    $0x5660505,%edx
     ee2:	11 08                	adc    %ecx,(%eax)
     ee4:	2f                   	das    
     ee5:	05 05 82 05 1e       	add    $0x1e058205,%eax
     eea:	00 02                	add    %al,(%edx)
     eec:	04 03                	add    $0x3,%al
     eee:	2f                   	das    
     eef:	05 2b 00 02 04       	add    $0x402002b,%eax
     ef4:	03 08                	add    (%eax),%ecx
     ef6:	3c 05                	cmp    $0x5,%al
     ef8:	28 00                	sub    %al,(%eax)
     efa:	02 04 03             	add    (%ebx,%eax,1),%al
     efd:	9d                   	popf   
     efe:	05 1a 00 02 04       	add    $0x402001a,%eax
     f03:	01 58 05             	add    %ebx,0x5(%eax)
     f06:	13 77 05             	adc    0x5(%edi),%esi
     f09:	0b 74 00 02          	or     0x2(%eax,%eax,1),%esi
     f0d:	04 01                	add    $0x1,%al
     f0f:	06                   	push   %es
     f10:	58                   	pop    %eax
     f11:	00 02                	add    %al,(%edx)
     f13:	04 02                	add    $0x2,%al
     f15:	74 00                	je     f17 <start_-0xff0f5>
     f17:	02 04 04             	add    (%esp,%eax,1),%al
     f1a:	58                   	pop    %eax
     f1b:	05 01 00 02 04       	add    $0x4020001,%eax
     f20:	04 06                	add    $0x6,%al
     f22:	67 5c                	addr16 pop %esp
     f24:	05 13 3d 05 05       	add    $0x5053d13,%eax
     f29:	82 05 1a 00 02 04 03 	addb   $0x3,0x402001a
     f30:	2f                   	das    
     f31:	05 1f 00 02 04       	add    $0x402001f,%eax
     f36:	03 d6                	add    %esi,%edx
     f38:	05 37 00 02 04       	add    $0x4020037,%eax
     f3d:	03 9d 05 1c 00 02    	add    0x2001c05(%ebp),%ebx
     f43:	04 01                	add    $0x1,%al
     f45:	58                   	pop    %eax
     f46:	05 0b a1 9f 05       	add    $0x59fa10b,%eax
     f4b:	01 91 02 05 00 01    	add    %edx,0x1000502(%ecx)
     f51:	01 8a 00 00 00 05    	add    %ecx,0x5000000(%edx)
     f57:	00 04 00             	add    %al,(%eax,%eax,1)
     f5a:	37                   	aaa    
     f5b:	00 00                	add    %al,(%eax)
     f5d:	00 01                	add    %al,(%ecx)
     f5f:	01 01                	add    %eax,(%ecx)
     f61:	fb                   	sti    
     f62:	0e                   	push   %cs
     f63:	0d 00 01 01 01       	or     $0x1010100,%eax
     f68:	01 00                	add    %eax,(%eax)
     f6a:	00 00                	add    %al,(%eax)
     f6c:	01 00                	add    %eax,(%eax)
     f6e:	00 01                	add    %al,(%ecx)
     f70:	01 01                	add    %eax,(%ecx)
     f72:	1f                   	pop    %ds
     f73:	03 0a                	add    (%edx),%ecx
     f75:	00 00                	add    %al,(%eax)
     f77:	00 8e 02 00 00 34    	add    %cl,0x34000002(%esi)
     f7d:	00 00                	add    %al,(%eax)
     f7f:	00 02                	add    %al,(%edx)
     f81:	01 1f                	add    %ebx,(%edi)
     f83:	02 0f                	add    (%edi),%cl
     f85:	03 79 02             	add    0x2(%ecx),%edi
     f88:	00 00                	add    %al,(%eax)
     f8a:	00 88 02 00 00 01    	add    %cl,0x1000002(%eax)
     f90:	7d 00                	jge    f92 <start_-0xff07a>
     f92:	00 00                	add    %al,(%eax)
     f94:	02 05 55 00 05 02    	add    0x2050055,%al
     f9a:	dc 6e 10             	fsubrl 0x10(%esi)
     f9d:	c0 1a 05             	rcrb   $0x5,(%edx)
     fa0:	13 4b 05             	adc    0x5(%ebx),%ecx
     fa3:	24 90                	and    $0x90,%al
     fa5:	05 2e 66 05 2c       	add    $0x2c05662e,%eax
     faa:	90                   	nop
     fab:	05 41 2e 05 3f       	add    $0x3f052e41,%eax
     fb0:	9e                   	sahf   
     fb1:	05 11 74 08 21       	add    $0x21087411,%eax
     fb6:	02 2b                	add    (%ebx),%ch
     fb8:	13 05 14 08 20 05    	adc    0x5200814,%eax
     fbe:	27                   	daa    
     fbf:	90                   	nop
     fc0:	05 25 74 05 11       	add    $0x11057425,%eax
     fc5:	74 05                	je     fcc <start_-0xff040>
     fc7:	01 08                	add    %ecx,(%eax)
     fc9:	c9                   	leave  
     fca:	05 15 68 05 05       	add    $0x5056815,%eax
     fcf:	3d f3 08 59 08       	cmp    $0x85908f3,%eax
     fd4:	59                   	pop    %ecx
     fd5:	08 59 05             	or     %bl,0x5(%ecx)
     fd8:	01 08                	add    %ecx,(%eax)
     fda:	59                   	pop    %ecx
     fdb:	02 05 00 01 01 6e    	add    0x6e010100,%al
     fe1:	00 00                	add    %al,(%eax)
     fe3:	00 05 00 04 00 40    	add    %al,0x40000400
     fe9:	00 00                	add    %al,(%eax)
     feb:	00 01                	add    %al,(%ecx)
     fed:	01 01                	add    %eax,(%ecx)
     fef:	fb                   	sti    
     ff0:	0e                   	push   %cs
     ff1:	0d 00 01 01 01       	or     $0x1010100,%eax
     ff6:	01 00                	add    %eax,(%eax)
     ff8:	00 00                	add    %al,(%eax)
     ffa:	01 00                	add    %eax,(%eax)
     ffc:	00 01                	add    %al,(%ecx)
     ffe:	01 01                	add    %eax,(%ecx)
    1000:	1f                   	pop    %ds
    1001:	04 0a                	add    $0xa,%al
    1003:	00 00                	add    %al,(%eax)
    1005:	00 8e 02 00 00 3f    	add    %cl,0x3f000002(%esi)
    100b:	02 00                	add    (%eax),%al
    100d:	00 d6                	add    %dl,%dh
    100f:	01 00                	add    %eax,(%eax)
    1011:	00 02                	add    %al,(%edx)
    1013:	01 1f                	add    %ebx,(%edi)
    1015:	02 0f                	add    (%edi),%cl
    1017:	04 9d                	add    $0x9d,%al
    1019:	02 00                	add    (%eax),%al
    101b:	00 00                	add    %al,(%eax)
    101d:	ac                   	lods   %ds:(%esi),%al
    101e:	02 00                	add    (%eax),%al
    1020:	00 01                	add    %al,(%ecx)
    1022:	b9 02 00 00 02       	mov    $0x2000002,%ecx
    1027:	ea 01 00 00 03 05 21 	ljmp   $0x2105,$0x3000001
    102e:	00 05 02 05 70 10    	add    %al,0x10700502
    1034:	c0 15 05 05 3d 59 05 	rclb   $0x5,0x593d0505
    103b:	01 f3                	add    %esi,%ebx
    103d:	05 2d 5a 05 12       	add    $0x12055a2d,%eax
    1042:	3d 05 05 66 05       	cmp    $0x5660505,%eax
    1047:	09 4c e5 05          	or     %ecx,0x5(%ebp,%eiz,8)
    104b:	01 22                	add    %esp,(%edx)
    104d:	02 05 00 01 01 89    	add    0x89010100,%al
    1053:	00 00                	add    %al,(%eax)
    1055:	00 05 00 04 00 40    	add    %al,0x40000400
    105b:	00 00                	add    %al,(%eax)
    105d:	00 01                	add    %al,(%ecx)
    105f:	01 01                	add    %eax,(%ecx)
    1061:	fb                   	sti    
    1062:	0e                   	push   %cs
    1063:	0d 00 01 01 01       	or     $0x1010100,%eax
    1068:	01 00                	add    %eax,(%eax)
    106a:	00 00                	add    %al,(%eax)
    106c:	01 00                	add    %eax,(%eax)
    106e:	00 01                	add    %al,(%ecx)
    1070:	01 01                	add    %eax,(%ecx)
    1072:	1f                   	pop    %ds
    1073:	04 0a                	add    $0xa,%al
    1075:	00 00                	add    %al,(%eax)
    1077:	00 8e 02 00 00 34    	add    %cl,0x34000002(%esi)
    107d:	00 00                	add    %al,(%eax)
    107f:	00 3f                	add    %bh,(%edi)
    1081:	02 00                	add    (%eax),%al
    1083:	00 02                	add    %al,(%edx)
    1085:	01 1f                	add    %ebx,(%edi)
    1087:	02 0f                	add    (%edi),%cl
    1089:	04 c6                	add    $0xc6,%al
    108b:	02 00                	add    (%eax),%al
    108d:	00 00                	add    %al,(%eax)
    108f:	d5 02                	aad    $0x2
    1091:	00 00                	add    %al,(%eax)
    1093:	01 7d 00             	add    %edi,0x0(%ebp)
    1096:	00 00                	add    %al,(%eax)
    1098:	02 b9 02 00 00 03    	add    0x3000002(%ecx),%bh
    109e:	05 5a 00 05 02       	add    $0x205005a,%eax
    10a3:	44                   	inc    %esp
    10a4:	70 10                	jo     10b6 <start_-0xfef56>
    10a6:	c0 03 0a             	rolb   $0xa,(%ebx)
    10a9:	01 05 0f 08 83 05    	add    %eax,0x583080f
    10af:	1c 83                	sbb    $0x83,%al
    10b1:	05 2c 9e 05 2a       	add    $0x2a059e2c,%eax
    10b6:	74 05                	je     10bd <start_-0xfef4f>
    10b8:	12 e4                	adc    %ah,%ah
    10ba:	08 21                	or     %ah,(%ecx)
    10bc:	02 2b                	add    (%ebx),%ch
    10be:	13 05 22 08 20 05    	adc    0x5200822,%eax
    10c4:	32 9e 05 28 74 05    	xor    0x5742805(%esi),%bl
    10ca:	12 74 05 01          	adc    0x1(%ebp,%eax,1),%dh
    10ce:	08 c9                	or     %cl,%cl
    10d0:	05 15 92 05 05       	add    $0x5059215,%eax
    10d5:	3d 05 01 08 2f       	cmp    $0x2f080105,%eax
    10da:	02                   	.byte 0x2
    10db:	05                   	.byte 0x5
    10dc:	00 01                	add    %al,(%ecx)
    10de:	01                   	.byte 0x1

Disassembly of section .debug_str:

00000000 <.debug_str>:
   0:	72 65                	jb     67 <start_-0xfffa5>
   2:	67 33 32             	xor    (%bp,%si),%esi
   5:	00 63 70             	add    %ah,0x70(%ebx)
   8:	75 5f                	jne    69 <start_-0xfffa3>
   a:	67 65 74 5f          	addr16 gs je 6d <start_-0xfff9f>
   e:	6d                   	insl   (%dx),%es:(%edi)
   f:	6f                   	outsl  %ds:(%esi),(%dx)
  10:	64 65 6c             	fs gs insb (%dx),%es:(%edi)
  13:	00 47 4e             	add    %al,0x4e(%edi)
  16:	55                   	push   %ebp
  17:	20 43 39             	and    %al,0x39(%ebx)
  1a:	39 20                	cmp    %esp,(%eax)
  1c:	31 31                	xor    %esi,(%ecx)
  1e:	2e 32 2e             	xor    %cs:(%esi),%ch
  21:	30 20                	xor    %ah,(%eax)
  23:	2d 6d 74 75 6e       	sub    $0x6e75746d,%eax
  28:	65 3d 67 65 6e 65    	gs cmp $0x656e6567,%eax
  2e:	72 69                	jb     99 <start_-0xfff73>
  30:	63 20                	arpl   %sp,(%eax)
  32:	2d 6d 61 72 63       	sub    $0x6372616d,%eax
  37:	68 3d 70 65 6e       	push   $0x6e65703d
  3c:	74 69                	je     a7 <start_-0xfff65>
  3e:	75 6d                	jne    ad <start_-0xfff5f>
  40:	70 72                	jo     b4 <start_-0xfff58>
  42:	6f                   	outsl  %ds:(%esi),(%dx)
  43:	20 2d 67 20 2d 4f    	and    %ch,0x4f2d2067
  49:	30 20                	xor    %ah,(%eax)
  4b:	2d 73 74 64 3d       	sub    $0x3d647473,%eax
  50:	67 6e                	outsb  %ds:(%si),(%dx)
  52:	75 39                	jne    8d <start_-0xfff7f>
  54:	39 20                	cmp    %esp,(%eax)
  56:	2d 66 66 72 65       	sub    $0x65726666,%eax
  5b:	65 73 74             	gs jae d2 <start_-0xfff3a>
  5e:	61                   	popa   
  5f:	6e                   	outsb  %ds:(%esi),(%dx)
  60:	64 69 6e 67 20 2d 66 	imul   $0x6f662d20,%fs:0x67(%esi),%ebp
  67:	6f 
  68:	6d                   	insl   (%dx),%es:(%edi)
  69:	69 74 2d 66 72 61 6d 	imul   $0x656d6172,0x66(%ebp,%ebp,1),%esi
  70:	65 
  71:	2d 70 6f 69 6e       	sub    $0x6e696f70,%eax
  76:	74 65                	je     dd <start_-0xfff2f>
  78:	72 00                	jb     7a <start_-0xfff92>
  7a:	75 6e                	jne    ea <start_-0xfff22>
  7c:	73 69                	jae    e7 <start_-0xfff25>
  7e:	67 6e                	outsb  %ds:(%si),(%dx)
  80:	65 64 20 63 68       	gs and %ah,%fs:0x68(%ebx)
  85:	61                   	popa   
  86:	72 00                	jb     88 <start_-0xfff84>
  88:	73 68                	jae    f2 <start_-0xfff1a>
  8a:	6f                   	outsl  %ds:(%esi),(%dx)
  8b:	72 74                	jb     101 <start_-0xfff0b>
  8d:	20 75 6e             	and    %dh,0x6e(%ebp)
  90:	73 69                	jae    fb <start_-0xfff11>
  92:	67 6e                	outsb  %ds:(%si),(%dx)
  94:	65 64 20 69 6e       	gs and %ch,%fs:0x6e(%ecx)
  99:	74 00                	je     9b <start_-0xfff71>
  9b:	6d                   	insl   (%dx),%es:(%edi)
  9c:	6f                   	outsl  %ds:(%esi),(%dx)
  9d:	64 6f                	outsl  %fs:(%esi),(%dx)
  9f:	6c                   	insb   (%dx),%es:(%edi)
  a0:	5f                   	pop    %edi
  a1:	6f                   	outsl  %ds:(%esi),(%dx)
  a2:	75 74                	jne    118 <start_-0xffef4>
  a4:	00 6c 6f 6e          	add    %ch,0x6e(%edi,%ebp,2)
  a8:	67 20 6c 6f          	and    %ch,0x6f(%si)
  ac:	6e                   	outsb  %ds:(%esi),(%dx)
  ad:	67 20 75 6e          	and    %dh,0x6e(%di)
  b1:	73 69                	jae    11c <start_-0xffef0>
  b3:	67 6e                	outsb  %ds:(%si),(%dx)
  b5:	65 64 20 69 6e       	gs and %ch,%fs:0x6e(%ecx)
  ba:	74 00                	je     bc <start_-0xfff50>
  bc:	6c                   	insb   (%dx),%es:(%edi)
  bd:	6f                   	outsl  %ds:(%esi),(%dx)
  be:	6e                   	outsb  %ds:(%esi),(%dx)
  bf:	67 20 6c 6f          	and    %ch,0x6f(%si)
  c3:	6e                   	outsb  %ds:(%esi),(%dx)
  c4:	67 20 69 6e          	and    %ch,0x6e(%bx,%di)
  c8:	74 00                	je     ca <start_-0xfff42>
  ca:	73 68                	jae    134 <start_-0xffed8>
  cc:	6f                   	outsl  %ds:(%esi),(%dx)
  cd:	72 74                	jb     143 <start_-0xffec9>
  cf:	20 69 6e             	and    %ch,0x6e(%ecx)
  d2:	74 00                	je     d4 <start_-0xfff38>
  d4:	66 72 61             	data16 jb 138 <start_-0xffed4>
  d7:	6d                   	insl   (%dx),%es:(%edi)
  d8:	65 62 75 66          	bound  %esi,%gs:0x66(%ebp)
  dc:	66 65 72 5f          	data16 gs jb 13f <start_-0xffecd>
  e0:	62 6c 75 65          	bound  %ebp,0x65(%ebp,%esi,2)
  e4:	5f                   	pop    %edi
  e5:	6d                   	insl   (%dx),%es:(%edi)
  e6:	61                   	popa   
  e7:	73 6b                	jae    154 <start_-0xffeb8>
  e9:	5f                   	pop    %edi
  ea:	73 69                	jae    155 <start_-0xffeb7>
  ec:	7a 65                	jp     153 <start_-0xffeb9>
  ee:	00 66 72             	add    %ah,0x72(%esi)
  f1:	61                   	popa   
  f2:	6d                   	insl   (%dx),%es:(%edi)
  f3:	65 62 75 66          	bound  %esi,%gs:0x66(%ebp)
  f7:	66 65 72 5f          	data16 gs jb 15a <start_-0xffeb2>
  fb:	61                   	popa   
  fc:	64 64 72 00          	fs fs jb 100 <start_-0xfff0c>
 100:	6d                   	insl   (%dx),%es:(%edi)
 101:	75 6c                	jne    16f <start_-0xffe9d>
 103:	74 69                	je     16e <start_-0xffe9e>
 105:	62 6f 6f             	bound  %ebp,0x6f(%edi)
 108:	74 5f                	je     169 <start_-0xffea3>
 10a:	73 79                	jae    185 <start_-0xffe87>
 10c:	6d                   	insl   (%dx),%es:(%edi)
 10d:	62 6f 6c             	bound  %ebp,0x6c(%edi)
 110:	5f                   	pop    %edi
 111:	74 61                	je     174 <start_-0xffe98>
 113:	62 6c 65 00          	bound  %ebp,0x0(%ebp,%eiz,2)
 117:	66 72 61             	data16 jb 17b <start_-0xffe91>
 11a:	6d                   	insl   (%dx),%es:(%edi)
 11b:	65 62 75 66          	bound  %esi,%gs:0x66(%ebp)
 11f:	66 65 72 5f          	data16 gs jb 182 <start_-0xffe8a>
 123:	67 72 65             	addr16 jb 18b <start_-0xffe81>
 126:	65 6e                	outsb  %gs:(%esi),(%dx)
 128:	5f                   	pop    %edi
 129:	66 69 65 6c 64 5f    	imul   $0x5f64,0x6c(%ebp),%sp
 12f:	70 6f                	jo     1a0 <start_-0xffe6c>
 131:	73 69                	jae    19c <start_-0xffe70>
 133:	74 69                	je     19e <start_-0xffe6e>
 135:	6f                   	outsl  %ds:(%esi),(%dx)
 136:	6e                   	outsb  %ds:(%esi),(%dx)
 137:	00 6d 75             	add    %ch,0x75(%ebp)
 13a:	6c                   	insb   (%dx),%es:(%edi)
 13b:	74 69                	je     1a6 <start_-0xffe66>
 13d:	62 6f 6f             	bound  %ebp,0x6f(%edi)
 140:	74 5f                	je     1a1 <start_-0xffe6b>
 142:	75 69                	jne    1ad <start_-0xffe5f>
 144:	6e                   	outsb  %ds:(%esi),(%dx)
 145:	74 33                	je     17a <start_-0xffe92>
 147:	32 5f 74             	xor    0x74(%edi),%bl
 14a:	00 6d 75             	add    %ch,0x75(%ebp)
 14d:	6c                   	insb   (%dx),%es:(%edi)
 14e:	74 69                	je     1b9 <start_-0xffe53>
 150:	62 6f 6f             	bound  %ebp,0x6f(%edi)
 153:	74 5f                	je     1b4 <start_-0xffe58>
 155:	75 69                	jne    1c0 <start_-0xffe4c>
 157:	6e                   	outsb  %ds:(%esi),(%dx)
 158:	74 31                	je     18b <start_-0xffe81>
 15a:	36 5f                	ss pop %edi
 15c:	74 00                	je     15e <start_-0xffeae>
 15e:	66 72 61             	data16 jb 1c2 <start_-0xffe4a>
 161:	6d                   	insl   (%dx),%es:(%edi)
 162:	65 62 75 66          	bound  %esi,%gs:0x66(%ebp)
 166:	66 65 72 5f          	data16 gs jb 1c9 <start_-0xffe43>
 16a:	72 65                	jb     1d1 <start_-0xffe3b>
 16c:	64 5f                	fs pop %edi
 16e:	66 69 65 6c 64 5f    	imul   $0x5f64,0x6c(%ebp),%sp
 174:	70 6f                	jo     1e5 <start_-0xffe27>
 176:	73 69                	jae    1e1 <start_-0xffe2b>
 178:	74 69                	je     1e3 <start_-0xffe29>
 17a:	6f                   	outsl  %ds:(%esi),(%dx)
 17b:	6e                   	outsb  %ds:(%esi),(%dx)
 17c:	00 64 72 69          	add    %ah,0x69(%edx,%esi,2)
 180:	76 65                	jbe    1e7 <start_-0xffe25>
 182:	73 5f                	jae    1e3 <start_-0xffe29>
 184:	61                   	popa   
 185:	64 64 72 00          	fs fs jb 189 <start_-0xffe83>
 189:	63 6d 64             	arpl   %bp,0x64(%ebp)
 18c:	6c                   	insb   (%dx),%es:(%edi)
 18d:	69 6e 65 00 6b 65 72 	imul   $0x72656b00,0x65(%esi),%ebp
 194:	6e                   	outsb  %ds:(%esi),(%dx)
 195:	65 6c                	gs insb (%dx),%es:(%edi)
 197:	5f                   	pop    %edi
 198:	70 74                	jo     20e <start_-0xffdfe>
 19a:	65 5f                	gs pop %edi
 19c:	69 6e 64 65 78 00 61 	imul   $0x61007865,0x64(%esi),%ebp
 1a3:	6f                   	outsl  %ds:(%esi),(%dx)
 1a4:	75 74                	jne    21a <start_-0xffdf2>
 1a6:	5f                   	pop    %edi
 1a7:	73 79                	jae    222 <start_-0xffdea>
 1a9:	6d                   	insl   (%dx),%es:(%edi)
 1aa:	00 6d 6f             	add    %ch,0x6f(%ebp)
 1ad:	64 73 5f             	fs jae 20f <start_-0xffdfd>
 1b0:	61                   	popa   
 1b1:	64 64 72 00          	fs fs jb 1b5 <start_-0xffe57>
 1b5:	5f                   	pop    %edi
 1b6:	5f                   	pop    %edi
 1b7:	6b 65 72 6e          	imul   $0x6e,0x72(%ebp),%esp
 1bb:	65 6c                	gs insb (%dx),%es:(%edi)
 1bd:	5f                   	pop    %edi
 1be:	65 6e                	outsb  %gs:(%esi),(%dx)
 1c0:	64 00 73 74          	add    %dh,%fs:0x74(%ebx)
 1c4:	72 73                	jb     239 <start_-0xffdd3>
 1c6:	69 7a 65 00 75 69 6e 	imul   $0x6e697500,0x65(%edx),%edi
 1cd:	74 70                	je     23f <start_-0xffdcd>
 1cf:	74 72                	je     243 <start_-0xffdc9>
 1d1:	5f                   	pop    %edi
 1d2:	74 00                	je     1d4 <start_-0xffe38>
 1d4:	5f                   	pop    %edi
 1d5:	68 68 6b 5f 69       	push   $0x695f6b68
 1da:	6e                   	outsb  %ds:(%esi),(%dx)
 1db:	69 74 00 6d 75 6c 74 	imul   $0x69746c75,0x6d(%eax,%eax,1),%esi
 1e2:	69 
 1e3:	62 6f 6f             	bound  %ebp,0x6f(%edi)
 1e6:	74 5f                	je     247 <start_-0xffdc5>
 1e8:	65 6c                	gs insb (%dx),%es:(%edi)
 1ea:	66 5f                	pop    %di
 1ec:	73 65                	jae    253 <start_-0xffdb9>
 1ee:	63 74 69 6f          	arpl   %si,0x6f(%ecx,%ebp,2)
 1f2:	6e                   	outsb  %ds:(%esi),(%dx)
 1f3:	5f                   	pop    %edi
 1f4:	68 65 61 64 65       	push   $0x65646165
 1f9:	72 5f                	jb     25a <start_-0xffdb2>
 1fb:	74 61                	je     25e <start_-0xffdae>
 1fd:	62 6c 65 5f          	bound  %ebp,0x5f(%ebp,%eiz,2)
 201:	74 00                	je     203 <start_-0xffe09>
 203:	73 68                	jae    26d <start_-0xffd9f>
 205:	6e                   	outsb  %ds:(%esi),(%dx)
 206:	64 78 00             	fs js  209 <start_-0xffe03>
 209:	61                   	popa   
 20a:	70 6d                	jo     279 <start_-0xffd93>
 20c:	5f                   	pop    %edi
 20d:	74 61                	je     270 <start_-0xffd9c>
 20f:	62 6c 65 00          	bound  %ebp,0x0(%ebp,%eiz,2)
 213:	66 72 61             	data16 jb 277 <start_-0xffd95>
 216:	6d                   	insl   (%dx),%es:(%edi)
 217:	65 62 75 66          	bound  %esi,%gs:0x66(%ebp)
 21b:	66 65 72 5f          	data16 gs jb 27e <start_-0xffd8e>
 21f:	62 70 70             	bound  %esi,0x70(%eax)
 222:	00 66 72             	add    %ah,0x72(%esi)
 225:	61                   	popa   
 226:	6d                   	insl   (%dx),%es:(%edi)
 227:	65 62 75 66          	bound  %esi,%gs:0x66(%ebp)
 22b:	66 65 72 5f          	data16 gs jb 28e <start_-0xffd7e>
 22f:	70 61                	jo     292 <start_-0xffd7a>
 231:	6c                   	insb   (%dx),%es:(%edi)
 232:	65 74 74             	gs je  2a9 <start_-0xffd63>
 235:	65 5f                	gs pop %edi
 237:	6e                   	outsb  %ds:(%esi),(%dx)
 238:	75 6d                	jne    2a7 <start_-0xffd65>
 23a:	5f                   	pop    %edi
 23b:	63 6f 6c             	arpl   %bp,0x6c(%edi)
 23e:	6f                   	outsl  %ds:(%esi),(%dx)
 23f:	72 73                	jb     2b4 <start_-0xffd58>
 241:	00 62 6f             	add    %ah,0x6f(%edx)
 244:	6f                   	outsl  %ds:(%esi),(%dx)
 245:	74 5f                	je     2a6 <start_-0xffd66>
 247:	64 65 76 69          	fs gs jbe 2b4 <start_-0xffd58>
 24b:	63 65 00             	arpl   %sp,0x0(%ebp)
 24e:	5f                   	pop    %edi
 24f:	69 6e 69 74 5f 70 61 	imul   $0x61705f74,0x69(%esi),%ebp
 256:	67 65 00 62 6f       	add    %ah,%gs:0x6f(%bp,%si)
 25b:	6f                   	outsl  %ds:(%esi),(%dx)
 25c:	74 5f                	je     2bd <start_-0xffd4f>
 25e:	6c                   	insb   (%dx),%es:(%edi)
 25f:	6f                   	outsl  %ds:(%esi),(%dx)
 260:	61                   	popa   
 261:	64 65 72 5f          	fs gs jb 2c4 <start_-0xffd48>
 265:	6e                   	outsb  %ds:(%esi),(%dx)
 266:	61                   	popa   
 267:	6d                   	insl   (%dx),%es:(%edi)
 268:	65 00 70 74          	add    %dh,%gs:0x74(%eax)
 26c:	64 5f                	fs pop %edi
 26e:	74 00                	je     270 <start_-0xffd9c>
 270:	6b 70 67 5f          	imul   $0x5f,0x67(%eax),%esi
 274:	73 69                	jae    2df <start_-0xffd2d>
 276:	7a 65                	jp     2dd <start_-0xffd2f>
 278:	00 5f 5f             	add    %bl,0x5f(%edi)
 27b:	6b 65 72 6e          	imul   $0x6e,0x72(%ebp),%esp
 27f:	65 6c                	gs insb (%dx),%es:(%edi)
 281:	5f                   	pop    %edi
 282:	73 74                	jae    2f8 <start_-0xffd14>
 284:	61                   	popa   
 285:	72 74                	jb     2fb <start_-0xffd11>
 287:	00 6d 6d             	add    %ch,0x6d(%ebp)
 28a:	61                   	popa   
 28b:	70 5f                	jo     2ec <start_-0xffd20>
 28d:	61                   	popa   
 28e:	64 64 72 00          	fs fs jb 292 <start_-0xffd7a>
 292:	5f                   	pop    %edi
 293:	5f                   	pop    %edi
 294:	69 6e 69 74 5f 68 68 	imul   $0x68685f74,0x69(%esi),%ebp
 29b:	6b 5f 65 6e          	imul   $0x6e,0x65(%edi),%ebx
 29f:	64 00 76 62          	add    %dh,%fs:0x62(%esi)
 2a3:	65 5f                	gs pop %edi
 2a5:	63 6f 6e             	arpl   %bp,0x6e(%edi)
 2a8:	74 72                	je     31c <start_-0xffcf0>
 2aa:	6f                   	outsl  %ds:(%esi),(%dx)
 2ab:	6c                   	insb   (%dx),%es:(%edi)
 2ac:	5f                   	pop    %edi
 2ad:	69 6e 66 6f 00 65 6c 	imul   $0x6c65006f,0x66(%esi),%ebp
 2b4:	66 5f                	pop    %di
 2b6:	73 65                	jae    31d <start_-0xffcef>
 2b8:	63 00                	arpl   %ax,(%eax)
 2ba:	6d                   	insl   (%dx),%es:(%edi)
 2bb:	65 6d                	gs insl (%dx),%es:(%edi)
 2bd:	5f                   	pop    %edi
 2be:	6c                   	insb   (%dx),%es:(%edi)
 2bf:	6f                   	outsl  %ds:(%esi),(%dx)
 2c0:	77 65                	ja     327 <start_-0xffce5>
 2c2:	72 00                	jb     2c4 <start_-0xffd48>
 2c4:	76 62                	jbe    328 <start_-0xffce4>
 2c6:	65 5f                	gs pop %edi
 2c8:	69 6e 74 65 72 66 61 	imul   $0x61667265,0x74(%esi),%ebp
 2cf:	63 65 5f             	arpl   %sp,0x5f(%ebp)
 2d2:	6f                   	outsl  %ds:(%esi),(%dx)
 2d3:	66 66 00 76 62       	data16 data16 add %dh,0x62(%esi)
 2d8:	65 5f                	gs pop %edi
 2da:	6d                   	insl   (%dx),%es:(%edi)
 2db:	6f                   	outsl  %ds:(%esi),(%dx)
 2dc:	64 65 00 66 72       	fs add %ah,%gs:0x72(%esi)
 2e1:	61                   	popa   
 2e2:	6d                   	insl   (%dx),%es:(%edi)
 2e3:	65 62 75 66          	bound  %esi,%gs:0x66(%ebp)
 2e7:	66 65 72 5f          	data16 gs jb 34a <start_-0xffcc2>
 2eb:	77 69                	ja     356 <start_-0xffcb6>
 2ed:	64 74 68             	fs je  358 <start_-0xffcb4>
 2f0:	00 6d 6d             	add    %ch,0x6d(%ebp)
 2f3:	61                   	popa   
 2f4:	70 5f                	jo     355 <start_-0xffcb7>
 2f6:	6c                   	insb   (%dx),%es:(%edi)
 2f7:	65 6e                	outsb  %gs:(%esi),(%dx)
 2f9:	67 74 68             	addr16 je 364 <start_-0xffca8>
 2fc:	00 63 75             	add    %ah,0x75(%ebx)
 2ff:	72 72                	jb     373 <start_-0xffc99>
 301:	65 6e                	outsb  %gs:(%esi),(%dx)
 303:	74 00                	je     305 <start_-0xffd07>
 305:	5f                   	pop    %edi
 306:	73 61                	jae    369 <start_-0xffca3>
 308:	76 65                	jbe    36f <start_-0xffc9d>
 30a:	5f                   	pop    %edi
 30b:	6d                   	insl   (%dx),%es:(%edi)
 30c:	75 6c                	jne    37a <start_-0xffc92>
 30e:	74 69                	je     379 <start_-0xffc93>
 310:	62 6f 6f             	bound  %ebp,0x6f(%edi)
 313:	74 5f                	je     374 <start_-0xffc98>
 315:	69 6e 66 6f 00 6d 75 	imul   $0x756d006f,0x66(%esi),%ebp
 31c:	6c                   	insb   (%dx),%es:(%edi)
 31d:	74 69                	je     388 <start_-0xffc84>
 31f:	62 6f 6f             	bound  %ebp,0x6f(%edi)
 322:	74 5f                	je     383 <start_-0xffc89>
 324:	75 69                	jne    38f <start_-0xffc7d>
 326:	6e                   	outsb  %ds:(%esi),(%dx)
 327:	74 36                	je     35f <start_-0xffcad>
 329:	34 5f                	xor    $0x5f,%al
 32b:	74 00                	je     32d <start_-0xffcdf>
 32d:	6b 65 72 6e          	imul   $0x6e,0x72(%ebp),%esp
 331:	65 6c                	gs insb (%dx),%es:(%edi)
 333:	5f                   	pop    %edi
 334:	70 67                	jo     39d <start_-0xffc6f>
 336:	5f                   	pop    %edi
 337:	63 6f 75             	arpl   %bp,0x75(%edi)
 33a:	6e                   	outsb  %ds:(%esi),(%dx)
 33b:	74 73                	je     3b0 <start_-0xffc5c>
 33d:	00 66 72             	add    %ah,0x72(%esi)
 340:	61                   	popa   
 341:	6d                   	insl   (%dx),%es:(%edi)
 342:	65 62 75 66          	bound  %esi,%gs:0x66(%ebp)
 346:	66 65 72 5f          	data16 gs jb 3a9 <start_-0xffc63>
 34a:	62 6c 75 65          	bound  %ebp,0x65(%ebp,%esi,2)
 34e:	5f                   	pop    %edi
 34f:	66 69 65 6c 64 5f    	imul   $0x5f64,0x6c(%ebp),%sp
 355:	70 6f                	jo     3c6 <start_-0xffc46>
 357:	73 69                	jae    3c2 <start_-0xffc4a>
 359:	74 69                	je     3c4 <start_-0xffc48>
 35b:	6f                   	outsl  %ds:(%esi),(%dx)
 35c:	6e                   	outsb  %ds:(%esi),(%dx)
 35d:	00 6b 65             	add    %ch,0x65(%ebx)
 360:	72 6e                	jb     3d0 <start_-0xffc3c>
 362:	65 6c                	gs insb (%dx),%es:(%edi)
 364:	5f                   	pop    %edi
 365:	70 6d                	jo     3d4 <start_-0xffc38>
 367:	00 6d 75             	add    %ch,0x75(%ebp)
 36a:	6c                   	insb   (%dx),%es:(%edi)
 36b:	74 69                	je     3d6 <start_-0xffc36>
 36d:	62 6f 6f             	bound  %ebp,0x6f(%edi)
 370:	74 5f                	je     3d1 <start_-0xffc3b>
 372:	65 6c                	gs insb (%dx),%es:(%edi)
 374:	66 5f                	pop    %di
 376:	73 65                	jae    3dd <start_-0xffc2f>
 378:	63 74 69 6f          	arpl   %si,0x6f(%ecx,%ebp,2)
 37c:	6e                   	outsb  %ds:(%esi),(%dx)
 37d:	5f                   	pop    %edi
 37e:	68 65 61 64 65       	push   $0x65646165
 383:	72 5f                	jb     3e4 <start_-0xffc28>
 385:	74 61                	je     3e8 <start_-0xffc24>
 387:	62 6c 65 00          	bound  %ebp,0x0(%ebp,%eiz,2)
 38b:	66 72 61             	data16 jb 3ef <start_-0xffc1d>
 38e:	6d                   	insl   (%dx),%es:(%edi)
 38f:	65 62 75 66          	bound  %esi,%gs:0x66(%ebp)
 393:	66 65 72 5f          	data16 gs jb 3f6 <start_-0xffc16>
 397:	70 69                	jo     402 <start_-0xffc0a>
 399:	74 63                	je     3fe <start_-0xffc0e>
 39b:	68 00 66 72 61       	push   $0x61726600
 3a0:	6d                   	insl   (%dx),%es:(%edi)
 3a1:	65 62 75 66          	bound  %esi,%gs:0x66(%ebp)
 3a5:	66 65 72 5f          	data16 gs jb 408 <start_-0xffc04>
 3a9:	74 79                	je     424 <start_-0xffbe8>
 3ab:	70 65                	jo     412 <start_-0xffbfa>
 3ad:	00 6d 65             	add    %ch,0x65(%ebp)
 3b0:	6d                   	insl   (%dx),%es:(%edi)
 3b1:	5f                   	pop    %edi
 3b2:	75 70                	jne    424 <start_-0xffbe8>
 3b4:	70 65                	jo     41b <start_-0xffbf1>
 3b6:	72 00                	jb     3b8 <start_-0xffc54>
 3b8:	69 6e 66 6f 5f 62 00 	imul   $0x625f6f,0x66(%esi),%ebp
 3bf:	64 65 73 74          	fs gs jae 437 <start_-0xffbd5>
 3c3:	69 6e 61 74 69 6f 6e 	imul   $0x6e6f6974,0x61(%esi),%ebp
 3ca:	00 76 62             	add    %dh,0x62(%esi)
 3cd:	65 5f                	gs pop %edi
 3cf:	6d                   	insl   (%dx),%es:(%edi)
 3d0:	6f                   	outsl  %ds:(%esi),(%dx)
 3d1:	64 65 5f             	fs gs pop %edi
 3d4:	69 6e 66 6f 00 74 61 	imul   $0x6174006f,0x66(%esi),%ebp
 3db:	62 73 69             	bound  %esi,0x69(%ebx)
 3de:	7a 65                	jp     445 <start_-0xffbc7>
 3e0:	00 6b 65             	add    %ch,0x65(%ebx)
 3e3:	72 6e                	jb     453 <start_-0xffbb9>
 3e5:	65 6c                	gs insb (%dx),%es:(%edi)
 3e7:	5f                   	pop    %edi
 3e8:	70 64                	jo     44e <start_-0xffbbe>
 3ea:	65 5f                	gs pop %edi
 3ec:	69 6e 64 65 78 00 66 	imul   $0x66007865,0x64(%esi),%ebp
 3f3:	72 61                	jb     456 <start_-0xffbb6>
 3f5:	6d                   	insl   (%dx),%es:(%edi)
 3f6:	65 62 75 66          	bound  %esi,%gs:0x66(%ebp)
 3fa:	66 65 72 5f          	data16 gs jb 45d <start_-0xffbaf>
 3fe:	72 65                	jb     465 <start_-0xffba7>
 400:	64 5f                	fs pop %edi
 402:	6d                   	insl   (%dx),%es:(%edi)
 403:	61                   	popa   
 404:	73 6b                	jae    471 <start_-0xffb9b>
 406:	5f                   	pop    %edi
 407:	73 69                	jae    472 <start_-0xffb9a>
 409:	7a 65                	jp     470 <start_-0xffb9c>
 40b:	00 64 72 69          	add    %ah,0x69(%edx,%esi,2)
 40f:	76 65                	jbe    476 <start_-0xffb96>
 411:	73 5f                	jae    472 <start_-0xffb9a>
 413:	6c                   	insb   (%dx),%es:(%edi)
 414:	65 6e                	outsb  %gs:(%esi),(%dx)
 416:	67 74 68             	addr16 je 481 <start_-0xffb8b>
 419:	00 63 6f             	add    %ah,0x6f(%ebx)
 41c:	6e                   	outsb  %ds:(%esi),(%dx)
 41d:	66 69 67 5f 74 61    	imul   $0x6174,0x5f(%edi),%sp
 423:	62 6c 65 00          	bound  %ebp,0x0(%ebp,%eiz,2)
 427:	66 72 61             	data16 jb 48b <start_-0xffb81>
 42a:	6d                   	insl   (%dx),%es:(%edi)
 42b:	65 62 75 66          	bound  %esi,%gs:0x66(%ebp)
 42f:	66 65 72 5f          	data16 gs jb 492 <start_-0xffb7a>
 433:	67 72 65             	addr16 jb 49b <start_-0xffb71>
 436:	65 6e                	outsb  %gs:(%esi),(%dx)
 438:	5f                   	pop    %edi
 439:	6d                   	insl   (%dx),%es:(%edi)
 43a:	61                   	popa   
 43b:	73 6b                	jae    4a8 <start_-0xffb64>
 43d:	5f                   	pop    %edi
 43e:	73 69                	jae    4a9 <start_-0xffb63>
 440:	7a 65                	jp     4a7 <start_-0xffb65>
 442:	00 6d 75             	add    %ch,0x75(%ebp)
 445:	6c                   	insb   (%dx),%es:(%edi)
 446:	74 69                	je     4b1 <start_-0xffb5b>
 448:	62 6f 6f             	bound  %ebp,0x6f(%edi)
 44b:	74 5f                	je     4ac <start_-0xffb60>
 44d:	69 6e 66 6f 5f 74 00 	imul   $0x745f6f,0x66(%esi),%ebp
 454:	5f                   	pop    %edi
 455:	5f                   	pop    %edi
 456:	73 61                	jae    4b9 <start_-0xffb53>
 458:	76 65                	jbe    4bf <start_-0xffb4d>
 45a:	5f                   	pop    %edi
 45b:	73 75                	jae    4d2 <start_-0xffb3a>
 45d:	62 73 65             	bound  %esi,0x65(%ebx)
 460:	74 00                	je     462 <start_-0xffbaa>
 462:	66 72 61             	data16 jb 4c6 <start_-0xffb46>
 465:	6d                   	insl   (%dx),%es:(%edi)
 466:	65 62 75 66          	bound  %esi,%gs:0x66(%ebp)
 46a:	66 65 72 5f          	data16 gs jb 4cd <start_-0xffb3f>
 46e:	68 65 69 67 68       	push   $0x68676965
 473:	74 00                	je     475 <start_-0xffb97>
 475:	76 62                	jbe    4d9 <start_-0xffb33>
 477:	65 5f                	gs pop %edi
 479:	69 6e 74 65 72 66 61 	imul   $0x61667265,0x74(%esi),%ebp
 480:	63 65 5f             	arpl   %sp,0x5f(%ebp)
 483:	6c                   	insb   (%dx),%es:(%edi)
 484:	65 6e                	outsb  %gs:(%esi),(%dx)
 486:	00 6d 6f             	add    %ch,0x6f(%ebp)
 489:	64 73 5f             	fs jae 4eb <start_-0xffb21>
 48c:	63 6f 75             	arpl   %bp,0x75(%edi)
 48f:	6e                   	outsb  %ds:(%esi),(%dx)
 490:	74 00                	je     492 <start_-0xffb7a>
 492:	6d                   	insl   (%dx),%es:(%edi)
 493:	75 6c                	jne    501 <start_-0xffb0b>
 495:	74 69                	je     500 <start_-0xffb0c>
 497:	62 6f 6f             	bound  %ebp,0x6f(%edi)
 49a:	74 5f                	je     4fb <start_-0xffb11>
 49c:	75 69                	jne    507 <start_-0xffb05>
 49e:	6e                   	outsb  %ds:(%esi),(%dx)
 49f:	74 38                	je     4d9 <start_-0xffb33>
 4a1:	5f                   	pop    %edi
 4a2:	74 00                	je     4a4 <start_-0xffb68>
 4a4:	6d                   	insl   (%dx),%es:(%edi)
 4a5:	75 6c                	jne    513 <start_-0xffaf9>
 4a7:	74 69                	je     512 <start_-0xffafa>
 4a9:	62 6f 6f             	bound  %ebp,0x6f(%edi)
 4ac:	74 5f                	je     50d <start_-0xffaff>
 4ae:	73 79                	jae    529 <start_-0xffae3>
 4b0:	6d                   	insl   (%dx),%es:(%edi)
 4b1:	62 6f 6c             	bound  %ebp,0x6c(%edi)
 4b4:	5f                   	pop    %edi
 4b5:	74 61                	je     518 <start_-0xffaf4>
 4b7:	62 6c 65 5f          	bound  %ebp,0x5f(%ebp,%eiz,2)
 4bb:	74 00                	je     4bd <start_-0xffb4f>
 4bd:	76 62                	jbe    521 <start_-0xffaeb>
 4bf:	65 5f                	gs pop %edi
 4c1:	69 6e 74 65 72 66 61 	imul   $0x61667265,0x74(%esi),%ebp
 4c8:	63 65 5f             	arpl   %sp,0x5f(%ebp)
 4cb:	73 65                	jae    532 <start_-0xffada>
 4cd:	67 00 62 61          	add    %ah,0x61(%bp,%si)
 4d1:	73 65                	jae    538 <start_-0xffad4>
 4d3:	00 72 65             	add    %dh,0x65(%edx)
 4d6:	73 65                	jae    53d <start_-0xffacf>
 4d8:	72 76                	jb     550 <start_-0xffabc>
 4da:	65 64 00 66 72       	gs add %ah,%fs:0x72(%esi)
 4df:	61                   	popa   
 4e0:	6d                   	insl   (%dx),%es:(%edi)
 4e1:	65 62 75 66          	bound  %esi,%gs:0x66(%ebp)
 4e5:	66 65 72 5f          	data16 gs jb 548 <start_-0xffac4>
 4e9:	70 61                	jo     54c <start_-0xffac0>
 4eb:	6c                   	insb   (%dx),%es:(%edi)
 4ec:	65 74 74             	gs je  563 <start_-0xffaa9>
 4ef:	65 5f                	gs pop %edi
 4f1:	61                   	popa   
 4f2:	64 64 72 00          	fs fs jb 4f6 <start_-0xffb16>
 4f6:	62 61 73             	bound  %esp,0x73(%ecx)
 4f9:	65 5f                	gs pop %edi
 4fb:	63 68 61             	arpl   %bp,0x61(%eax)
 4fe:	72 00                	jb     500 <start_-0xffb0c>
 500:	69 74 6f 61 00 76 61 	imul   $0x6c617600,0x61(%edi,%ebp,2),%esi
 507:	6c 
 508:	75 65                	jne    56f <start_-0xffa9d>
 50a:	00 5f 5f             	add    %bl,0x5f(%edi)
 50d:	69 74 6f 61 5f 69 6e 	imul   $0x746e695f,0x61(%edi,%ebp,2),%esi
 514:	74 
 515:	65 72 6e             	gs jb  586 <start_-0xffa86>
 518:	61                   	popa   
 519:	6c                   	insb   (%dx),%es:(%edi)
 51a:	00 5f 5f             	add    %bl,0x5f(%edi)
 51d:	75 69                	jne    588 <start_-0xffa84>
 51f:	74 6f                	je     590 <start_-0xffa7c>
 521:	61                   	popa   
 522:	5f                   	pop    %edi
 523:	69 6e 74 65 72 6e 61 	imul   $0x616e7265,0x74(%esi),%ebp
 52a:	6c                   	insb   (%dx),%es:(%edi)
 52b:	00 64 65 73          	add    %ah,0x73(%ebp,%eiz,2)
 52f:	74 00                	je     531 <start_-0xffadb>
 531:	73 74                	jae    5a7 <start_-0xffa65>
 533:	72 63                	jb     598 <start_-0xffa74>
 535:	70 79                	jo     5b0 <start_-0xffa5c>
 537:	00 73 74             	add    %dh,0x74(%ebx)
 53a:	72 6c                	jb     5a8 <start_-0xffa64>
 53c:	65 6e                	outsb  %gs:(%esi),(%dx)
 53e:	00 73 69             	add    %dh,0x69(%ebx)
 541:	7a 65                	jp     5a8 <start_-0xffa64>
 543:	5f                   	pop    %edi
 544:	74 00                	je     546 <start_-0xffac6>
 546:	6d                   	insl   (%dx),%es:(%edi)
 547:	65 6d                	gs insl (%dx),%es:(%edi)
 549:	6d                   	insl   (%dx),%es:(%edi)
 54a:	6f                   	outsl  %ds:(%esi),(%dx)
 54b:	76 65                	jbe    5b2 <start_-0xffa5a>
 54d:	00 6d 65             	add    %ch,0x65(%ebp)
 550:	6d                   	insl   (%dx),%es:(%edi)
 551:	63 6d 70             	arpl   %bp,0x70(%ebp)
 554:	00 64 65 73          	add    %ah,0x73(%ebp,%eiz,2)
 558:	74 5f                	je     5b9 <start_-0xffa53>
 55a:	70 74                	jo     5d0 <start_-0xffa3c>
 55c:	72 00                	jb     55e <start_-0xffaae>
 55e:	6d                   	insl   (%dx),%es:(%edi)
 55f:	65 6d                	gs insl (%dx),%es:(%edi)
 561:	73 65                	jae    5c8 <start_-0xffa44>
 563:	74 00                	je     565 <start_-0xffaa7>
 565:	73 72                	jae    5d9 <start_-0xffa33>
 567:	63 5f 70             	arpl   %bx,0x70(%edi)
 56a:	74 72                	je     5de <start_-0xffa2e>
 56c:	00 64 69 66          	add    %ah,0x66(%ecx,%ebp,2)
 570:	66 00 6d 65          	data16 add %ch,0x65(%ebp)
 574:	6d                   	insl   (%dx),%es:(%edi)
 575:	63 70 79             	arpl   %si,0x79(%eax)
 578:	00 70 74             	add    %dh,0x74(%eax)
 57b:	72 31                	jb     5ae <start_-0xffa5e>
 57d:	00 70 74             	add    %dh,0x74(%eax)
 580:	72 32                	jb     5b4 <start_-0xffa58>
 582:	00 5f 5f             	add    %bl,0x5f(%edi)
 585:	67 6e                	outsb  %ds:(%si),(%dx)
 587:	75 63                	jne    5ec <start_-0xffa20>
 589:	5f                   	pop    %edi
 58a:	76 61                	jbe    5ed <start_-0xffa1f>
 58c:	5f                   	pop    %edi
 58d:	6c                   	insb   (%dx),%es:(%edi)
 58e:	69 73 74 00 5f 5f 73 	imul   $0x735f5f00,0x74(%ebx),%esi
 595:	70 72                	jo     609 <start_-0xffa03>
 597:	69 6e 74 66 5f 69 6e 	imul   $0x6e695f66,0x74(%esi),%ebp
 59e:	74 65                	je     605 <start_-0xffa07>
 5a0:	72 6e                	jb     610 <start_-0xff9fc>
 5a2:	61                   	popa   
 5a3:	6c                   	insb   (%dx),%es:(%edi)
 5a4:	00 64 70 74          	add    %ah,0x74(%eax,%esi,2)
 5a8:	72 00                	jb     5aa <start_-0xffa62>
 5aa:	61                   	popa   
 5ab:	72 67                	jb     614 <start_-0xff9f8>
 5ad:	73 00                	jae    5af <start_-0xffa5d>
 5af:	5f                   	pop    %edi
 5b0:	5f                   	pop    %edi
 5b1:	62 75 69             	bound  %esi,0x69(%ebp)
 5b4:	6c                   	insb   (%dx),%es:(%edi)
 5b5:	74 69                	je     620 <start_-0xff9ec>
 5b7:	6e                   	outsb  %ds:(%esi),(%dx)
 5b8:	5f                   	pop    %edi
 5b9:	76 61                	jbe    61c <start_-0xff9f0>
 5bb:	5f                   	pop    %edi
 5bc:	6c                   	insb   (%dx),%es:(%edi)
 5bd:	69 73 74 00 75 6e 75 	imul   $0x756e7500,0x74(%ebx),%esi
 5c4:	6d                   	insl   (%dx),%es:(%edi)
 5c5:	00 73 70             	add    %dh,0x70(%ebx)
 5c8:	72 69                	jb     633 <start_-0xff9d9>
 5ca:	6e                   	outsb  %ds:(%esi),(%dx)
 5cb:	74 66                	je     633 <start_-0xff9d9>
 5cd:	00 74 74 79          	add    %dh,0x79(%esp,%esi,2)
 5d1:	5f                   	pop    %edi
 5d2:	70 75                	jo     649 <start_-0xff9c3>
 5d4:	74 5f                	je     635 <start_-0xff9d7>
 5d6:	73 74                	jae    64c <start_-0xff9c0>
 5d8:	72 00                	jb     5da <start_-0xffa32>
 5da:	76 6d                	jbe    649 <start_-0xff9c3>
 5dc:	6d                   	insl   (%dx),%es:(%edi)
 5dd:	5f                   	pop    %edi
 5de:	6d                   	insl   (%dx),%es:(%edi)
 5df:	61                   	popa   
 5e0:	70 5f                	jo     641 <start_-0xff9cb>
 5e2:	70 61                	jo     645 <start_-0xff9c7>
 5e4:	67 65 00 70 74       	add    %dh,%gs:0x74(%bx,%si)
 5e9:	5f                   	pop    %edi
 5ea:	61                   	popa   
 5eb:	74 74                	je     661 <start_-0xff9ab>
 5ed:	72 00                	jb     5ef <start_-0xffa1d>
 5ef:	76 6d                	jbe    65e <start_-0xff9ae>
 5f1:	6d                   	insl   (%dx),%es:(%edi)
 5f2:	5f                   	pop    %edi
 5f3:	69 6e 69 74 5f 70 64 	imul   $0x64705f74,0x69(%esi),%ebp
 5fa:	00 76 6d             	add    %dh,0x6d(%esi)
 5fd:	6d                   	insl   (%dx),%es:(%edi)
 5fe:	5f                   	pop    %edi
 5ff:	69 6e 69 74 00 70 74 	imul   $0x74700074,0x69(%esi),%ebp
 606:	5f                   	pop    %edi
 607:	6f                   	outsl  %ds:(%esi),(%dx)
 608:	66 66 73 65          	data16 data16 jae 671 <start_-0xff99b>
 60c:	74 00                	je     60e <start_-0xff9fe>
 60e:	73 65                	jae    675 <start_-0xff997>
 610:	6c                   	insb   (%dx),%es:(%edi)
 611:	66 5f                	pop    %di
 613:	70 64                	jo     679 <start_-0xff993>
 615:	65 00 70 64          	add    %dh,%gs:0x64(%eax)
 619:	5f                   	pop    %edi
 61a:	6f                   	outsl  %ds:(%esi),(%dx)
 61b:	66 66 73 65          	data16 data16 jae 684 <start_-0xff988>
 61f:	74 00                	je     621 <start_-0xff9eb>
 621:	67 65 74 5f          	addr16 gs je 684 <start_-0xff988>
 625:	70 64                	jo     68b <start_-0xff981>
 627:	00 70 74             	add    %dh,0x74(%eax)
 62a:	5f                   	pop    %edi
 62b:	74 00                	je     62d <start_-0xff9df>
 62d:	6e                   	outsb  %ds:(%esi),(%dx)
 62e:	65 77 5f             	gs ja  690 <start_-0xff97c>
 631:	70 74                	jo     6a7 <start_-0xff965>
 633:	5f                   	pop    %edi
 634:	70 61                	jo     697 <start_-0xff975>
 636:	00 72 65             	add    %dh,0x65(%edx)
 639:	73 75                	jae    6b0 <start_-0xff95c>
 63b:	6c                   	insb   (%dx),%es:(%edi)
 63c:	74 00                	je     63e <start_-0xff9ce>
 63e:	70 6d                	jo     6ad <start_-0xff95f>
 640:	6d                   	insl   (%dx),%es:(%edi)
 641:	5f                   	pop    %edi
 642:	66 72 65             	data16 jb 6aa <start_-0xff962>
 645:	65 5f                	gs pop %edi
 647:	70 61                	jo     6aa <start_-0xff962>
 649:	67 65 00 76 6d       	add    %dh,%gs:0x6d(%bp)
 64e:	6d                   	insl   (%dx),%es:(%edi)
 64f:	5f                   	pop    %edi
 650:	75 6e                	jne    6c0 <start_-0xff94c>
 652:	6d                   	insl   (%dx),%es:(%edi)
 653:	61                   	popa   
 654:	70 5f                	jo     6b5 <start_-0xff957>
 656:	70 61                	jo     6b9 <start_-0xff953>
 658:	67 65 00 64 61       	add    %ah,%gs:0x61(%si)
 65d:	74 74                	je     6d3 <start_-0xff939>
 65f:	72 00                	jb     661 <start_-0xff9ab>
 661:	70 6d                	jo     6d0 <start_-0xff93c>
 663:	6d                   	insl   (%dx),%es:(%edi)
 664:	5f                   	pop    %edi
 665:	61                   	popa   
 666:	6c                   	insb   (%dx),%es:(%edi)
 667:	6c                   	insb   (%dx),%es:(%edi)
 668:	6f                   	outsl  %ds:(%esi),(%dx)
 669:	63 5f 70             	arpl   %bx,0x70(%edi)
 66c:	61                   	popa   
 66d:	67 65 00 73 65       	add    %dh,%gs:0x65(%bp,%di)
 672:	74 5f                	je     6d3 <start_-0xff939>
 674:	70 64                	jo     6da <start_-0xff932>
 676:	00 74 61 74          	add    %dh,0x74(%ecx,%eiz,2)
 67a:	74 72                	je     6ee <start_-0xff91e>
 67c:	00 76 6d             	add    %dh,0x6d(%esi)
 67f:	6d                   	insl   (%dx),%es:(%edi)
 680:	5f                   	pop    %edi
 681:	76 32                	jbe    6b5 <start_-0xff957>
 683:	70 00                	jo     685 <start_-0xff987>
 685:	76 6d                	jbe    6f4 <start_-0xff918>
 687:	6d                   	insl   (%dx),%es:(%edi)
 688:	5f                   	pop    %edi
 689:	61                   	popa   
 68a:	6c                   	insb   (%dx),%es:(%edi)
 68b:	6c                   	insb   (%dx),%es:(%edi)
 68c:	6f                   	outsl  %ds:(%esi),(%dx)
 68d:	63 5f 70             	arpl   %bx,0x70(%edi)
 690:	61                   	popa   
 691:	67 65 00 70 6d       	add    %dh,%gs:0x6d(%bx,%si)
 696:	5f                   	pop    %edi
 697:	62 69 74             	bound  %ebp,0x74(%ecx)
 69a:	6d                   	insl   (%dx),%es:(%edi)
 69b:	61                   	popa   
 69c:	70 00                	jo     69e <start_-0xff96e>
 69e:	67 6f                	outsl  %ds:(%si),(%dx)
 6a0:	6f                   	outsl  %ds:(%esi),(%dx)
 6a1:	64 5f                	fs pop %edi
 6a3:	70 61                	jo     706 <start_-0xff906>
 6a5:	67 65 5f             	addr16 gs pop %edi
 6a8:	66 6f                	outsw  %ds:(%esi),(%dx)
 6aa:	75 6e                	jne    71a <start_-0xff8f2>
 6ac:	64 00 6d 65          	add    %ch,%fs:0x65(%ebp)
 6b0:	6d                   	insl   (%dx),%es:(%edi)
 6b1:	5f                   	pop    %edi
 6b2:	75 70                	jne    724 <start_-0xff8e8>
 6b4:	70 65                	jo     71b <start_-0xff8f1>
 6b6:	72 5f                	jb     717 <start_-0xff8f5>
 6b8:	6c                   	insb   (%dx),%es:(%edi)
 6b9:	69 6d 00 73 74 61 72 	imul   $0x72617473,0x0(%ebp),%ebp
 6c0:	74 5f                	je     721 <start_-0xff8eb>
 6c2:	70 70                	jo     734 <start_-0xff8d8>
 6c4:	6e                   	outsb  %ds:(%esi),(%dx)
 6c5:	00 70 6d             	add    %dh,0x6d(%eax)
 6c8:	6d                   	insl   (%dx),%es:(%edi)
 6c9:	5f                   	pop    %edi
 6ca:	6d                   	insl   (%dx),%es:(%edi)
 6cb:	61                   	popa   
 6cc:	72 6b                	jb     739 <start_-0xff8d3>
 6ce:	5f                   	pop    %edi
 6cf:	63 68 75             	arpl   %bp,0x75(%eax)
 6d2:	6e                   	outsb  %ds:(%esi),(%dx)
 6d3:	6b 5f 6f 63          	imul   $0x63,0x6f(%edi),%ebx
 6d7:	63 75 70             	arpl   %si,0x70(%ebp)
 6da:	69 65 64 00 70 6d 6d 	imul   $0x6d6d7000,0x64(%ebp),%esp
 6e1:	5f                   	pop    %edi
 6e2:	69 6e 69 74 00 63 68 	imul   $0x68630074,0x69(%esi),%ebp
 6e9:	75 6e                	jne    759 <start_-0xff8b3>
 6eb:	6b 00 67             	imul   $0x67,(%eax),%eax
 6ee:	72 6f                	jb     75f <start_-0xff8ad>
 6f0:	75 70                	jne    762 <start_-0xff8aa>
 6f2:	00 70 6d             	add    %dh,0x6d(%eax)
 6f5:	6d                   	insl   (%dx),%es:(%edi)
 6f6:	5f                   	pop    %edi
 6f7:	6d                   	insl   (%dx),%es:(%edi)
 6f8:	61                   	popa   
 6f9:	72 6b                	jb     766 <start_-0xff8a6>
 6fb:	5f                   	pop    %edi
 6fc:	70 61                	jo     75f <start_-0xff8ad>
 6fe:	67 65 5f             	addr16 gs pop %edi
 701:	6f                   	outsl  %ds:(%esi),(%dx)
 702:	63 63 75             	arpl   %sp,0x75(%ebx)
 705:	70 69                	jo     770 <start_-0xff89c>
 707:	65 64 00 70 61       	gs add %dh,%fs:0x61(%eax)
 70c:	67 65 5f             	addr16 gs pop %edi
 70f:	63 6f 75             	arpl   %bp,0x75(%edi)
 712:	6e                   	outsb  %ds:(%esi),(%dx)
 713:	74 00                	je     715 <start_-0xff8f7>
 715:	6d                   	insl   (%dx),%es:(%edi)
 716:	61                   	popa   
 717:	78 5f                	js     778 <start_-0xff894>
 719:	70 67                	jo     782 <start_-0xff88a>
 71b:	00 70 67             	add    %dh,0x67(%eax)
 71e:	5f                   	pop    %edi
 71f:	6c                   	insb   (%dx),%es:(%edi)
 720:	6f                   	outsl  %ds:(%esi),(%dx)
 721:	6f                   	outsl  %ds:(%esi),(%dx)
 722:	6b 75 70 5f          	imul   $0x5f,0x70(%ebp),%esi
 726:	70 74                	jo     79c <start_-0xff870>
 728:	72 00                	jb     72a <start_-0xff8e2>
 72a:	67 72 6f             	addr16 jb 79c <start_-0xff870>
 72d:	75 70                	jne    79f <start_-0xff86d>
 72f:	5f                   	pop    %edi
 730:	63 6f 75             	arpl   %bp,0x75(%edi)
 733:	6e                   	outsb  %ds:(%esi),(%dx)
 734:	74 00                	je     736 <start_-0xff8d6>
 736:	70 6d                	jo     7a5 <start_-0xff867>
 738:	6d                   	insl   (%dx),%es:(%edi)
 739:	5f                   	pop    %edi
 73a:	6d                   	insl   (%dx),%es:(%edi)
 73b:	61                   	popa   
 73c:	72 6b                	jb     7a9 <start_-0xff863>
 73e:	5f                   	pop    %edi
 73f:	63 68 75             	arpl   %bp,0x75(%eax)
 742:	6e                   	outsb  %ds:(%esi),(%dx)
 743:	6b 5f 66 72          	imul   $0x72,0x66(%edi),%ebx
 747:	65 65 00 72 65       	gs add %dh,%gs:0x65(%edx)
 74c:	6d                   	insl   (%dx),%es:(%edi)
 74d:	61                   	popa   
 74e:	69 6e 64 65 72 00 6f 	imul   $0x6f007265,0x64(%esi),%ebp
 755:	6c                   	insb   (%dx),%es:(%edi)
 756:	64 5f                	fs pop %edi
 758:	70 67                	jo     7c1 <start_-0xff84b>
 75a:	5f                   	pop    %edi
 75b:	70 74                	jo     7d1 <start_-0xff83b>
 75d:	72 00                	jb     75f <start_-0xff8ad>
 75f:	70 6d                	jo     7ce <start_-0xff83e>
 761:	6d                   	insl   (%dx),%es:(%edi)
 762:	5f                   	pop    %edi
 763:	6d                   	insl   (%dx),%es:(%edi)
 764:	61                   	popa   
 765:	72 6b                	jb     7d2 <start_-0xff83a>
 767:	5f                   	pop    %edi
 768:	70 61                	jo     7cb <start_-0xff841>
 76a:	67 65 5f             	addr16 gs pop %edi
 76d:	66 72 65             	data16 jb 7d5 <start_-0xff837>
 770:	65 00 6c 65 61       	add    %ch,%gs:0x61(%ebp,%eiz,2)
 775:	64 69 6e 67 5f 73 68 	imul   $0x6968735f,%fs:0x67(%esi),%ebp
 77c:	69 
 77d:	66 74 73             	data16 je 7f3 <start_-0xff819>
 780:	00 5f 6b             	add    %bl,0x6b(%edi)
 783:	65 72 6e             	gs jb  7f4 <start_-0xff818>
 786:	65 6c                	gs insb (%dx),%es:(%edi)
 788:	5f                   	pop    %edi
 789:	69 6e 69 74 00 74 74 	imul   $0x74740074,0x69(%esi),%ebp
 790:	79 5f                	jns    7f1 <start_-0xff81b>
 792:	73 65                	jae    7f9 <start_-0xff813>
 794:	74 5f                	je     7f5 <start_-0xff817>
 796:	74 68                	je     800 <start_-0xff80c>
 798:	65 6d                	gs insl (%dx),%es:(%edi)
 79a:	65 00 61 64          	add    %ah,%gs:0x64(%ecx)
 79e:	64 72 5f             	fs jb  800 <start_-0xff80c>
 7a1:	68 69 67 68 00       	push   $0x686769
 7a6:	6c                   	insb   (%dx),%es:(%edi)
 7a7:	65 6e                	outsb  %gs:(%esi),(%dx)
 7a9:	5f                   	pop    %edi
 7aa:	6c                   	insb   (%dx),%es:(%edi)
 7ab:	6f                   	outsl  %ds:(%esi),(%dx)
 7ac:	77 00                	ja     7ae <start_-0xff85e>
 7ae:	61                   	popa   
 7af:	64 64 72 5f          	fs fs jb 812 <start_-0xff7fa>
 7b3:	6c                   	insb   (%dx),%es:(%edi)
 7b4:	6f                   	outsl  %ds:(%esi),(%dx)
 7b5:	77 00                	ja     7b7 <start_-0xff855>
 7b7:	5f                   	pop    %edi
 7b8:	6b 65 72 6e          	imul   $0x6e,0x72(%ebp),%esp
 7bc:	65 6c                	gs insb (%dx),%es:(%edi)
 7be:	5f                   	pop    %edi
 7bf:	70 6f                	jo     830 <start_-0xff7dc>
 7c1:	73 74                	jae    837 <start_-0xff7d5>
 7c3:	5f                   	pop    %edi
 7c4:	69 6e 69 74 00 6c 65 	imul   $0x656c0074,0x69(%esi),%ebp
 7cb:	6e                   	outsb  %ds:(%esi),(%dx)
 7cc:	5f                   	pop    %edi
 7cd:	68 69 67 68 00       	push   $0x686769
 7d2:	74 74                	je     848 <start_-0xff7c4>
 7d4:	79 5f                	jns    835 <start_-0xff7d7>
 7d6:	69 6e 69 74 00 6d 62 	imul   $0x626d0074,0x69(%esi),%ebp
 7dd:	5f                   	pop    %edi
 7de:	69 6e 66 6f 00 6d 75 	imul   $0x756d006f,0x66(%esi),%ebp
 7e5:	6c                   	insb   (%dx),%es:(%edi)
 7e6:	74 69                	je     851 <start_-0xff7bb>
 7e8:	62 6f 6f             	bound  %ebp,0x6f(%edi)
 7eb:	74 5f                	je     84c <start_-0xff7c0>
 7ed:	6d                   	insl   (%dx),%es:(%edi)
 7ee:	6d                   	insl   (%dx),%es:(%edi)
 7ef:	61                   	popa   
 7f0:	70 5f                	jo     851 <start_-0xff7bb>
 7f2:	65 6e                	outsb  %gs:(%esi),(%dx)
 7f4:	74 72                	je     868 <start_-0xff7a4>
 7f6:	79 00                	jns    7f8 <start_-0xff814>
 7f8:	76 67                	jbe    861 <start_-0xff7ab>
 7fa:	61                   	popa   
 7fb:	5f                   	pop    %edi
 7fc:	62 75 66             	bound  %esi,0x66(%ebp)
 7ff:	5f                   	pop    %edi
 800:	70 67                	jo     869 <start_-0xff7a3>
 802:	73 00                	jae    804 <start_-0xff808>
 804:	6d                   	insl   (%dx),%es:(%edi)
 805:	6d                   	insl   (%dx),%es:(%edi)
 806:	61                   	popa   
 807:	70 00                	jo     809 <start_-0xff803>
 809:	68 68 6b 5f 69       	push   $0x695f6b68
 80e:	6e                   	outsb  %ds:(%esi),(%dx)
 80f:	69 74 5f 70 67 5f 63 	imul   $0x6f635f67,0x70(%edi,%ebx,2),%esi
 816:	6f 
 817:	75 6e                	jne    887 <start_-0xff785>
 819:	74 00                	je     81b <start_-0xff7f1>
 81b:	69 6e 66 6f 5f 74 61 	imul   $0x61745f6f,0x66(%esi),%ebp
 822:	62 6c 65 00          	bound  %ebp,0x0(%ebp,%eiz,2)
 826:	74 74                	je     89c <start_-0xff770>
 828:	79 5f                	jns    889 <start_-0xff783>
 82a:	73 65                	jae    891 <start_-0xff77b>
 82c:	74 5f                	je     88d <start_-0xff77f>
 82e:	62 75 66             	bound  %esi,0x66(%ebp)
 831:	66 65 72 00          	data16 gs jb 835 <start_-0xff7d7>
 835:	5f                   	pop    %edi
 836:	6b 65 72 6e          	imul   $0x6e,0x72(%ebp),%esp
 83a:	65 6c                	gs insb (%dx),%es:(%edi)
 83c:	5f                   	pop    %edi
 83d:	6d                   	insl   (%dx),%es:(%edi)
 83e:	61                   	popa   
 83f:	69 6e 00 6d 75 6c 74 	imul   $0x746c756d,0x0(%esi),%ebp
 846:	69 62 6f 6f 74 5f 6d 	imul   $0x6d5f746f,0x6f(%edx),%esp
 84d:	65 6d                	gs insl (%dx),%es:(%edi)
 84f:	6f                   	outsl  %ds:(%esi),(%dx)
 850:	72 79                	jb     8cb <start_-0xff741>
 852:	5f                   	pop    %edi
 853:	6d                   	insl   (%dx),%es:(%edi)
 854:	61                   	popa   
 855:	70 5f                	jo     8b6 <start_-0xff756>
 857:	74 00                	je     859 <start_-0xff7b3>
 859:	6d                   	insl   (%dx),%es:(%edi)
 85a:	61                   	popa   
 85b:	70 5f                	jo     8bc <start_-0xff750>
 85d:	73 69                	jae    8c8 <start_-0xff744>
 85f:	7a 65                	jp     8c6 <start_-0xff746>
 861:	00 6b 5f             	add    %ch,0x5f(%ebx)
 864:	73 74                	jae    8da <start_-0xff732>
 866:	61                   	popa   
 867:	72 74                	jb     8dd <start_-0xff72f>
 869:	00 76 67             	add    %dh,0x67(%esi)
 86c:	61                   	popa   
 86d:	5f                   	pop    %edi
 86e:	61                   	popa   
 86f:	74 74                	je     8e5 <start_-0xff727>
 871:	72 69                	jb     8dc <start_-0xff730>
 873:	62 75 74             	bound  %esi,0x74(%ebp)
 876:	65 00 5f 69          	add    %bl,%gs:0x69(%edi)
 87a:	6e                   	outsb  %ds:(%esi),(%dx)
 87b:	69 74 5f 69 64 74 00 	imul   $0x74007464,0x69(%edi,%ebx,2),%esi
 882:	74 
 883:	74 79                	je     8fe <start_-0xff70e>
 885:	5f                   	pop    %edi
 886:	70 75                	jo     8fd <start_-0xff70f>
 888:	74 5f                	je     8e9 <start_-0xff723>
 88a:	63 68 61             	arpl   %bp,0x61(%eax)
 88d:	72 00                	jb     88f <start_-0xff77d>
 88f:	6c                   	insb   (%dx),%es:(%edi)
 890:	61                   	popa   
 891:	73 74                	jae    907 <start_-0xff705>
 893:	5f                   	pop    %edi
 894:	6c                   	insb   (%dx),%es:(%edi)
 895:	69 6e 65 00 74 74 79 	imul   $0x79747400,0x65(%esi),%ebp
 89c:	5f                   	pop    %edi
 89d:	74 68                	je     907 <start_-0xff705>
 89f:	65 6d                	gs insl (%dx),%es:(%edi)
 8a1:	65 5f                	gs pop %edi
 8a3:	63 6f 6c             	arpl   %bp,0x6c(%edi)
 8a6:	6f                   	outsl  %ds:(%esi),(%dx)
 8a7:	72 00                	jb     8a9 <start_-0xff763>
 8a9:	76 67                	jbe    912 <start_-0xff6fa>
 8ab:	61                   	popa   
 8ac:	5f                   	pop    %edi
 8ad:	62 75 66             	bound  %esi,0x66(%ebp)
 8b0:	00 74 74 79          	add    %dh,0x79(%esp,%esi,2)
 8b4:	5f                   	pop    %edi
 8b5:	76 67                	jbe    91e <start_-0xff6ee>
 8b7:	61                   	popa   
 8b8:	5f                   	pop    %edi
 8b9:	62 75 66             	bound  %esi,0x66(%ebp)
 8bc:	66 65 72 00          	data16 gs jb 8c0 <start_-0xff74c>
 8c0:	74 74                	je     936 <start_-0xff6d6>
 8c2:	79 5f                	jns    923 <start_-0xff6e9>
 8c4:	63 6c 65 61          	arpl   %bp,0x61(%ebp,%eiz,2)
 8c8:	72 00                	jb     8ca <start_-0xff742>
 8ca:	74 74                	je     940 <start_-0xff6cc>
 8cc:	79 5f                	jns    92d <start_-0xff6df>
 8ce:	78 00                	js     8d0 <start_-0xff73c>
 8d0:	74 74                	je     946 <start_-0xff6c6>
 8d2:	79 5f                	jns    933 <start_-0xff6d9>
 8d4:	79 00                	jns    8d6 <start_-0xff736>
 8d6:	74 74                	je     94c <start_-0xff6c0>
 8d8:	79 5f                	jns    939 <start_-0xff6d3>
 8da:	73 63                	jae    93f <start_-0xff6cd>
 8dc:	72 6f                	jb     94d <start_-0xff6bf>
 8de:	6c                   	insb   (%dx),%es:(%edi)
 8df:	6c                   	insb   (%dx),%es:(%edi)
 8e0:	5f                   	pop    %edi
 8e1:	75 70                	jne    953 <start_-0xff6b9>
 8e3:	00 5f 73             	add    %bl,0x73(%edi)
 8e6:	65 74 5f             	gs je  948 <start_-0xff6c4>
 8e9:	67 64 74 5f          	addr16 fs je 94c <start_-0xff6c0>
 8ed:	65 6e                	outsb  %gs:(%esi),(%dx)
 8ef:	74 72                	je     963 <start_-0xff6a9>
 8f1:	79 00                	jns    8f3 <start_-0xff719>
 8f3:	5f                   	pop    %edi
 8f4:	67 64 74 5f          	addr16 fs je 957 <start_-0xff6b5>
 8f8:	6c                   	insb   (%dx),%es:(%edi)
 8f9:	69 6d 69 74 00 5f 69 	imul   $0x695f0074,0x69(%ebp),%ebp
 900:	6e                   	outsb  %ds:(%esi),(%dx)
 901:	69 74 5f 67 64 74 00 	imul   $0x65007464,0x67(%edi,%ebx,2),%esi
 908:	65 
 909:	72 72                	jb     97d <start_-0xff68f>
 90b:	6f                   	outsl  %ds:(%esi),(%dx)
 90c:	72 5f                	jb     96d <start_-0xff69f>
 90e:	63 6f 64             	arpl   %bp,0x64(%edi)
 911:	65 00 65 66          	add    %ah,%gs:0x66(%ebp)
 915:	6c                   	insb   (%dx),%es:(%edi)
 916:	61                   	popa   
 917:	67 73 00             	addr16 jae 91a <start_-0xff6f2>
 91a:	69 73 72 5f 70 61 72 	imul   $0x7261705f,0x72(%ebx),%esi
 921:	61                   	popa   
 922:	6d                   	insl   (%dx),%es:(%edi)
 923:	00 76 65             	add    %dh,0x65(%esi)
 926:	63 74 6f 72          	arpl   %si,0x72(%edi,%ebp,2)
 92a:	00 69 6e             	add    %ch,0x6e(%ecx)
 92d:	74 65                	je     994 <start_-0xff678>
 92f:	72 72                	jb     9a3 <start_-0xff669>
 931:	75 70                	jne    9a3 <start_-0xff669>
 933:	74 5f                	je     994 <start_-0xff678>
 935:	68 61 6e 64 6c       	push   $0x6c646e61
 93a:	65 72 00             	gs jb  93d <start_-0xff6cf>
 93d:	5f                   	pop    %edi
 93e:	61                   	popa   
 93f:	73 6d                	jae    9ae <start_-0xff65e>
 941:	5f                   	pop    %edi
 942:	69 73 72 30 00 5f 69 	imul   $0x695f0030,0x72(%ebx),%esi
 949:	64 74 5f             	fs je  9ab <start_-0xff661>
 94c:	6c                   	insb   (%dx),%es:(%edi)
 94d:	69 6d 69 74 00 73 65 	imul   $0x65730074,0x69(%ebp),%ebp
 954:	67 5f                	addr16 pop %edi
 956:	73 65                	jae    9bd <start_-0xff64f>
 958:	6c                   	insb   (%dx),%es:(%edi)
 959:	65 63 74 6f 72       	arpl   %si,%gs:0x72(%edi,%ebp,2)
 95e:	00 5f 73             	add    %bl,0x73(%edi)
 961:	65 74 5f             	gs je  9c3 <start_-0xff649>
 964:	69 64 74 5f 65 6e 74 	imul   $0x72746e65,0x5f(%esp,%esi,2),%esp
 96b:	72 
 96c:	79 00                	jns    96e <start_-0xff69e>

Disassembly of section .debug_line_str:

00000000 <.debug_line_str>:
   0:	68 61 6c 2f 63       	push   $0x632f6c61
   5:	70 75                	jo     7c <start_-0xfff90>
   7:	2e 63 00             	arpl   %ax,%cs:(%eax)
   a:	2f                   	das    
   b:	68 6f 6d 65 2f       	push   $0x2f656d6f
  10:	6c                   	insb   (%dx),%es:(%edi)
  11:	65 6e                	outsb  %gs:(%esi),(%dx)
  13:	6f                   	outsl  %ds:(%esi),(%dx)
  14:	76 6f                	jbe    85 <start_-0xfff87>
  16:	2f                   	das    
  17:	44                   	inc    %esp
  18:	6f                   	outsl  %ds:(%esi),(%dx)
  19:	63 75 6d             	arpl   %si,0x6d(%ebp)
  1c:	65 6e                	outsb  %gs:(%esi),(%dx)
  1e:	74 73                	je     93 <start_-0xfff79>
  20:	2f                   	das    
  21:	6f                   	outsl  %ds:(%esi),(%dx)
  22:	73 2f                	jae    53 <start_-0xfffb9>
  24:	6c                   	insb   (%dx),%es:(%edi)
  25:	75 6e                	jne    95 <start_-0xfff77>
  27:	61                   	popa   
  28:	69 78 2d 6f 73 2d 73 	imul   $0x732d736f,0x2d(%eax),%edi
  2f:	74 75                	je     a6 <start_-0xfff66>
  31:	64 79 00             	fs jns 34 <start_-0xfffd8>
  34:	2f                   	das    
  35:	68 6f 6d 65 2f       	push   $0x2f656d6f
  3a:	6c                   	insb   (%dx),%es:(%edi)
  3b:	65 6e                	outsb  %gs:(%esi),(%dx)
  3d:	6f                   	outsl  %ds:(%esi),(%dx)
  3e:	76 6f                	jbe    af <start_-0xfff5d>
  40:	2f                   	das    
  41:	63 72 6f             	arpl   %si,0x6f(%edx)
  44:	73 73                	jae    b9 <start_-0xfff53>
  46:	2d 63 6f 6d 70       	sub    $0x706d6f63,%eax
  4b:	69 6c 65 72 2f 6c 69 	imul   $0x62696c2f,0x72(%ebp,%eiz,2),%ebp
  52:	62 
  53:	2f                   	das    
  54:	67 63 63 2f          	arpl   %sp,0x2f(%bp,%di)
  58:	69 36 38 36 2d 65    	imul   $0x652d3638,(%esi),%esi
  5e:	6c                   	insb   (%dx),%es:(%edi)
  5f:	66 2f                	data16 das 
  61:	31 31                	xor    %esi,(%ecx)
  63:	2e 32 2e             	xor    %cs:(%esi),%ch
  66:	30 2f                	xor    %ch,(%edi)
  68:	69 6e 63 6c 75 64 65 	imul   $0x6564756c,0x63(%esi),%ebp
  6f:	00 69 6e             	add    %ch,0x6e(%ecx)
  72:	63 6c 75 64          	arpl   %bp,0x64(%ebp,%esi,2)
  76:	65 73 2f             	gs jae a8 <start_-0xfff64>
  79:	68 61 6c 00 73       	push   $0x73006c61
  7e:	74 64                	je     e4 <start_-0xfff28>
  80:	69 6e 74 2d 67 63 63 	imul   $0x6363672d,0x74(%esi),%ebp
  87:	2e 68 00 63 70 75    	cs push $0x75706300
  8d:	2e 68 00 61 72 63    	cs push $0x63726100
  93:	68 2f 78 38 36       	push   $0x3638782f
  98:	2f                   	das    
  99:	68 68 6b 2e 63       	push   $0x632e6b68
  9e:	00 69 6e             	add    %ch,0x6e(%ecx)
  a1:	63 6c 75 64          	arpl   %bp,0x64(%ebp,%esi,2)
  a5:	65 73 2f             	gs jae d7 <start_-0xfff35>
  a8:	61                   	popa   
  a9:	72 63                	jb     10e <start_-0xffefe>
  ab:	68 2f 78 38 36       	push   $0x3638782f
  b0:	2f                   	das    
  b1:	62 6f 6f             	bound  %ebp,0x6f(%edi)
  b4:	74 00                	je     b6 <start_-0xfff56>
  b6:	69 6e 63 6c 75 64 65 	imul   $0x6564756c,0x63(%esi),%ebp
  bd:	73 2f                	jae    ee <start_-0xfff1e>
  bf:	6c                   	insb   (%dx),%es:(%edi)
  c0:	75 6e                	jne    130 <start_-0xffedc>
  c2:	61                   	popa   
  c3:	69 78 2f 6d 6d 00 6d 	imul   $0x6d006d6d,0x2f(%eax),%edi
  ca:	75 6c                	jne    138 <start_-0xffed4>
  cc:	74 69                	je     137 <start_-0xffed5>
  ce:	62 6f 6f             	bound  %ebp,0x6f(%edi)
  d1:	74 2e                	je     101 <start_-0xfff0b>
  d3:	68 00 70 61 67       	push   $0x67617000
  d8:	65 2e 68 00 6c 69 62 	gs cs push $0x62696c00
  df:	73 2f                	jae    110 <start_-0xffefc>
  e1:	6c                   	insb   (%dx),%es:(%edi)
  e2:	69 62 63 2f 73 74 64 	imul   $0x6474732f,0x63(%edx),%esp
  e9:	6c                   	insb   (%dx),%es:(%edi)
  ea:	69 62 2f 69 74 6f 61 	imul   $0x616f7469,0x2f(%edx),%esp
  f1:	2e 63 00             	arpl   %ax,%cs:(%eax)
  f4:	6c                   	insb   (%dx),%es:(%edi)
  f5:	69 62 73 2f 6c 69 62 	imul   $0x62696c2f,0x73(%edx),%esp
  fc:	63 2f                	arpl   %bp,(%edi)
  fe:	73 74                	jae    174 <start_-0xffe98>
 100:	64 6c                	fs insb (%dx),%es:(%edi)
 102:	69 62 00 6c 69 62 73 	imul   $0x7362696c,0x0(%edx),%esp
 109:	2f                   	das    
 10a:	6c                   	insb   (%dx),%es:(%edi)
 10b:	69 62 63 2f 73 74 72 	imul   $0x7274732f,0x63(%edx),%esp
 112:	69 6e 67 2f 73 74 72 	imul   $0x7274732f,0x67(%esi),%ebp
 119:	63 70 79             	arpl   %si,0x79(%eax)
 11c:	2e 63 00             	arpl   %ax,%cs:(%eax)
 11f:	6c                   	insb   (%dx),%es:(%edi)
 120:	69 62 73 2f 6c 69 62 	imul   $0x62696c2f,0x73(%edx),%esp
 127:	63 2f                	arpl   %bp,(%edi)
 129:	73 74                	jae    19f <start_-0xffe6d>
 12b:	72 69                	jb     196 <start_-0xffe76>
 12d:	6e                   	outsb  %ds:(%esi),(%dx)
 12e:	67 00 6c 69          	add    %ch,0x69(%si)
 132:	62 73 2f             	bound  %esi,0x2f(%ebx)
 135:	6c                   	insb   (%dx),%es:(%edi)
 136:	69 62 63 2f 73 74 72 	imul   $0x7274732f,0x63(%edx),%esp
 13d:	69 6e 67 2f 73 74 72 	imul   $0x7274732f,0x67(%esi),%ebp
 144:	6c                   	insb   (%dx),%es:(%edi)
 145:	65 6e                	outsb  %gs:(%esi),(%dx)
 147:	2e 63 00             	arpl   %ax,%cs:(%eax)
 14a:	73 74                	jae    1c0 <start_-0xffe4c>
 14c:	64 64 65 66 2e 68 00 	fs fs gs cs pushw $0x6c00
 153:	6c 
 154:	69 62 73 2f 6c 69 62 	imul   $0x62696c2f,0x73(%edx),%esp
 15b:	63 2f                	arpl   %bp,(%edi)
 15d:	73 74                	jae    1d3 <start_-0xffe39>
 15f:	72 69                	jb     1ca <start_-0xffe42>
 161:	6e                   	outsb  %ds:(%esi),(%dx)
 162:	67 2f                	addr16 das 
 164:	6d                   	insl   (%dx),%es:(%edi)
 165:	65 6d                	gs insl (%dx),%es:(%edi)
 167:	2e 63 00             	arpl   %ax,%cs:(%eax)
 16a:	6c                   	insb   (%dx),%es:(%edi)
 16b:	69 62 73 2f 6c 69 62 	imul   $0x62696c2f,0x73(%edx),%esp
 172:	63 2f                	arpl   %bp,(%edi)
 174:	73 74                	jae    1ea <start_-0xffe22>
 176:	64 69 6f 2f 73 70 72 	imul   $0x69727073,%fs:0x2f(%edi),%ebp
 17d:	69 
 17e:	6e                   	outsb  %ds:(%esi),(%dx)
 17f:	74 66                	je     1e7 <start_-0xffe25>
 181:	2e 63 00             	arpl   %ax,%cs:(%eax)
 184:	6c                   	insb   (%dx),%es:(%edi)
 185:	69 62 73 2f 6c 69 62 	imul   $0x62696c2f,0x73(%edx),%esp
 18c:	63 2f                	arpl   %bp,(%edi)
 18e:	73 74                	jae    204 <start_-0xffe08>
 190:	64 69 6f 00 69 6e 63 	imul   $0x6c636e69,%fs:0x0(%edi),%ebp
 197:	6c 
 198:	75 64                	jne    1fe <start_-0xffe0e>
 19a:	65 73 2f             	gs jae 1cc <start_-0xffe40>
 19d:	6c                   	insb   (%dx),%es:(%edi)
 19e:	69 62 63 00 73 74 64 	imul   $0x64747300,0x63(%edx),%esp
 1a5:	61                   	popa   
 1a6:	72 67                	jb     20f <start_-0xffdfd>
 1a8:	2e 68 00 73 74 64    	cs push $0x64747300
 1ae:	6c                   	insb   (%dx),%es:(%edi)
 1af:	69 62 2e 68 00 73 74 	imul   $0x74730068,0x2e(%edx),%esp
 1b6:	72 69                	jb     221 <start_-0xffdeb>
 1b8:	6e                   	outsb  %ds:(%esi),(%dx)
 1b9:	67 2e 68 00 6c 69 62 	addr16 cs push $0x62696c00
 1c0:	73 2f                	jae    1f1 <start_-0xffe1b>
 1c2:	6c                   	insb   (%dx),%es:(%edi)
 1c3:	69 62 63 2f 73 74 64 	imul   $0x6474732f,0x63(%edx),%esp
 1ca:	69 6f 2f 70 72 69 6e 	imul   $0x6e697270,0x2f(%edi),%ebp
 1d1:	74 66                	je     239 <start_-0xffdd3>
 1d3:	2e 63 00             	arpl   %ax,%cs:(%eax)
 1d6:	69 6e 63 6c 75 64 65 	imul   $0x6564756c,0x63(%esi),%ebp
 1dd:	73 2f                	jae    20e <start_-0xffdfe>
 1df:	6c                   	insb   (%dx),%es:(%edi)
 1e0:	75 6e                	jne    250 <start_-0xffdbc>
 1e2:	61                   	popa   
 1e3:	69 78 2f 74 74 79 00 	imul   $0x797474,0x2f(%eax),%edi
 1ea:	74 74                	je     260 <start_-0xffdac>
 1ec:	79 2e                	jns    21c <start_-0xffdf0>
 1ee:	68 00 73 74 64       	push   $0x64747300
 1f3:	69 6f 2e 68 00 6b 65 	imul   $0x656b0068,0x2e(%edi),%ebp
 1fa:	72 6e                	jb     26a <start_-0xffda2>
 1fc:	65 6c                	gs insb (%dx),%es:(%edi)
 1fe:	2f                   	das    
 1ff:	6d                   	insl   (%dx),%es:(%edi)
 200:	6d                   	insl   (%dx),%es:(%edi)
 201:	2f                   	das    
 202:	76 6d                	jbe    271 <start_-0xffd9b>
 204:	6d                   	insl   (%dx),%es:(%edi)
 205:	2e 63 00             	arpl   %ax,%cs:(%eax)
 208:	6b 65 72 6e          	imul   $0x6e,0x72(%ebp),%esp
 20c:	65 6c                	gs insb (%dx),%es:(%edi)
 20e:	2f                   	das    
 20f:	6d                   	insl   (%dx),%es:(%edi)
 210:	6d                   	insl   (%dx),%es:(%edi)
 211:	00 70 6d             	add    %dh,0x6d(%eax)
 214:	6d                   	insl   (%dx),%es:(%edi)
 215:	2e 68 00 6b 65 72    	cs push $0x72656b00
 21b:	6e                   	outsb  %ds:(%esi),(%dx)
 21c:	65 6c                	gs insb (%dx),%es:(%edi)
 21e:	2f                   	das    
 21f:	6d                   	insl   (%dx),%es:(%edi)
 220:	6d                   	insl   (%dx),%es:(%edi)
 221:	2f                   	das    
 222:	70 6d                	jo     291 <start_-0xffd7b>
 224:	6d                   	insl   (%dx),%es:(%edi)
 225:	2e 63 00             	arpl   %ax,%cs:(%eax)
 228:	6b 65 72 6e          	imul   $0x6e,0x72(%ebp),%esp
 22c:	65 6c                	gs insb (%dx),%es:(%edi)
 22e:	2f                   	das    
 22f:	6b 5f 6d 61          	imul   $0x61,0x6d(%edi),%ebx
 233:	69 6e 2e 63 00 6b 65 	imul   $0x656b0063,0x2e(%esi),%ebp
 23a:	72 6e                	jb     2aa <start_-0xffd62>
 23c:	65 6c                	gs insb (%dx),%es:(%edi)
 23e:	00 69 6e             	add    %ch,0x6e(%ecx)
 241:	63 6c 75 64          	arpl   %bp,0x64(%ebp,%esi,2)
 245:	65 73 2f             	gs jae 277 <start_-0xffd95>
 248:	61                   	popa   
 249:	72 63                	jb     2ae <start_-0xffd5e>
 24b:	68 2f 78 38 36       	push   $0x3638782f
 250:	00 76 6d             	add    %dh,0x6d(%esi)
 253:	6d                   	insl   (%dx),%es:(%edi)
 254:	2e 68 00 69 64 74    	cs push $0x74646900
 25a:	2e 68 00 6b 65 72    	cs push $0x72656b00
 260:	6e                   	outsb  %ds:(%esi),(%dx)
 261:	65 6c                	gs insb (%dx),%es:(%edi)
 263:	2f                   	das    
 264:	74 74                	je     2da <start_-0xffd32>
 266:	79 2f                	jns    297 <start_-0xffd75>
 268:	74 74                	je     2de <start_-0xffd2e>
 26a:	79 2e                	jns    29a <start_-0xffd72>
 26c:	63 00                	arpl   %ax,(%eax)
 26e:	6b 65 72 6e          	imul   $0x6e,0x72(%ebp),%esp
 272:	65 6c                	gs insb (%dx),%es:(%edi)
 274:	2f                   	das    
 275:	74 74                	je     2eb <start_-0xffd21>
 277:	79 00                	jns    279 <start_-0xffd93>
 279:	6b 65 72 6e          	imul   $0x6e,0x72(%ebp),%esp
 27d:	65 6c                	gs insb (%dx),%es:(%edi)
 27f:	2f                   	das    
 280:	61                   	popa   
 281:	73 6d                	jae    2f0 <start_-0xffd1c>
 283:	2f                   	das    
 284:	78 38                	js     2be <start_-0xffd4e>
 286:	36 2f                	ss das 
 288:	67 64 74 2e          	addr16 fs je 2ba <start_-0xffd52>
 28c:	63 00                	arpl   %ax,(%eax)
 28e:	6b 65 72 6e          	imul   $0x6e,0x72(%ebp),%esp
 292:	65 6c                	gs insb (%dx),%es:(%edi)
 294:	2f                   	das    
 295:	61                   	popa   
 296:	73 6d                	jae    305 <start_-0xffd07>
 298:	2f                   	das    
 299:	78 38                	js     2d3 <start_-0xffd39>
 29b:	36 00 6b 65          	add    %ch,%ss:0x65(%ebx)
 29f:	72 6e                	jb     30f <start_-0xffcfd>
 2a1:	65 6c                	gs insb (%dx),%es:(%edi)
 2a3:	2f                   	das    
 2a4:	61                   	popa   
 2a5:	73 6d                	jae    314 <start_-0xffcf8>
 2a7:	2f                   	das    
 2a8:	78 38                	js     2e2 <start_-0xffd2a>
 2aa:	36 2f                	ss das 
 2ac:	69 6e 74 65 72 72 75 	imul   $0x75727265,0x74(%esi),%ebp
 2b3:	70 74                	jo     329 <start_-0xffce3>
 2b5:	73 2e                	jae    2e5 <start_-0xffd27>
 2b7:	63 00                	arpl   %ax,(%eax)
 2b9:	69 6e 74 65 72 72 75 	imul   $0x75727265,0x74(%esi),%ebp
 2c0:	70 74                	jo     336 <start_-0xffcd6>
 2c2:	73 2e                	jae    2f2 <start_-0xffd1a>
 2c4:	68 00 6b 65 72       	push   $0x72656b00
 2c9:	6e                   	outsb  %ds:(%esi),(%dx)
 2ca:	65 6c                	gs insb (%dx),%es:(%edi)
 2cc:	2f                   	das    
 2cd:	61                   	popa   
 2ce:	73 6d                	jae    33d <start_-0xffccf>
 2d0:	2f                   	das    
 2d1:	78 38                	js     30b <start_-0xffd01>
 2d3:	36 2f                	ss das 
 2d5:	69                   	.byte 0x69
 2d6:	64 74 2e             	fs je  307 <start_-0xffd05>
 2d9:	63 00                	arpl   %ax,(%eax)

Disassembly of section .comment:

00000000 <.comment>:
   0:	47                   	inc    %edi
   1:	43                   	inc    %ebx
   2:	43                   	inc    %ebx
   3:	3a 20                	cmp    (%eax),%ah
   5:	28 47 4e             	sub    %al,0x4e(%edi)
   8:	55                   	push   %ebp
   9:	29 20                	sub    %esp,(%eax)
   b:	31 31                	xor    %esi,(%ecx)
   d:	2e 32 2e             	xor    %cs:(%esi),%ch
  10:	30 00                	xor    %al,(%eax)

Disassembly of section .debug_frame:

00000000 <.debug_frame>:
   0:	10 00                	adc    %al,(%eax)
   2:	00 00                	add    %al,(%eax)
   4:	ff                   	(bad)  
   5:	ff                   	(bad)  
   6:	ff                   	(bad)  
   7:	ff 01                	incl   (%ecx)
   9:	00 01                	add    %al,(%ecx)
   b:	7c 08                	jl     15 <start_-0xffff7>
   d:	0c 04                	or     $0x4,%al
   f:	04 88                	add    $0x88,%al
  11:	01 00                	add    %eax,(%eax)
  13:	00 14 00             	add    %dl,(%eax,%eax,1)
  16:	00 00                	add    %al,(%eax)
  18:	00 00                	add    %al,(%eax)
  1a:	00 00                	add    %al,(%eax)
  1c:	2e 71 10             	jno,pn 2f <start_-0xfffdd>
  1f:	c0 10 00             	rclb   $0x0,(%eax)
  22:	00 00                	add    %al,(%eax)
  24:	43                   	inc    %ebx
  25:	0e                   	push   %cs
  26:	14 4c                	adc    $0x4c,%al
  28:	0e                   	push   %cs
  29:	04 00                	add    $0x0,%al
  2b:	00 10                	add    %dl,(%eax)
  2d:	00 00                	add    %al,(%eax)
  2f:	00 ff                	add    %bh,%bh
  31:	ff                   	(bad)  
  32:	ff                   	(bad)  
  33:	ff 01                	incl   (%ecx)
  35:	00 01                	add    %al,(%ecx)
  37:	7c 08                	jl     41 <start_-0xfffcb>
  39:	0c 04                	or     $0x4,%al
  3b:	04 88                	add    $0x88,%al
  3d:	01 00                	add    %eax,(%eax)
  3f:	00 14 00             	add    %dl,(%eax,%eax,1)
  42:	00 00                	add    %al,(%eax)
  44:	2c 00                	sub    $0x0,%al
  46:	00 00                	add    %al,(%eax)
  48:	57                   	push   %edi
  49:	00 10                	add    %dl,(%eax)
  4b:	00 ac 01 00 00 43 0e 	add    %ch,0xe430000(%ecx,%eax,1)
  52:	24 03                	and    $0x3,%al
  54:	a8 01                	test   $0x1,%al
  56:	0e                   	push   %cs
  57:	04 14                	add    $0x14,%al
  59:	00 00                	add    %al,(%eax)
  5b:	00 2c 00             	add    %ch,(%eax,%eax,1)
  5e:	00 00                	add    %al,(%eax)
  60:	03 02                	add    (%edx),%eax
  62:	10 00                	adc    %al,(%eax)
  64:	3d 00 00 00 43       	cmp    $0x43000000,%eax
  69:	0e                   	push   %cs
  6a:	14 79                	adc    $0x79,%al
  6c:	0e                   	push   %cs
  6d:	04 00                	add    $0x0,%al
  6f:	00 34 00             	add    %dh,(%eax,%eax,1)
  72:	00 00                	add    %al,(%eax)
  74:	2c 00                	sub    $0x0,%al
  76:	00 00                	add    %al,(%eax)
  78:	40                   	inc    %eax
  79:	02 10                	add    (%eax),%dl
  7b:	00 c6                	add    %al,%dh
  7d:	00 00                	add    %al,(%eax)
  7f:	00 41 0e             	add    %al,0xe(%ecx)
  82:	08 83 02 43 0e 18    	or     %al,0x180e4302(%ebx)
  88:	02 65 0e             	add    0xe(%ebp),%ah
  8b:	1c 41                	sbb    $0x41,%al
  8d:	0e                   	push   %cs
  8e:	20 41 0e             	and    %al,0xe(%ecx)
  91:	24 48                	and    $0x48,%al
  93:	0e                   	push   %cs
  94:	18 7f 0e             	sbb    %bh,0xe(%edi)
  97:	1c 41                	sbb    $0x41,%al
  99:	0e                   	push   %cs
  9a:	20 41 0e             	and    %al,0xe(%ecx)
  9d:	24 48                	and    $0x48,%al
  9f:	0e                   	push   %cs
  a0:	18 48 0e             	sbb    %cl,0xe(%eax)
  a3:	08 41 c3             	or     %al,-0x3d(%ecx)
  a6:	0e                   	push   %cs
  a7:	04 18                	add    $0x18,%al
  a9:	00 00                	add    %al,(%eax)
  ab:	00 2c 00             	add    %ch,(%eax,%eax,1)
  ae:	00 00                	add    %al,(%eax)
  b0:	06                   	push   %es
  b1:	03 10                	add    (%eax),%edx
  b3:	00 42 00             	add    %al,0x0(%edx)
  b6:	00 00                	add    %al,(%eax)
  b8:	43                   	inc    %ebx
  b9:	0e                   	push   %cs
  ba:	14 72                	adc    $0x72,%al
  bc:	0e                   	push   %cs
  bd:	18 48 0e             	sbb    %cl,0xe(%eax)
  c0:	14 44                	adc    $0x44,%al
  c2:	0e                   	push   %cs
  c3:	04 10                	add    $0x10,%al
  c5:	00 00                	add    %al,(%eax)
  c7:	00 ff                	add    %bh,%bh
  c9:	ff                   	(bad)  
  ca:	ff                   	(bad)  
  cb:	ff 01                	incl   (%ecx)
  cd:	00 01                	add    %al,(%ecx)
  cf:	7c 08                	jl     d9 <start_-0xfff33>
  d1:	0c 04                	or     $0x4,%al
  d3:	04 88                	add    $0x88,%al
  d5:	01 00                	add    %eax,(%eax)
  d7:	00 14 00             	add    %dl,(%eax,%eax,1)
  da:	00 00                	add    %al,(%eax)
  dc:	c4 00                	les    (%eax),%eax
  de:	00 00                	add    %al,(%eax)
  e0:	3e 71 10             	jno,pt f3 <start_-0xfff19>
  e3:	c0 f0 00             	shl    $0x0,%al
  e6:	00 00                	add    %al,(%eax)
  e8:	43                   	inc    %ebx
  e9:	0e                   	push   %cs
  ea:	14 02                	adc    $0x2,%al
  ec:	ec                   	in     (%dx),%al
  ed:	0e                   	push   %cs
  ee:	04 00                	add    $0x0,%al
  f0:	30 00                	xor    %al,(%eax)
  f2:	00 00                	add    %al,(%eax)
  f4:	c4 00                	les    (%eax),%eax
  f6:	00 00                	add    %al,(%eax)
  f8:	2e 72 10             	jb,pn  10b <start_-0xfff01>
  fb:	c0 61 00 00          	shlb   $0x0,0x0(%ecx)
  ff:	00 43 0e             	add    %al,0xe(%ebx)
 102:	14 6a                	adc    $0x6a,%al
 104:	0e                   	push   %cs
 105:	18 44 0e 1c          	sbb    %al,0x1c(%esi,%ecx,1)
 109:	41                   	inc    %ecx
 10a:	0e                   	push   %cs
 10b:	20 44 0e 24          	and    %al,0x24(%esi,%ecx,1)
 10f:	48                   	dec    %eax
 110:	0e                   	push   %cs
 111:	14 4a                	adc    $0x4a,%al
 113:	0e                   	push   %cs
 114:	18 44 0e 1c          	sbb    %al,0x1c(%esi,%ecx,1)
 118:	44                   	inc    %esp
 119:	0e                   	push   %cs
 11a:	20 41 0e             	and    %al,0xe(%ecx)
 11d:	24 48                	and    $0x48,%al
 11f:	0e                   	push   %cs
 120:	14 47                	adc    $0x47,%al
 122:	0e                   	push   %cs
 123:	04 1c                	add    $0x1c,%al
 125:	00 00                	add    %al,(%eax)
 127:	00 c4                	add    %al,%ah
 129:	00 00                	add    %al,(%eax)
 12b:	00 8f 72 10 c0 17    	add    %cl,0x17c01072(%edi)
 131:	00 00                	add    %al,(%eax)
 133:	00 42 0e             	add    %al,0xe(%edx)
 136:	08 44 0e 0c          	or     %al,0xc(%esi,%ecx,1)
 13a:	44                   	inc    %esp
 13b:	0e                   	push   %cs
 13c:	10 44 0e 14          	adc    %al,0x14(%esi,%ecx,1)
 140:	48                   	dec    %eax
 141:	0e                   	push   %cs
 142:	04 00                	add    $0x0,%al
 144:	10 00                	adc    %al,(%eax)
 146:	00 00                	add    %al,(%eax)
 148:	ff                   	(bad)  
 149:	ff                   	(bad)  
 14a:	ff                   	(bad)  
 14b:	ff 01                	incl   (%ecx)
 14d:	00 01                	add    %al,(%ecx)
 14f:	7c 08                	jl     159 <start_-0xffeb3>
 151:	0c 04                	or     $0x4,%al
 153:	04 88                	add    $0x88,%al
 155:	01 00                	add    %eax,(%eax)
 157:	00 14 00             	add    %dl,(%eax,%eax,1)
 15a:	00 00                	add    %al,(%eax)
 15c:	44                   	inc    %esp
 15d:	01 00                	add    %eax,(%eax)
 15f:	00 a6 72 10 c0 50    	add    %ah,0x50c01072(%esi)
 165:	00 00                	add    %al,(%eax)
 167:	00 43 0e             	add    %al,0xe(%ebx)
 16a:	14 02                	adc    $0x2,%al
 16c:	4c                   	dec    %esp
 16d:	0e                   	push   %cs
 16e:	04 00                	add    $0x0,%al
 170:	10 00                	adc    %al,(%eax)
 172:	00 00                	add    %al,(%eax)
 174:	ff                   	(bad)  
 175:	ff                   	(bad)  
 176:	ff                   	(bad)  
 177:	ff 01                	incl   (%ecx)
 179:	00 01                	add    %al,(%ecx)
 17b:	7c 08                	jl     185 <start_-0xffe87>
 17d:	0c 04                	or     $0x4,%al
 17f:	04 88                	add    $0x88,%al
 181:	01 00                	add    %eax,(%eax)
 183:	00 14 00             	add    %dl,(%eax,%eax,1)
 186:	00 00                	add    %al,(%eax)
 188:	70 01                	jo     18b <start_-0xffe81>
 18a:	00 00                	add    %al,(%eax)
 18c:	f6 72 10             	divb   0x10(%edx)
 18f:	c0 2b 00             	shrb   $0x0,(%ebx)
 192:	00 00                	add    %al,(%eax)
 194:	43                   	inc    %ebx
 195:	0e                   	push   %cs
 196:	14 67                	adc    $0x67,%al
 198:	0e                   	push   %cs
 199:	04 00                	add    $0x0,%al
 19b:	00 10                	add    %dl,(%eax)
 19d:	00 00                	add    %al,(%eax)
 19f:	00 ff                	add    %bh,%bh
 1a1:	ff                   	(bad)  
 1a2:	ff                   	(bad)  
 1a3:	ff 01                	incl   (%ecx)
 1a5:	00 01                	add    %al,(%ecx)
 1a7:	7c 08                	jl     1b1 <start_-0xffe5b>
 1a9:	0c 04                	or     $0x4,%al
 1ab:	04 88                	add    $0x88,%al
 1ad:	01 00                	add    %eax,(%eax)
 1af:	00 14 00             	add    %dl,(%eax,%eax,1)
 1b2:	00 00                	add    %al,(%eax)
 1b4:	9c                   	pushf  
 1b5:	01 00                	add    %eax,(%eax)
 1b7:	00 21                	add    %ah,(%ecx)
 1b9:	73 10                	jae    1cb <start_-0xffe41>
 1bb:	c0 4d 00 00          	rorb   $0x0,0x0(%ebp)
 1bf:	00 43 0e             	add    %al,0xe(%ebx)
 1c2:	14 02                	adc    $0x2,%al
 1c4:	49                   	dec    %ecx
 1c5:	0e                   	push   %cs
 1c6:	04 00                	add    $0x0,%al
 1c8:	14 00                	adc    $0x0,%al
 1ca:	00 00                	add    %al,(%eax)
 1cc:	9c                   	pushf  
 1cd:	01 00                	add    %eax,(%eax)
 1cf:	00 6e 73             	add    %ch,0x73(%esi)
 1d2:	10 c0                	adc    %al,%al
 1d4:	8a 00                	mov    (%eax),%al
 1d6:	00 00                	add    %al,(%eax)
 1d8:	43                   	inc    %ebx
 1d9:	0e                   	push   %cs
 1da:	14 02                	adc    $0x2,%al
 1dc:	86 0e                	xchg   %cl,(%esi)
 1de:	04 00                	add    $0x0,%al
 1e0:	14 00                	adc    $0x0,%al
 1e2:	00 00                	add    %al,(%eax)
 1e4:	9c                   	pushf  
 1e5:	01 00                	add    %eax,(%eax)
 1e7:	00 f8                	add    %bh,%al
 1e9:	73 10                	jae    1fb <start_-0xffe11>
 1eb:	c0 3c 00 00          	sarb   $0x0,(%eax,%eax,1)
 1ef:	00 43 0e             	add    %al,0xe(%ebx)
 1f2:	14 78                	adc    $0x78,%al
 1f4:	0e                   	push   %cs
 1f5:	04 00                	add    $0x0,%al
 1f7:	00 14 00             	add    %dl,(%eax,%eax,1)
 1fa:	00 00                	add    %al,(%eax)
 1fc:	9c                   	pushf  
 1fd:	01 00                	add    %eax,(%eax)
 1ff:	00 34 74             	add    %dh,(%esp,%esi,2)
 202:	10 c0                	adc    %al,%al
 204:	65 00 00             	add    %al,%gs:(%eax)
 207:	00 43 0e             	add    %al,0xe(%ebx)
 20a:	14 02                	adc    $0x2,%al
 20c:	61                   	popa   
 20d:	0e                   	push   %cs
 20e:	04 00                	add    $0x0,%al
 210:	10 00                	adc    %al,(%eax)
 212:	00 00                	add    %al,(%eax)
 214:	ff                   	(bad)  
 215:	ff                   	(bad)  
 216:	ff                   	(bad)  
 217:	ff 01                	incl   (%ecx)
 219:	00 01                	add    %al,(%ecx)
 21b:	7c 08                	jl     225 <start_-0xffde7>
 21d:	0c 04                	or     $0x4,%al
 21f:	04 88                	add    $0x88,%al
 221:	01 00                	add    %eax,(%eax)
 223:	00 78 00             	add    %bh,0x0(%eax)
 226:	00 00                	add    %al,(%eax)
 228:	10 02                	adc    %al,(%edx)
 22a:	00 00                	add    %al,(%eax)
 22c:	99                   	cltd   
 22d:	74 10                	je     23f <start_-0xffdcd>
 22f:	c0 c9 02             	ror    $0x2,%cl
 232:	00 00                	add    %al,(%eax)
 234:	43                   	inc    %ebx
 235:	0e                   	push   %cs
 236:	40                   	inc    %eax
 237:	02 d4                	add    %ah,%dl
 239:	0e                   	push   %cs
 23a:	48                   	dec    %eax
 23b:	44                   	inc    %esp
 23c:	0e                   	push   %cs
 23d:	4c                   	dec    %esp
 23e:	41                   	inc    %ecx
 23f:	0e                   	push   %cs
 240:	50                   	push   %eax
 241:	48                   	dec    %eax
 242:	0e                   	push   %cs
 243:	40                   	inc    %eax
 244:	43                   	inc    %ebx
 245:	0e                   	push   %cs
 246:	4c                   	dec    %esp
 247:	44                   	inc    %esp
 248:	0e                   	push   %cs
 249:	50                   	push   %eax
 24a:	48                   	dec    %eax
 24b:	0e                   	push   %cs
 24c:	40                   	inc    %eax
 24d:	69 0e 44 42 0e 48    	imul   $0x480e4244,(%esi),%ecx
 253:	41                   	inc    %ecx
 254:	0e                   	push   %cs
 255:	4c                   	dec    %esp
 256:	44                   	inc    %esp
 257:	0e                   	push   %cs
 258:	50                   	push   %eax
 259:	48                   	dec    %eax
 25a:	0e                   	push   %cs
 25b:	40                   	inc    %eax
 25c:	65 0e                	gs push %cs
 25e:	44                   	inc    %esp
 25f:	42                   	inc    %edx
 260:	0e                   	push   %cs
 261:	48                   	dec    %eax
 262:	41                   	inc    %ecx
 263:	0e                   	push   %cs
 264:	4c                   	dec    %esp
 265:	44                   	inc    %esp
 266:	0e                   	push   %cs
 267:	50                   	push   %eax
 268:	48                   	dec    %eax
 269:	0e                   	push   %cs
 26a:	40                   	inc    %eax
 26b:	65 0e                	gs push %cs
 26d:	44                   	inc    %esp
 26e:	42                   	inc    %edx
 26f:	0e                   	push   %cs
 270:	48                   	dec    %eax
 271:	41                   	inc    %ecx
 272:	0e                   	push   %cs
 273:	4c                   	dec    %esp
 274:	44                   	inc    %esp
 275:	0e                   	push   %cs
 276:	50                   	push   %eax
 277:	48                   	dec    %eax
 278:	0e                   	push   %cs
 279:	40                   	inc    %eax
 27a:	65 0e                	gs push %cs
 27c:	44                   	inc    %esp
 27d:	42                   	inc    %edx
 27e:	0e                   	push   %cs
 27f:	48                   	dec    %eax
 280:	41                   	inc    %ecx
 281:	0e                   	push   %cs
 282:	4c                   	dec    %esp
 283:	44                   	inc    %esp
 284:	0e                   	push   %cs
 285:	50                   	push   %eax
 286:	48                   	dec    %eax
 287:	0e                   	push   %cs
 288:	40                   	inc    %eax
 289:	02 95 0e 44 42 0e    	add    0xe42440e(%ebp),%dl
 28f:	48                   	dec    %eax
 290:	41                   	inc    %ecx
 291:	0e                   	push   %cs
 292:	4c                   	dec    %esp
 293:	41                   	inc    %ecx
 294:	0e                   	push   %cs
 295:	50                   	push   %eax
 296:	48                   	dec    %eax
 297:	0e                   	push   %cs
 298:	40                   	inc    %eax
 299:	02 60 0e             	add    0xe(%eax),%ah
 29c:	04 00                	add    $0x0,%al
 29e:	00 00                	add    %al,(%eax)
 2a0:	24 00                	and    $0x0,%al
 2a2:	00 00                	add    %al,(%eax)
 2a4:	10 02                	adc    %al,(%edx)
 2a6:	00 00                	add    %al,(%eax)
 2a8:	62 77 10             	bound  %esi,0x10(%edi)
 2ab:	c0 28 00             	shrb   $0x0,(%eax)
 2ae:	00 00                	add    %al,(%eax)
 2b0:	43                   	inc    %ebx
 2b1:	0e                   	push   %cs
 2b2:	20 4f 0e             	and    %cl,0xe(%edi)
 2b5:	24 41                	and    $0x41,%al
 2b7:	0e                   	push   %cs
 2b8:	28 44 0e 2c          	sub    %al,0x2c(%esi,%ecx,1)
 2bc:	44                   	inc    %esp
 2bd:	0e                   	push   %cs
 2be:	30 48 0e             	xor    %cl,0xe(%eax)
 2c1:	20 44 0e 04          	and    %al,0x4(%esi,%ecx,1)
 2c5:	00 00                	add    %al,(%eax)
 2c7:	00 10                	add    %dl,(%eax)
 2c9:	00 00                	add    %al,(%eax)
 2cb:	00 ff                	add    %bh,%bh
 2cd:	ff                   	(bad)  
 2ce:	ff                   	(bad)  
 2cf:	ff 01                	incl   (%ecx)
 2d1:	00 01                	add    %al,(%ecx)
 2d3:	7c 08                	jl     2dd <start_-0xffd2f>
 2d5:	0c 04                	or     $0x4,%al
 2d7:	04 88                	add    $0x88,%al
 2d9:	01 00                	add    %eax,(%eax)
 2db:	00 34 00             	add    %dh,(%eax,%eax,1)
 2de:	00 00                	add    %al,(%eax)
 2e0:	c8 02 00 00          	enter  $0x2,$0x0
 2e4:	8a 77 10             	mov    0x10(%edi),%dh
 2e7:	c0 45 00 00          	rolb   $0x0,0x0(%ebp)
 2eb:	00 46 0e             	add    %al,0xe(%esi)
 2ee:	a0 08 52 0e a4       	mov    0xa40e5208,%al
 2f3:	08 41 0e             	or     %al,0xe(%ecx)
 2f6:	a8 08                	test   $0x8,%al
 2f8:	47                   	inc    %edi
 2f9:	0e                   	push   %cs
 2fa:	ac                   	lods   %ds:(%esi),%al
 2fb:	08 45 0e             	or     %al,0xe(%ebp)
 2fe:	b0 08                	mov    $0x8,%al
 300:	48                   	dec    %eax
 301:	0e                   	push   %cs
 302:	a0 08 43 0e ac       	mov    0xac0e4308,%al
 307:	08 45 0e             	or     %al,0xe(%ebp)
 30a:	b0 08                	mov    $0x8,%al
 30c:	48                   	dec    %eax
 30d:	0e                   	push   %cs
 30e:	a0 08 47 0e 04       	mov    0x40e4708,%al
 313:	00 10                	add    %dl,(%eax)
 315:	00 00                	add    %al,(%eax)
 317:	00 ff                	add    %bh,%bh
 319:	ff                   	(bad)  
 31a:	ff                   	(bad)  
 31b:	ff 01                	incl   (%ecx)
 31d:	00 01                	add    %al,(%ecx)
 31f:	7c 08                	jl     329 <start_-0xffce3>
 321:	0c 04                	or     $0x4,%al
 323:	04 88                	add    $0x88,%al
 325:	01 00                	add    %eax,(%eax)
 327:	00 14 00             	add    %dl,(%eax,%eax,1)
 32a:	00 00                	add    %al,(%eax)
 32c:	14 03                	adc    $0x3,%al
 32e:	00 00                	add    %al,(%eax)
 330:	00 60 10             	add    %ah,0x10(%eax)
 333:	c0 10 00             	rclb   $0x0,(%eax)
 336:	00 00                	add    %al,(%eax)
 338:	43                   	inc    %ebx
 339:	0e                   	push   %cs
 33a:	14 4c                	adc    $0x4c,%al
 33c:	0e                   	push   %cs
 33d:	04 00                	add    $0x0,%al
 33f:	00 0c 00             	add    %cl,(%eax,%eax,1)
 342:	00 00                	add    %al,(%eax)
 344:	14 03                	adc    $0x3,%al
 346:	00 00                	add    %al,(%eax)
 348:	10 60 10             	adc    %ah,0x10(%eax)
 34b:	c0 02 00             	rolb   $0x0,(%edx)
 34e:	00 00                	add    %al,(%eax)
 350:	0c 00                	or     $0x0,%al
 352:	00 00                	add    %al,(%eax)
 354:	14 03                	adc    $0x3,%al
 356:	00 00                	add    %al,(%eax)
 358:	12 60 10             	adc    0x10(%eax),%ah
 35b:	c0 02 00             	rolb   $0x0,(%edx)
 35e:	00 00                	add    %al,(%eax)
 360:	14 00                	adc    $0x0,%al
 362:	00 00                	add    %al,(%eax)
 364:	14 03                	adc    $0x3,%al
 366:	00 00                	add    %al,(%eax)
 368:	14 60                	adc    $0x60,%al
 36a:	10 c0                	adc    %al,%al
 36c:	5d                   	pop    %ebp
 36d:	00 00                	add    %al,(%eax)
 36f:	00 43 0e             	add    %al,0xe(%ebx)
 372:	20 02                	and    %al,(%edx)
 374:	59                   	pop    %ecx
 375:	0e                   	push   %cs
 376:	04 00                	add    $0x0,%al
 378:	30 00                	xor    %al,(%eax)
 37a:	00 00                	add    %al,(%eax)
 37c:	14 03                	adc    $0x3,%al
 37e:	00 00                	add    %al,(%eax)
 380:	71 60                	jno    3e2 <start_-0xffc2a>
 382:	10 c0                	adc    %al,%al
 384:	f3 01 00             	repz add %eax,(%eax)
 387:	00 41 0e             	add    %al,0xe(%ecx)
 38a:	08 83 02 43 0e 30    	or     %al,0x300e4302(%ebx)
 390:	03 92 01 0e 34 45    	add    0x45340e01(%edx),%edx
 396:	0e                   	push   %cs
 397:	38 42 0e             	cmp    %al,0xe(%edx)
 39a:	3c 41                	cmp    $0x41,%al
 39c:	0e                   	push   %cs
 39d:	40                   	inc    %eax
 39e:	48                   	dec    %eax
 39f:	0e                   	push   %cs
 3a0:	30 02                	xor    %al,(%edx)
 3a2:	4b                   	dec    %ebx
 3a3:	0e                   	push   %cs
 3a4:	08 41 c3             	or     %al,-0x3d(%ecx)
 3a7:	0e                   	push   %cs
 3a8:	04 00                	add    $0x0,%al
 3aa:	00 00                	add    %al,(%eax)
 3ac:	2c 00                	sub    $0x0,%al
 3ae:	00 00                	add    %al,(%eax)
 3b0:	14 03                	adc    $0x3,%al
 3b2:	00 00                	add    %al,(%eax)
 3b4:	64 62 10             	bound  %edx,%fs:(%eax)
 3b7:	c0 46 00 00          	rolb   $0x0,0x0(%esi)
 3bb:	00 43 0e             	add    %al,0xe(%ebx)
 3be:	20 4d 0e             	and    %cl,0xe(%ebp)
 3c1:	24 44                	and    $0x44,%al
 3c3:	0e                   	push   %cs
 3c4:	28 44 0e 2c          	sub    %al,0x2c(%esi,%ecx,1)
 3c8:	44                   	inc    %esp
 3c9:	0e                   	push   %cs
 3ca:	30 48 0e             	xor    %cl,0xe(%eax)
 3cd:	20 4e 0e             	and    %cl,0xe(%esi)
 3d0:	2c 44                	sub    $0x44,%al
 3d2:	0e                   	push   %cs
 3d3:	30 48 0e             	xor    %cl,0xe(%eax)
 3d6:	20 47 0e             	and    %al,0xe(%edi)
 3d9:	04 00                	add    $0x0,%al
 3db:	00 1c 00             	add    %bl,(%eax,%eax,1)
 3de:	00 00                	add    %al,(%eax)
 3e0:	14 03                	adc    $0x3,%al
 3e2:	00 00                	add    %al,(%eax)
 3e4:	aa                   	stos   %al,%es:(%edi)
 3e5:	62 10                	bound  %edx,(%eax)
 3e7:	c0 a2 00 00 00 43 0e 	shlb   $0xe,0x43000000(%edx)
 3ee:	30 02                	xor    %al,(%edx)
 3f0:	7a 0e                	jp     400 <start_-0xffc0c>
 3f2:	3c 41                	cmp    $0x41,%al
 3f4:	0e                   	push   %cs
 3f5:	40                   	inc    %eax
 3f6:	48                   	dec    %eax
 3f7:	0e                   	push   %cs
 3f8:	30 5b 0e             	xor    %bl,0xe(%ebx)
 3fb:	04 14                	add    $0x14,%al
 3fd:	00 00                	add    %al,(%eax)
 3ff:	00 14 03             	add    %dl,(%ebx,%eax,1)
 402:	00 00                	add    %al,(%eax)
 404:	4c                   	dec    %esp
 405:	63 10                	arpl   %dx,(%eax)
 407:	c0 98 00 00 00 43 0e 	rcrb   $0xe,0x43000000(%eax)
 40e:	24 02                	and    $0x2,%al
 410:	94                   	xchg   %eax,%esp
 411:	0e                   	push   %cs
 412:	04 00                	add    $0x0,%al
 414:	10 00                	adc    %al,(%eax)
 416:	00 00                	add    %al,(%eax)
 418:	ff                   	(bad)  
 419:	ff                   	(bad)  
 41a:	ff                   	(bad)  
 41b:	ff 01                	incl   (%ecx)
 41d:	00 01                	add    %al,(%ecx)
 41f:	7c 08                	jl     429 <start_-0xffbe3>
 421:	0c 04                	or     $0x4,%al
 423:	04 88                	add    $0x88,%al
 425:	01 00                	add    %eax,(%eax)
 427:	00 14 00             	add    %dl,(%eax,%eax,1)
 42a:	00 00                	add    %al,(%eax)
 42c:	14 04                	adc    $0x4,%al
 42e:	00 00                	add    %al,(%eax)
 430:	e4 63                	in     $0x63,%al
 432:	10 c0                	adc    %al,%al
 434:	48                   	dec    %eax
 435:	00 00                	add    %al,(%eax)
 437:	00 43 0e             	add    %al,0xe(%ebx)
 43a:	14 02                	adc    $0x2,%al
 43c:	44                   	inc    %esp
 43d:	0e                   	push   %cs
 43e:	04 00                	add    $0x0,%al
 440:	14 00                	adc    $0x0,%al
 442:	00 00                	add    %al,(%eax)
 444:	14 04                	adc    $0x4,%al
 446:	00 00                	add    %al,(%eax)
 448:	2c 64                	sub    $0x64,%al
 44a:	10 c0                	adc    %al,%al
 44c:	46                   	inc    %esi
 44d:	00 00                	add    %al,(%eax)
 44f:	00 43 0e             	add    %al,0xe(%ebx)
 452:	14 02                	adc    $0x2,%al
 454:	42                   	inc    %edx
 455:	0e                   	push   %cs
 456:	04 00                	add    $0x0,%al
 458:	20 00                	and    %al,(%eax)
 45a:	00 00                	add    %al,(%eax)
 45c:	14 04                	adc    $0x4,%al
 45e:	00 00                	add    %al,(%eax)
 460:	72 64                	jb     4c6 <start_-0xffb46>
 462:	10 c0                	adc    %al,%al
 464:	2f                   	das    
 465:	01 00                	add    %eax,(%eax)
 467:	00 41 0e             	add    %al,0xe(%ecx)
 46a:	08 83 02 43 0e 28    	or     %al,0x280e4302(%ebx)
 470:	03 29                	add    (%ecx),%ebp
 472:	01 0e                	add    %ecx,(%esi)
 474:	08 41 c3             	or     %al,-0x3d(%ecx)
 477:	0e                   	push   %cs
 478:	04 00                	add    $0x0,%al
 47a:	00 00                	add    %al,(%eax)
 47c:	20 00                	and    %al,(%eax)
 47e:	00 00                	add    %al,(%eax)
 480:	14 04                	adc    $0x4,%al
 482:	00 00                	add    %al,(%eax)
 484:	a1 65 10 c0 2b       	mov    0x2bc01065,%eax
 489:	01 00                	add    %eax,(%eax)
 48b:	00 41 0e             	add    %al,0xe(%ecx)
 48e:	08 83 02 43 0e 28    	or     %al,0x280e4302(%ebx)
 494:	03 25 01 0e 08 41    	add    0x41080e01,%esp
 49a:	c3                   	ret    
 49b:	0e                   	push   %cs
 49c:	04 00                	add    $0x0,%al
 49e:	00 00                	add    %al,(%eax)
 4a0:	14 00                	adc    $0x0,%al
 4a2:	00 00                	add    %al,(%eax)
 4a4:	14 04                	adc    $0x4,%al
 4a6:	00 00                	add    %al,(%eax)
 4a8:	cc                   	int3   
 4a9:	66 10 c0             	data16 adc %al,%al
 4ac:	44                   	inc    %esp
 4ad:	00 00                	add    %al,(%eax)
 4af:	00 43 0e             	add    %al,0xe(%ebx)
 4b2:	14 02                	adc    $0x2,%al
 4b4:	40                   	inc    %eax
 4b5:	0e                   	push   %cs
 4b6:	04 00                	add    $0x0,%al
 4b8:	24 00                	and    $0x0,%al
 4ba:	00 00                	add    %al,(%eax)
 4bc:	14 04                	adc    $0x4,%al
 4be:	00 00                	add    %al,(%eax)
 4c0:	10 67 10             	adc    %ah,0x10(%edi)
 4c3:	c0 f9 00             	sar    $0x0,%cl
 4c6:	00 00                	add    %al,(%eax)
 4c8:	41                   	inc    %ecx
 4c9:	0e                   	push   %cs
 4ca:	08 83 02 43 0e 28    	or     %al,0x280e4302(%ebx)
 4d0:	02 6c 0e 2c          	add    0x2c(%esi,%ecx,1),%ch
 4d4:	48                   	dec    %eax
 4d5:	0e                   	push   %cs
 4d6:	28 02                	sub    %al,(%edx)
 4d8:	7f 0e                	jg     4e8 <start_-0xffb24>
 4da:	08 41 c3             	or     %al,-0x3d(%ecx)
 4dd:	0e                   	push   %cs
 4de:	04 00                	add    $0x0,%al
 4e0:	18 00                	sbb    %al,(%eax)
 4e2:	00 00                	add    %al,(%eax)
 4e4:	14 04                	adc    $0x4,%al
 4e6:	00 00                	add    %al,(%eax)
 4e8:	09 68 10             	or     %ebp,0x10(%eax)
 4eb:	c0 3c 00 00          	sarb   $0x0,(%eax,%eax,1)
 4ef:	00 43 0e             	add    %al,0xe(%ebx)
 4f2:	14 61                	adc    $0x61,%al
 4f4:	0e                   	push   %cs
 4f5:	18 48 0e             	sbb    %cl,0xe(%eax)
 4f8:	14 4f                	adc    $0x4f,%al
 4fa:	0e                   	push   %cs
 4fb:	04 10                	add    $0x10,%al
 4fd:	00 00                	add    %al,(%eax)
 4ff:	00 ff                	add    %bh,%bh
 501:	ff                   	(bad)  
 502:	ff                   	(bad)  
 503:	ff 01                	incl   (%ecx)
 505:	00 01                	add    %al,(%ecx)
 507:	7c 08                	jl     511 <start_-0xffafb>
 509:	0c 04                	or     $0x4,%al
 50b:	04 88                	add    $0x88,%al
 50d:	01 00                	add    %eax,(%eax)
 50f:	00 ec                	add    %ch,%ah
 511:	00 00                	add    %al,(%eax)
 513:	00 fc                	add    %bh,%ah
 515:	04 00                	add    $0x0,%al
 517:	00 45 68             	add    %al,0x68(%ebp)
 51a:	10 c0                	adc    %al,%al
 51c:	15 03 00 00 41       	adc    $0x41000003,%eax
 521:	0e                   	push   %cs
 522:	08 83 02 43 0e 50    	or     %al,0x500e4302(%ebx)
 528:	62 0e                	bound  %ecx,(%esi)
 52a:	5c                   	pop    %esp
 52b:	41                   	inc    %ecx
 52c:	0e                   	push   %cs
 52d:	60                   	pusha  
 52e:	48                   	dec    %eax
 52f:	0e                   	push   %cs
 530:	50                   	push   %eax
 531:	48                   	dec    %eax
 532:	0e                   	push   %cs
 533:	5c                   	pop    %esp
 534:	45                   	inc    %ebp
 535:	0e                   	push   %cs
 536:	60                   	pusha  
 537:	48                   	dec    %eax
 538:	0e                   	push   %cs
 539:	50                   	push   %eax
 53a:	43                   	inc    %ebx
 53b:	0e                   	push   %cs
 53c:	58                   	pop    %eax
 53d:	42                   	inc    %edx
 53e:	0e                   	push   %cs
 53f:	5c                   	pop    %esp
 540:	42                   	inc    %edx
 541:	0e                   	push   %cs
 542:	60                   	pusha  
 543:	48                   	dec    %eax
 544:	0e                   	push   %cs
 545:	50                   	push   %eax
 546:	43                   	inc    %ebx
 547:	0e                   	push   %cs
 548:	5c                   	pop    %esp
 549:	45                   	inc    %ebp
 54a:	0e                   	push   %cs
 54b:	60                   	pusha  
 54c:	48                   	dec    %eax
 54d:	0e                   	push   %cs
 54e:	50                   	push   %eax
 54f:	68 0e 54 41 0e       	push   $0xe41540e
 554:	58                   	pop    %eax
 555:	41                   	inc    %ecx
 556:	0e                   	push   %cs
 557:	5c                   	pop    %esp
 558:	45                   	inc    %ebp
 559:	0e                   	push   %cs
 55a:	60                   	pusha  
 55b:	48                   	dec    %eax
 55c:	0e                   	push   %cs
 55d:	50                   	push   %eax
 55e:	02 99 0e 54 41 0e    	add    0xe41540e(%ecx),%bl
 564:	58                   	pop    %eax
 565:	41                   	inc    %ecx
 566:	0e                   	push   %cs
 567:	5c                   	pop    %esp
 568:	45                   	inc    %ebp
 569:	0e                   	push   %cs
 56a:	60                   	pusha  
 56b:	48                   	dec    %eax
 56c:	0e                   	push   %cs
 56d:	50                   	push   %eax
 56e:	02 55 0e             	add    0xe(%ebp),%dl
 571:	58                   	pop    %eax
 572:	41                   	inc    %ecx
 573:	0e                   	push   %cs
 574:	5c                   	pop    %esp
 575:	41                   	inc    %ecx
 576:	0e                   	push   %cs
 577:	60                   	pusha  
 578:	48                   	dec    %eax
 579:	0e                   	push   %cs
 57a:	50                   	push   %eax
 57b:	69 0e 54 41 0e 58    	imul   $0x580e4154,(%esi),%ecx
 581:	41                   	inc    %ecx
 582:	0e                   	push   %cs
 583:	5c                   	pop    %esp
 584:	45                   	inc    %ebp
 585:	0e                   	push   %cs
 586:	60                   	pusha  
 587:	48                   	dec    %eax
 588:	0e                   	push   %cs
 589:	50                   	push   %eax
 58a:	74 0e                	je     59a <start_-0xffa72>
 58c:	58                   	pop    %eax
 58d:	44                   	inc    %esp
 58e:	0e                   	push   %cs
 58f:	5c                   	pop    %esp
 590:	41                   	inc    %ecx
 591:	0e                   	push   %cs
 592:	60                   	pusha  
 593:	48                   	dec    %eax
 594:	0e                   	push   %cs
 595:	50                   	push   %eax
 596:	43                   	inc    %ebx
 597:	0e                   	push   %cs
 598:	58                   	pop    %eax
 599:	44                   	inc    %esp
 59a:	0e                   	push   %cs
 59b:	5c                   	pop    %esp
 59c:	45                   	inc    %ebp
 59d:	0e                   	push   %cs
 59e:	60                   	pusha  
 59f:	48                   	dec    %eax
 5a0:	0e                   	push   %cs
 5a1:	50                   	push   %eax
 5a2:	4b                   	dec    %ebx
 5a3:	0e                   	push   %cs
 5a4:	58                   	pop    %eax
 5a5:	44                   	inc    %esp
 5a6:	0e                   	push   %cs
 5a7:	5c                   	pop    %esp
 5a8:	45                   	inc    %ebp
 5a9:	0e                   	push   %cs
 5aa:	60                   	pusha  
 5ab:	48                   	dec    %eax
 5ac:	0e                   	push   %cs
 5ad:	50                   	push   %eax
 5ae:	66 0e                	pushw  %cs
 5b0:	54                   	push   %esp
 5b1:	42                   	inc    %edx
 5b2:	0e                   	push   %cs
 5b3:	58                   	pop    %eax
 5b4:	41                   	inc    %ecx
 5b5:	0e                   	push   %cs
 5b6:	5c                   	pop    %esp
 5b7:	41                   	inc    %ecx
 5b8:	0e                   	push   %cs
 5b9:	60                   	pusha  
 5ba:	48                   	dec    %eax
 5bb:	0e                   	push   %cs
 5bc:	50                   	push   %eax
 5bd:	52                   	push   %edx
 5be:	0e                   	push   %cs
 5bf:	5c                   	pop    %esp
 5c0:	45                   	inc    %ebp
 5c1:	0e                   	push   %cs
 5c2:	60                   	pusha  
 5c3:	48                   	dec    %eax
 5c4:	0e                   	push   %cs
 5c5:	50                   	push   %eax
 5c6:	43                   	inc    %ebx
 5c7:	0e                   	push   %cs
 5c8:	58                   	pop    %eax
 5c9:	45                   	inc    %ebp
 5ca:	0e                   	push   %cs
 5cb:	5c                   	pop    %esp
 5cc:	45                   	inc    %ebp
 5cd:	0e                   	push   %cs
 5ce:	60                   	pusha  
 5cf:	48                   	dec    %eax
 5d0:	0e                   	push   %cs
 5d1:	50                   	push   %eax
 5d2:	59                   	pop    %ecx
 5d3:	0e                   	push   %cs
 5d4:	54                   	push   %esp
 5d5:	42                   	inc    %edx
 5d6:	0e                   	push   %cs
 5d7:	58                   	pop    %eax
 5d8:	42                   	inc    %edx
 5d9:	0e                   	push   %cs
 5da:	5c                   	pop    %esp
 5db:	41                   	inc    %ecx
 5dc:	0e                   	push   %cs
 5dd:	60                   	pusha  
 5de:	48                   	dec    %eax
 5df:	0e                   	push   %cs
 5e0:	50                   	push   %eax
 5e1:	52                   	push   %edx
 5e2:	0e                   	push   %cs
 5e3:	54                   	push   %esp
 5e4:	45                   	inc    %ebp
 5e5:	0e                   	push   %cs
 5e6:	58                   	pop    %eax
 5e7:	45                   	inc    %ebp
 5e8:	0e                   	push   %cs
 5e9:	5c                   	pop    %esp
 5ea:	45                   	inc    %ebp
 5eb:	0e                   	push   %cs
 5ec:	60                   	pusha  
 5ed:	48                   	dec    %eax
 5ee:	0e                   	push   %cs
 5ef:	50                   	push   %eax
 5f0:	43                   	inc    %ebx
 5f1:	0e                   	push   %cs
 5f2:	5c                   	pop    %esp
 5f3:	45                   	inc    %ebp
 5f4:	0e                   	push   %cs
 5f5:	60                   	pusha  
 5f6:	48                   	dec    %eax
 5f7:	0e                   	push   %cs
 5f8:	50                   	push   %eax
 5f9:	44                   	inc    %esp
 5fa:	0e                   	push   %cs
 5fb:	08 41 c3             	or     %al,-0x3d(%ecx)
 5fe:	0e                   	push   %cs
 5ff:	04 3c                	add    $0x3c,%al
 601:	00 00                	add    %al,(%eax)
 603:	00 fc                	add    %bh,%ah
 605:	04 00                	add    $0x0,%al
 607:	00 5a 6b             	add    %bl,0x6b(%edx)
 60a:	10 c0                	adc    %al,%al
 60c:	74 00                	je     60e <start_-0xff9fe>
 60e:	00 00                	add    %al,(%eax)
 610:	43                   	inc    %ebx
 611:	0e                   	push   %cs
 612:	20 43 0e             	and    %al,0xe(%ebx)
 615:	2c 45                	sub    $0x45,%al
 617:	0e                   	push   %cs
 618:	30 48 0e             	xor    %cl,0xe(%eax)
 61b:	20 4f 0e             	and    %cl,0xe(%edi)
 61e:	28 44 0e 2c          	sub    %al,0x2c(%esi,%ecx,1)
 622:	45                   	inc    %ebp
 623:	0e                   	push   %cs
 624:	30 48 0e             	xor    %cl,0xe(%eax)
 627:	20 54 0e 2c          	and    %dl,0x2c(%esi,%ecx,1)
 62b:	41                   	inc    %ecx
 62c:	0e                   	push   %cs
 62d:	30 48 0e             	xor    %cl,0xe(%eax)
 630:	20 52 0e             	and    %dl,0xe(%edx)
 633:	2c 45                	sub    $0x45,%al
 635:	0e                   	push   %cs
 636:	30 48 0e             	xor    %cl,0xe(%eax)
 639:	20 44 0e 04          	and    %al,0x4(%esi,%ecx,1)
 63d:	00 00                	add    %al,(%eax)
 63f:	00 40 00             	add    %al,0x0(%eax)
 642:	00 00                	add    %al,(%eax)
 644:	fc                   	cld    
 645:	04 00                	add    $0x0,%al
 647:	00 ce                	add    %cl,%dh
 649:	6b 10 c0             	imul   $0xffffffc0,(%eax),%edx
 64c:	51                   	push   %ecx
 64d:	00 00                	add    %al,(%eax)
 64f:	00 46 0e             	add    %al,0xe(%esi)
 652:	a0 02 43 0e ac       	mov    0xac0e4302,%al
 657:	02 45 0e             	add    0xe(%ebp),%al
 65a:	b0 02                	mov    $0x2,%al
 65c:	48                   	dec    %eax
 65d:	0e                   	push   %cs
 65e:	a0 02 43 0e ac       	mov    0xac0e4302,%al
 663:	02 45 0e             	add    0xe(%ebp),%al
 666:	b0 02                	mov    $0x2,%al
 668:	48                   	dec    %eax
 669:	0e                   	push   %cs
 66a:	a0 02 4a 0e a4       	mov    0xa40e4a02,%al
 66f:	02 47 0e             	add    0xe(%edi),%al
 672:	a8 02                	test   $0x2,%al
 674:	45                   	inc    %ebp
 675:	0e                   	push   %cs
 676:	ac                   	lods   %ds:(%esi),%al
 677:	02 45 0e             	add    0xe(%ebp),%al
 67a:	b0 02                	mov    $0x2,%al
 67c:	48                   	dec    %eax
 67d:	0e                   	push   %cs
 67e:	a0 02 47 0e 04       	mov    0x40e4702,%al
 683:	00 10                	add    %dl,(%eax)
 685:	00 00                	add    %al,(%eax)
 687:	00 ff                	add    %bh,%bh
 689:	ff                   	(bad)  
 68a:	ff                   	(bad)  
 68b:	ff 01                	incl   (%ecx)
 68d:	00 01                	add    %al,(%ecx)
 68f:	7c 08                	jl     699 <start_-0xff973>
 691:	0c 04                	or     $0x4,%al
 693:	04 88                	add    $0x88,%al
 695:	01 00                	add    %eax,(%eax)
 697:	00 14 00             	add    %dl,(%eax,%eax,1)
 69a:	00 00                	add    %al,(%eax)
 69c:	84 06                	test   %al,(%esi)
 69e:	00 00                	add    %al,(%eax)
 6a0:	1f                   	pop    %ds
 6a1:	6c                   	insb   (%dx),%es:(%edi)
 6a2:	10 c0                	adc    %al,%al
 6a4:	16                   	push   %ss
 6a5:	00 00                	add    %al,(%eax)
 6a7:	00 43 0e             	add    %al,0xe(%ebx)
 6aa:	10 52 0e             	adc    %dl,0xe(%edx)
 6ad:	04 00                	add    $0x0,%al
 6af:	00 0c 00             	add    %cl,(%eax,%eax,1)
 6b2:	00 00                	add    %al,(%eax)
 6b4:	84 06                	test   %al,(%esi)
 6b6:	00 00                	add    %al,(%eax)
 6b8:	35 6c 10 c0 0b       	xor    $0xbc0106c,%eax
 6bd:	00 00                	add    %al,(%eax)
 6bf:	00 14 00             	add    %dl,(%eax,%eax,1)
 6c2:	00 00                	add    %al,(%eax)
 6c4:	84 06                	test   %al,(%esi)
 6c6:	00 00                	add    %al,(%eax)
 6c8:	40                   	inc    %eax
 6c9:	6c                   	insb   (%dx),%es:(%edi)
 6ca:	10 c0                	adc    %al,%al
 6cc:	32 00                	xor    (%eax),%al
 6ce:	00 00                	add    %al,(%eax)
 6d0:	43                   	inc    %ebx
 6d1:	0e                   	push   %cs
 6d2:	0c 6e                	or     $0x6e,%al
 6d4:	0e                   	push   %cs
 6d5:	04 00                	add    $0x0,%al
 6d7:	00 1c 00             	add    %bl,(%eax,%eax,1)
 6da:	00 00                	add    %al,(%eax)
 6dc:	84 06                	test   %al,(%esi)
 6de:	00 00                	add    %al,(%eax)
 6e0:	72 6c                	jb     74e <start_-0xff8be>
 6e2:	10 c0                	adc    %al,%al
 6e4:	d9 00                	flds   (%eax)
 6e6:	00 00                	add    %al,(%eax)
 6e8:	41                   	inc    %ecx
 6e9:	0e                   	push   %cs
 6ea:	08 83 02 43 0e 20    	or     %al,0x200e4302(%ebx)
 6f0:	02 d3                	add    %bl,%dl
 6f2:	0e                   	push   %cs
 6f3:	08 41 c3             	or     %al,-0x3d(%ecx)
 6f6:	0e                   	push   %cs
 6f7:	04 1c                	add    $0x1c,%al
 6f9:	00 00                	add    %al,(%eax)
 6fb:	00 84 06 00 00 4b 6d 	add    %al,0x6d4b0000(%esi,%eax,1)
 702:	10 c0                	adc    %al,%al
 704:	31 00                	xor    %eax,(%eax)
 706:	00 00                	add    %al,(%eax)
 708:	43                   	inc    %ebx
 709:	0e                   	push   %cs
 70a:	10 4f 0e             	adc    %cl,0xe(%edi)
 70d:	1c 41                	sbb    $0x41,%al
 70f:	0e                   	push   %cs
 710:	20 48 0e             	and    %cl,0xe(%eax)
 713:	10 55 0e             	adc    %dl,0xe(%ebp)
 716:	04 00                	add    $0x0,%al
 718:	24 00                	and    $0x0,%al
 71a:	00 00                	add    %al,(%eax)
 71c:	84 06                	test   %al,(%esi)
 71e:	00 00                	add    %al,(%eax)
 720:	7c 6d                	jl     78f <start_-0xff87d>
 722:	10 c0                	adc    %al,%al
 724:	87 00                	xchg   %eax,(%eax)
 726:	00 00                	add    %al,(%eax)
 728:	43                   	inc    %ebx
 729:	0e                   	push   %cs
 72a:	20 62 0e             	and    %ah,0xe(%edx)
 72d:	24 41                	and    $0x41,%al
 72f:	0e                   	push   %cs
 730:	28 41 0e             	sub    %al,0xe(%ecx)
 733:	2c 41                	sub    $0x41,%al
 735:	0e                   	push   %cs
 736:	30 48 0e             	xor    %cl,0xe(%eax)
 739:	20 02                	and    %al,(%edx)
 73b:	56                   	push   %esi
 73c:	0e                   	push   %cs
 73d:	04 00                	add    $0x0,%al
 73f:	00 14 00             	add    %dl,(%eax,%eax,1)
 742:	00 00                	add    %al,(%eax)
 744:	84 06                	test   %al,(%esi)
 746:	00 00                	add    %al,(%eax)
 748:	03 6e 10             	add    0x10(%esi),%ebp
 74b:	c0 4c 00 00 00       	rorb   $0x0,0x0(%eax,%eax,1)
 750:	43                   	inc    %ebx
 751:	0e                   	push   %cs
 752:	14 02                	adc    $0x2,%al
 754:	48                   	dec    %eax
 755:	0e                   	push   %cs
 756:	04 00                	add    $0x0,%al
 758:	10 00                	adc    %al,(%eax)
 75a:	00 00                	add    %al,(%eax)
 75c:	ff                   	(bad)  
 75d:	ff                   	(bad)  
 75e:	ff                   	(bad)  
 75f:	ff 01                	incl   (%ecx)
 761:	00 01                	add    %al,(%ecx)
 763:	7c 08                	jl     76d <start_-0xff89f>
 765:	0c 04                	or     $0x4,%al
 767:	04 88                	add    $0x88,%al
 769:	01 00                	add    %eax,(%eax)
 76b:	00 34 00             	add    %dh,(%eax,%eax,1)
 76e:	00 00                	add    %al,(%eax)
 770:	58                   	pop    %eax
 771:	07                   	pop    %es
 772:	00 00                	add    %al,(%eax)
 774:	dc 6e 10             	fsubrl 0x10(%esi)
 777:	c0 b9 00 00 00 41 0e 	sarb   $0xe,0x41000000(%ecx)
 77e:	08 85 02 41 0e 0c    	or     %al,0xc0e4102(%ebp)
 784:	87 03                	xchg   %eax,(%ebx)
 786:	41                   	inc    %ecx
 787:	0e                   	push   %cs
 788:	10 86 04 41 0e 14    	adc    %al,0x140e4104(%esi)
 78e:	83 05 02 b1 c3 0e 10 	addl   $0x10,0xec3b102
 795:	41                   	inc    %ecx
 796:	c6                   	(bad)  
 797:	0e                   	push   %cs
 798:	0c 41                	or     $0x41,%al
 79a:	c7                   	(bad)  
 79b:	0e                   	push   %cs
 79c:	08 41 c5             	or     %al,-0x3b(%ecx)
 79f:	0e                   	push   %cs
 7a0:	04 00                	add    $0x0,%al
 7a2:	00 00                	add    %al,(%eax)
 7a4:	60                   	pusha  
 7a5:	00 00                	add    %al,(%eax)
 7a7:	00 58 07             	add    %bl,0x7(%eax)
 7aa:	00 00                	add    %al,(%eax)
 7ac:	95                   	xchg   %eax,%ebp
 7ad:	6f                   	outsl  %ds:(%esi),(%dx)
 7ae:	10 c0                	adc    %al,%al
 7b0:	70 00                	jo     7b2 <start_-0xff85a>
 7b2:	00 00                	add    %al,(%eax)
 7b4:	43                   	inc    %ebx
 7b5:	0e                   	push   %cs
 7b6:	08 42 0e             	or     %al,0xe(%edx)
 7b9:	0c 42                	or     $0x42,%al
 7bb:	0e                   	push   %cs
 7bc:	10 42 0e             	adc    %al,0xe(%edx)
 7bf:	14 42                	adc    $0x42,%al
 7c1:	0e                   	push   %cs
 7c2:	18 48 0e             	sbb    %cl,0xe(%eax)
 7c5:	08 45 0e             	or     %al,0xe(%ebp)
 7c8:	0c 45                	or     $0x45,%al
 7ca:	0e                   	push   %cs
 7cb:	10 42 0e             	adc    %al,0xe(%edx)
 7ce:	14 42                	adc    $0x42,%al
 7d0:	0e                   	push   %cs
 7d1:	18 48 0e             	sbb    %cl,0xe(%eax)
 7d4:	08 45 0e             	or     %al,0xe(%ebp)
 7d7:	0c 45                	or     $0x45,%al
 7d9:	0e                   	push   %cs
 7da:	10 42 0e             	adc    %al,0xe(%edx)
 7dd:	14 42                	adc    $0x42,%al
 7df:	0e                   	push   %cs
 7e0:	18 48 0e             	sbb    %cl,0xe(%eax)
 7e3:	08 45 0e             	or     %al,0xe(%ebp)
 7e6:	0c 45                	or     $0x45,%al
 7e8:	0e                   	push   %cs
 7e9:	10 42 0e             	adc    %al,0xe(%edx)
 7ec:	14 42                	adc    $0x42,%al
 7ee:	0e                   	push   %cs
 7ef:	18 48 0e             	sbb    %cl,0xe(%eax)
 7f2:	08 45 0e             	or     %al,0xe(%ebp)
 7f5:	0c 45                	or     $0x45,%al
 7f7:	0e                   	push   %cs
 7f8:	10 42 0e             	adc    %al,0xe(%edx)
 7fb:	14 42                	adc    $0x42,%al
 7fd:	0e                   	push   %cs
 7fe:	18 48 0e             	sbb    %cl,0xe(%eax)
 801:	08 44 0e 04          	or     %al,0x4(%esi,%ecx,1)
 805:	00 00                	add    %al,(%eax)
 807:	00 10                	add    %dl,(%eax)
 809:	00 00                	add    %al,(%eax)
 80b:	00 ff                	add    %bh,%bh
 80d:	ff                   	(bad)  
 80e:	ff                   	(bad)  
 80f:	ff 01                	incl   (%ecx)
 811:	00 01                	add    %al,(%ecx)
 813:	7c 08                	jl     81d <start_-0xff7ef>
 815:	0c 04                	or     $0x4,%al
 817:	04 88                	add    $0x88,%al
 819:	01 00                	add    %eax,(%eax)
 81b:	00 1c 00             	add    %bl,(%eax,%eax,1)
 81e:	00 00                	add    %al,(%eax)
 820:	08 08                	or     %cl,(%eax)
 822:	00 00                	add    %al,(%eax)
 824:	05 70 10 c0 1d       	add    $0x1dc01070,%eax
 829:	00 00                	add    %al,(%eax)
 82b:	00 43 0e             	add    %al,0xe(%ebx)
 82e:	10 48 0e             	adc    %cl,0xe(%eax)
 831:	1c 45                	sbb    $0x45,%al
 833:	0e                   	push   %cs
 834:	20 48 0e             	and    %cl,0xe(%eax)
 837:	10 44 0e 04          	adc    %al,0x4(%esi,%ecx,1)
 83b:	00 1c 00             	add    %bl,(%eax,%eax,1)
 83e:	00 00                	add    %al,(%eax)
 840:	08 08                	or     %cl,(%eax)
 842:	00 00                	add    %al,(%eax)
 844:	22 70 10             	and    0x10(%eax),%dh
 847:	c0 22 00             	shlb   $0x0,(%edx)
 84a:	00 00                	add    %al,(%eax)
 84c:	43                   	inc    %ebx
 84d:	0e                   	push   %cs
 84e:	10 4d 0e             	adc    %cl,0xe(%ebp)
 851:	1c 44                	sbb    $0x44,%al
 853:	0e                   	push   %cs
 854:	20 48 0e             	and    %cl,0xe(%eax)
 857:	10 45 0e             	adc    %al,0xe(%ebp)
 85a:	04 00                	add    $0x0,%al
 85c:	10 00                	adc    %al,(%eax)
 85e:	00 00                	add    %al,(%eax)
 860:	ff                   	(bad)  
 861:	ff                   	(bad)  
 862:	ff                   	(bad)  
 863:	ff 01                	incl   (%ecx)
 865:	00 01                	add    %al,(%ecx)
 867:	7c 08                	jl     871 <start_-0xff79b>
 869:	0c 04                	or     $0x4,%al
 86b:	04 88                	add    $0x88,%al
 86d:	01 00                	add    %eax,(%eax)
 86f:	00 38                	add    %bh,(%eax)
 871:	00 00                	add    %al,(%eax)
 873:	00 5c 08 00          	add    %bl,0x0(%eax,%ecx,1)
 877:	00 44 70 10          	add    %al,0x10(%eax,%esi,2)
 87b:	c0 cf 00             	ror    $0x0,%bh
 87e:	00 00                	add    %al,(%eax)
 880:	41                   	inc    %ecx
 881:	0e                   	push   %cs
 882:	08 85 02 41 0e 0c    	or     %al,0xc0e4102(%ebp)
 888:	87 03                	xchg   %eax,(%ebx)
 88a:	41                   	inc    %ecx
 88b:	0e                   	push   %cs
 88c:	10 86 04 41 0e 14    	adc    %al,0x140e4104(%esi)
 892:	83 05 43 0e 30 02 c3 	addl   $0xffffffc3,0x2300e43
 899:	0e                   	push   %cs
 89a:	14 41                	adc    $0x41,%al
 89c:	c3                   	ret    
 89d:	0e                   	push   %cs
 89e:	10 41 c6             	adc    %al,-0x3a(%ecx)
 8a1:	0e                   	push   %cs
 8a2:	0c 41                	or     $0x41,%al
 8a4:	c7                   	(bad)  
 8a5:	0e                   	push   %cs
 8a6:	08 41 c5             	or     %al,-0x3b(%ecx)
 8a9:	0e                   	push   %cs
 8aa:	04 00                	add    $0x0,%al
 8ac:	24 00                	and    $0x0,%al
 8ae:	00 00                	add    %al,(%eax)
 8b0:	5c                   	pop    %esp
 8b1:	08 00                	or     %al,(%eax)
 8b3:	00 13                	add    %dl,(%ebx)
 8b5:	71 10                	jno    8c7 <start_-0xff745>
 8b7:	c0 1b 00             	rcrb   $0x0,(%ebx)
 8ba:	00 00                	add    %al,(%eax)
 8bc:	43                   	inc    %ebx
 8bd:	0e                   	push   %cs
 8be:	08 42 0e             	or     %al,0xe(%edx)
 8c1:	0c 45                	or     $0x45,%al
 8c3:	0e                   	push   %cs
 8c4:	10 42 0e             	adc    %al,0xe(%edx)
 8c7:	14 42                	adc    $0x42,%al
 8c9:	0e                   	push   %cs
 8ca:	18 48 0e             	sbb    %cl,0xe(%eax)
 8cd:	08 44 0e 04          	or     %al,0x4(%esi,%ecx,1)
 8d1:	00 00                	add    %al,(%eax)
	...
